
build/bootloader.elf:     file format elf64-littleaarch64


Disassembly of section .text:

0000000000060000 <_start>:
   60000:	d53800a1 	mrs	x1, mpidr_el1
   60004:	92400421 	and	x1, x1, #0x3
   60008:	b4000061 	cbz	x1, 60014 <_start+0x14>
   6000c:	d503205f 	wfe
   60010:	17ffffff 	b	6000c <_start+0xc>
   60014:	58000161 	ldr	x1, 60040 <_start+0x40>
   60018:	9100003f 	mov	sp, x1
   6001c:	58000161 	ldr	x1, 60048 <_start+0x48>
   60020:	180000e2 	ldr	w2, 6003c <_start+0x3c>
   60024:	34000082 	cbz	w2, 60034 <_start+0x34>
   60028:	f800843f 	str	xzr, [x1], #8
   6002c:	51000442 	sub	w2, w2, #0x1
   60030:	35ffffa2 	cbnz	w2, 60024 <_start+0x24>
   60034:	94000033 	bl	60100 <main>
   60038:	17fffff5 	b	6000c <_start+0xc>
   6003c:	00000012 	udf	#18
   60040:	00060000 	.inst	0x00060000 ; undefined
   60044:	00000000 	udf	#0
   60048:	000614f0 	.inst	0x000614f0 ; undefined
   6004c:	00000000 	udf	#0

0000000000060050 <loadimg>:
   60050:	a9bc7bfd 	stp	x29, x30, [sp, #-64]!
   60054:	b0000000 	adrp	x0, 61000 <shell+0x20>
   60058:	91018000 	add	x0, x0, #0x60
   6005c:	910003fd 	mov	x29, sp
   60060:	a90153f3 	stp	x19, x20, [sp, #16]
   60064:	52800013 	mov	w19, #0x0                   	// #0
   60068:	f90013f5 	str	x21, [sp, #32]
   6006c:	94000149 	bl	60590 <uart_puts>
   60070:	14000005 	b	60084 <loadimg+0x34>
   60074:	3940fff3 	ldrb	w19, [sp, #63]
   60078:	12001e73 	and	w19, w19, #0xff
   6007c:	5100c273 	sub	w19, w19, #0x30
   60080:	0b010673 	add	w19, w19, w1, lsl #1
   60084:	94000134 	bl	60554 <uart_getc>
   60088:	3900ffe0 	strb	w0, [sp, #63]
   6008c:	0b130a61 	add	w1, w19, w19, lsl #2
   60090:	3940ffe0 	ldrb	w0, [sp, #63]
   60094:	72001c1f 	tst	w0, #0xff
   60098:	54fffee1 	b.ne	60074 <loadimg+0x24>  // b.any
   6009c:	11420275 	add	w21, w19, #0x80, lsl #12
   600a0:	d2a00114 	mov	x20, #0x80000               	// #524288
   600a4:	7100027f 	cmp	w19, #0x0
   600a8:	5400012d 	b.le	600cc <loadimg+0x7c>
   600ac:	d503201f 	nop
   600b0:	94000129 	bl	60554 <uart_getc>
   600b4:	3900ffe0 	strb	w0, [sp, #63]
   600b8:	3940ffe0 	ldrb	w0, [sp, #63]
   600bc:	12001c00 	and	w0, w0, #0xff
   600c0:	38001680 	strb	w0, [x20], #1
   600c4:	eb15029f 	cmp	x20, x21
   600c8:	54ffff41 	b.ne	600b0 <loadimg+0x60>  // b.any
   600cc:	5284e200 	mov	w0, #0x2710                	// #10000
   600d0:	d503201f 	nop
   600d4:	71000400 	subs	w0, w0, #0x1
   600d8:	54ffffc1 	b.ne	600d0 <loadimg+0x80>  // b.any
   600dc:	b0000000 	adrp	x0, 61000 <shell+0x20>
   600e0:	9101c000 	add	x0, x0, #0x70
   600e4:	9400012b 	bl	60590 <uart_puts>
   600e8:	a94153f3 	ldp	x19, x20, [sp, #16]
   600ec:	d2a00100 	mov	x0, #0x80000               	// #524288
   600f0:	f94013f5 	ldr	x21, [sp, #32]
   600f4:	aa0003f0 	mov	x16, x0
   600f8:	a8c47bfd 	ldp	x29, x30, [sp], #64
   600fc:	d61f0200 	br	x16

0000000000060100 <main>:
   60100:	a9b87bfd 	stp	x29, x30, [sp, #-128]!
   60104:	910003fd 	mov	x29, sp
   60108:	a90153f3 	stp	x19, x20, [sp, #16]
   6010c:	b0000014 	adrp	x20, 61000 <shell+0x20>
   60110:	9101a3f3 	add	x19, sp, #0x68
   60114:	910a0294 	add	x20, x20, #0x280
   60118:	a9025bf5 	stp	x21, x22, [sp, #32]
   6011c:	b0000015 	adrp	x21, 61000 <shell+0x20>
   60120:	9109e2b5 	add	x21, x21, #0x278
   60124:	a9046bf9 	stp	x25, x26, [sp, #64]
   60128:	b0000019 	adrp	x25, 61000 <shell+0x20>
   6012c:	5290d41a 	mov	w26, #0x86a0                	// #34464
   60130:	910ba339 	add	x25, x25, #0x2e8
   60134:	a90573fb 	stp	x27, x28, [sp, #80]
   60138:	b000001b 	adrp	x27, 61000 <shell+0x20>
   6013c:	910c637b 	add	x27, x27, #0x318
   60140:	b0000016 	adrp	x22, 61000 <shell+0x20>
   60144:	b000001c 	adrp	x28, 61000 <shell+0x20>
   60148:	72a0003a 	movk	w26, #0x1, lsl #16
   6014c:	a90363f7 	stp	x23, x24, [sp, #48]
   60150:	b0000018 	adrp	x24, 61000 <shell+0x20>
   60154:	b0000017 	adrp	x23, 61000 <shell+0x20>
   60158:	940000b6 	bl	60430 <uart_init>
   6015c:	b0000000 	adrp	x0, 61000 <shell+0x20>
   60160:	91022000 	add	x0, x0, #0x88
   60164:	9400010b 	bl	60590 <uart_puts>
   60168:	aa1503e0 	mov	x0, x21
   6016c:	94000109 	bl	60590 <uart_puts>
   60170:	aa1303e0 	mov	x0, x19
   60174:	9400039b 	bl	60fe0 <shell>
   60178:	aa1403e1 	mov	x1, x20
   6017c:	aa1303e0 	mov	x0, x19
   60180:	94000144 	bl	60690 <strcmp>
   60184:	2a0003e1 	mov	w1, w0
   60188:	910a22c0 	add	x0, x22, #0x288
   6018c:	350000e1 	cbnz	w1, 601a8 <main+0xa8>
   60190:	94000100 	bl	60590 <uart_puts>
   60194:	910ac300 	add	x0, x24, #0x2b0
   60198:	940000fe 	bl	60590 <uart_puts>
   6019c:	910b42e0 	add	x0, x23, #0x2d0
   601a0:	940000fc 	bl	60590 <uart_puts>
   601a4:	17fffff1 	b	60168 <main+0x68>
   601a8:	aa1903e1 	mov	x1, x25
   601ac:	aa1303e0 	mov	x0, x19
   601b0:	94000138 	bl	60690 <strcmp>
   601b4:	2a0003e1 	mov	w1, w0
   601b8:	2a1a03e0 	mov	w0, w26
   601bc:	350001a1 	cbnz	w1, 601f0 <main+0xf0>
   601c0:	94000088 	bl	603e0 <reset>
   601c4:	910bc380 	add	x0, x28, #0x2f0
   601c8:	940000f2 	bl	60590 <uart_puts>
   601cc:	aa1303e0 	mov	x0, x19
   601d0:	94000384 	bl	60fe0 <shell>
   601d4:	b0000000 	adrp	x0, 61000 <shell+0x20>
   601d8:	910c4001 	add	x1, x0, #0x310
   601dc:	aa1303e0 	mov	x0, x19
   601e0:	9400012c 	bl	60690 <strcmp>
   601e4:	35fffc20 	cbnz	w0, 60168 <main+0x68>
   601e8:	9400008a 	bl	60410 <cancel_reset>
   601ec:	17ffffdf 	b	60168 <main+0x68>
   601f0:	aa1b03e1 	mov	x1, x27
   601f4:	aa1303e0 	mov	x0, x19
   601f8:	94000126 	bl	60690 <strcmp>
   601fc:	2a0003e1 	mov	w1, w0
   60200:	b0000000 	adrp	x0, 61000 <shell+0x20>
   60204:	910c8000 	add	x0, x0, #0x320
   60208:	35000061 	cbnz	w1, 60214 <main+0x114>
   6020c:	97ffff91 	bl	60050 <loadimg>
   60210:	17ffffd6 	b	60168 <main+0x68>
   60214:	940000df 	bl	60590 <uart_puts>
   60218:	aa1303e0 	mov	x0, x19
   6021c:	940000dd 	bl	60590 <uart_puts>
   60220:	b0000000 	adrp	x0, 61000 <shell+0x20>
   60224:	910ca000 	add	x0, x0, #0x328
   60228:	940000da 	bl	60590 <uart_puts>
   6022c:	17ffffcf 	b	60168 <main+0x68>

0000000000060230 <mailbox_call>:
   60230:	b0000004 	adrp	x4, 61000 <shell+0x20>
   60234:	9113c082 	add	x2, x4, #0x4f0
   60238:	d2971301 	mov	x1, #0xb898                	// #47256
   6023c:	321d0042 	orr	w2, w2, #0x8
   60240:	f2a7e001 	movk	x1, #0x3f00, lsl #16
   60244:	d503201f 	nop
   60248:	d503201f 	nop
   6024c:	b9400020 	ldr	w0, [x1]
   60250:	37ffffc0 	tbnz	w0, #31, 60248 <mailbox_call+0x18>
   60254:	d2971400 	mov	x0, #0xb8a0                	// #47264
   60258:	d2971301 	mov	x1, #0xb898                	// #47256
   6025c:	f2a7e000 	movk	x0, #0x3f00, lsl #16
   60260:	d2971003 	mov	x3, #0xb880                	// #47232
   60264:	f2a7e001 	movk	x1, #0x3f00, lsl #16
   60268:	f2a7e003 	movk	x3, #0x3f00, lsl #16
   6026c:	b9000002 	str	w2, [x0]
   60270:	d503201f 	nop
   60274:	b9400020 	ldr	w0, [x1]
   60278:	37f7ffc0 	tbnz	w0, #30, 60270 <mailbox_call+0x40>
   6027c:	b9400060 	ldr	w0, [x3]
   60280:	6b02001f 	cmp	w0, w2
   60284:	54ffff61 	b.ne	60270 <mailbox_call+0x40>  // b.any
   60288:	9113c084 	add	x4, x4, #0x4f0
   6028c:	52b00000 	mov	w0, #0x80000000            	// #-2147483648
   60290:	b9400481 	ldr	w1, [x4, #4]
   60294:	6b00003f 	cmp	w1, w0
   60298:	1a9f17e0 	cset	w0, eq  // eq = none
   6029c:	d65f03c0 	ret

00000000000602a0 <get_board_revision>:
   602a0:	b0000004 	adrp	x4, 61000 <shell+0x20>
   602a4:	9113c080 	add	x0, x4, #0x4f0
   602a8:	52800382 	mov	w2, #0x1c                  	// #28
   602ac:	52800041 	mov	w1, #0x2                   	// #2
   602b0:	b904f082 	str	w2, [x4, #1264]
   602b4:	72a00021 	movk	w1, #0x1, lsl #16
   602b8:	b900041f 	str	wzr, [x0, #4]
   602bc:	52800083 	mov	w3, #0x4                   	// #4
   602c0:	b9000801 	str	w1, [x0, #8]
   602c4:	321d0002 	orr	w2, w0, #0x8
   602c8:	b9000c03 	str	w3, [x0, #12]
   602cc:	d2971301 	mov	x1, #0xb898                	// #47256
   602d0:	b900101f 	str	wzr, [x0, #16]
   602d4:	f2a7e001 	movk	x1, #0x3f00, lsl #16
   602d8:	b900141f 	str	wzr, [x0, #20]
   602dc:	b900181f 	str	wzr, [x0, #24]
   602e0:	d503201f 	nop
   602e4:	b9400020 	ldr	w0, [x1]
   602e8:	37ffffc0 	tbnz	w0, #31, 602e0 <get_board_revision+0x40>
   602ec:	d2971400 	mov	x0, #0xb8a0                	// #47264
   602f0:	d2971301 	mov	x1, #0xb898                	// #47256
   602f4:	f2a7e000 	movk	x0, #0x3f00, lsl #16
   602f8:	d2971003 	mov	x3, #0xb880                	// #47232
   602fc:	f2a7e001 	movk	x1, #0x3f00, lsl #16
   60300:	f2a7e003 	movk	x3, #0x3f00, lsl #16
   60304:	b9000002 	str	w2, [x0]
   60308:	d503201f 	nop
   6030c:	b9400020 	ldr	w0, [x1]
   60310:	37f7ffc0 	tbnz	w0, #30, 60308 <get_board_revision+0x68>
   60314:	b9400060 	ldr	w0, [x3]
   60318:	6b00005f 	cmp	w2, w0
   6031c:	54ffff61 	b.ne	60308 <get_board_revision+0x68>  // b.any
   60320:	9113c084 	add	x4, x4, #0x4f0
   60324:	b9400480 	ldr	w0, [x4, #4]
   60328:	d65f03c0 	ret
   6032c:	d503201f 	nop

0000000000060330 <get_arm_mem>:
   60330:	b0000004 	adrp	x4, 61000 <shell+0x20>
   60334:	9113c080 	add	x0, x4, #0x4f0
   60338:	52800402 	mov	w2, #0x20                  	// #32
   6033c:	528000a1 	mov	w1, #0x5                   	// #5
   60340:	b904f082 	str	w2, [x4, #1264]
   60344:	72a00021 	movk	w1, #0x1, lsl #16
   60348:	b900041f 	str	wzr, [x0, #4]
   6034c:	52800103 	mov	w3, #0x8                   	// #8
   60350:	b9000801 	str	w1, [x0, #8]
   60354:	2a030002 	orr	w2, w0, w3
   60358:	b9000c03 	str	w3, [x0, #12]
   6035c:	d2971301 	mov	x1, #0xb898                	// #47256
   60360:	b900101f 	str	wzr, [x0, #16]
   60364:	f2a7e001 	movk	x1, #0x3f00, lsl #16
   60368:	b900141f 	str	wzr, [x0, #20]
   6036c:	b900181f 	str	wzr, [x0, #24]
   60370:	b9001c1f 	str	wzr, [x0, #28]
   60374:	d503201f 	nop
   60378:	d503201f 	nop
   6037c:	b9400020 	ldr	w0, [x1]
   60380:	37ffffc0 	tbnz	w0, #31, 60378 <get_arm_mem+0x48>
   60384:	d2971400 	mov	x0, #0xb8a0                	// #47264
   60388:	d2971301 	mov	x1, #0xb898                	// #47256
   6038c:	f2a7e000 	movk	x0, #0x3f00, lsl #16
   60390:	d2971003 	mov	x3, #0xb880                	// #47232
   60394:	f2a7e001 	movk	x1, #0x3f00, lsl #16
   60398:	f2a7e003 	movk	x3, #0x3f00, lsl #16
   6039c:	b9000002 	str	w2, [x0]
   603a0:	d503201f 	nop
   603a4:	b9400020 	ldr	w0, [x1]
   603a8:	37f7ffc0 	tbnz	w0, #30, 603a0 <get_arm_mem+0x70>
   603ac:	b9400060 	ldr	w0, [x3]
   603b0:	6b00005f 	cmp	w2, w0
   603b4:	54ffff61 	b.ne	603a0 <get_arm_mem+0x70>  // b.any
   603b8:	9113c084 	add	x4, x4, #0x4f0
   603bc:	b9400480 	ldr	w0, [x4, #4]
   603c0:	d65f03c0 	ret
	...

00000000000603d0 <set>:
   603d0:	2a0003e0 	mov	w0, w0
   603d4:	b9000001 	str	w1, [x0]
   603d8:	d65f03c0 	ret
   603dc:	d503201f 	nop

00000000000603e0 <reset>:
   603e0:	d2800382 	mov	x2, #0x1c                  	// #28
   603e4:	d2800481 	mov	x1, #0x24                  	// #36
   603e8:	f2a7e202 	movk	x2, #0x3f10, lsl #16
   603ec:	f2a7e201 	movk	x1, #0x3f10, lsl #16
   603f0:	52800403 	mov	w3, #0x20                  	// #32
   603f4:	52ab4004 	mov	w4, #0x5a000000            	// #1509949440
   603f8:	72ab4003 	movk	w3, #0x5a00, lsl #16
   603fc:	b9000043 	str	w3, [x2]
   60400:	2a040000 	orr	w0, w0, w4
   60404:	b9000020 	str	w0, [x1]
   60408:	d65f03c0 	ret
   6040c:	d503201f 	nop

0000000000060410 <cancel_reset>:
   60410:	d2800382 	mov	x2, #0x1c                  	// #28
   60414:	d2800481 	mov	x1, #0x24                  	// #36
   60418:	f2a7e202 	movk	x2, #0x3f10, lsl #16
   6041c:	f2a7e201 	movk	x1, #0x3f10, lsl #16
   60420:	52ab4000 	mov	w0, #0x5a000000            	// #1509949440
   60424:	b9000040 	str	w0, [x2]
   60428:	b9000020 	str	w0, [x1]
   6042c:	d65f03c0 	ret

0000000000060430 <uart_init>:
   60430:	d2801281 	mov	x1, #0x94                  	// #148
   60434:	528012c0 	mov	w0, #0x96                  	// #150
   60438:	f2a7e401 	movk	x1, #0x3f20, lsl #16
   6043c:	b900003f 	str	wzr, [x1]
   60440:	d503201f 	nop
   60444:	71000400 	subs	w0, w0, #0x1
   60448:	54ffffc1 	b.ne	60440 <uart_init+0x10>  // b.any
   6044c:	d2801301 	mov	x1, #0x98                  	// #152
   60450:	52980002 	mov	w2, #0xc000                	// #49152
   60454:	f2a7e401 	movk	x1, #0x3f20, lsl #16
   60458:	528012c0 	mov	w0, #0x96                  	// #150
   6045c:	b9000022 	str	w2, [x1]
   60460:	d503201f 	nop
   60464:	71000400 	subs	w0, w0, #0x1
   60468:	54ffffc1 	b.ne	60460 <uart_init+0x30>  // b.any
   6046c:	d2801300 	mov	x0, #0x98                  	// #152
   60470:	d28a0081 	mov	x1, #0x5004                	// #20484
   60474:	f2a7e400 	movk	x0, #0x3f20, lsl #16
   60478:	f2a7e421 	movk	x1, #0x3f21, lsl #16
   6047c:	d28a0c03 	mov	x3, #0x5060                	// #20576
   60480:	d28a0982 	mov	x2, #0x504c                	// #20556
   60484:	b900001f 	str	wzr, [x0]
   60488:	f2a7e423 	movk	x3, #0x3f21, lsl #16
   6048c:	f2a7e422 	movk	x2, #0x3f21, lsl #16
   60490:	d28a0a05 	mov	x5, #0x5050                	// #20560
   60494:	b9400020 	ldr	w0, [x1]
   60498:	f2a7e425 	movk	x5, #0x3f21, lsl #16
   6049c:	d28a0889 	mov	x9, #0x5044                	// #20548
   604a0:	52800064 	mov	w4, #0x3                   	// #3
   604a4:	32000000 	orr	w0, w0, #0x1
   604a8:	b9000020 	str	w0, [x1]
   604ac:	b900007f 	str	wzr, [x3]
   604b0:	f2a7e429 	movk	x9, #0x3f21, lsl #16
   604b4:	d28a0907 	mov	x7, #0x5048                	// #20552
   604b8:	b9000044 	str	w4, [x2]
   604bc:	f2a7e427 	movk	x7, #0x3f21, lsl #16
   604c0:	d28a0d06 	mov	x6, #0x5068                	// #20584
   604c4:	b90000bf 	str	wzr, [x5]
   604c8:	f2a7e426 	movk	x6, #0x3f21, lsl #16
   604cc:	b900013f 	str	wzr, [x9]
   604d0:	528000c8 	mov	w8, #0x6                   	// #6
   604d4:	b90000e8 	str	w8, [x7]
   604d8:	528021c0 	mov	w0, #0x10e                 	// #270
   604dc:	d2800082 	mov	x2, #0x4                   	// #4
   604e0:	b90000c0 	str	w0, [x6]
   604e4:	f2a7e402 	movk	x2, #0x3f20, lsl #16
   604e8:	b9000064 	str	w4, [x3]
   604ec:	91014021 	add	x1, x1, #0x50
   604f0:	52840005 	mov	w5, #0x2000                	// #8192
   604f4:	b9400040 	ldr	w0, [x2]
   604f8:	72a00025 	movk	w5, #0x1, lsl #16
   604fc:	120e6400 	and	w0, w0, #0xfffc0fff
   60500:	2a050000 	orr	w0, w0, w5
   60504:	b9000040 	str	w0, [x2]
   60508:	b9400020 	ldr	w0, [x1]
   6050c:	360000c0 	tbz	w0, #0, 60524 <uart_init+0xf4>
   60510:	d28a0802 	mov	x2, #0x5040                	// #20544
   60514:	f2a7e422 	movk	x2, #0x3f21, lsl #16
   60518:	b9400040 	ldr	w0, [x2]
   6051c:	b9400020 	ldr	w0, [x1]
   60520:	3707ffc0 	tbnz	w0, #0, 60518 <uart_init+0xe8>
   60524:	d65f03c0 	ret
   60528:	d503201f 	nop
   6052c:	d503201f 	nop

0000000000060530 <uart_send>:
   60530:	d28a0a82 	mov	x2, #0x5054                	// #20564
   60534:	f2a7e422 	movk	x2, #0x3f21, lsl #16
   60538:	d503201f 	nop
   6053c:	b9400041 	ldr	w1, [x2]
   60540:	362fffc1 	tbz	w1, #5, 60538 <uart_send+0x8>
   60544:	d28a0801 	mov	x1, #0x5040                	// #20544
   60548:	f2a7e421 	movk	x1, #0x3f21, lsl #16
   6054c:	b9000020 	str	w0, [x1]
   60550:	d65f03c0 	ret

0000000000060554 <uart_getc>:
   60554:	d28a0a81 	mov	x1, #0x5054                	// #20564
   60558:	f2a7e421 	movk	x1, #0x3f21, lsl #16
   6055c:	d503201f 	nop
   60560:	d503201f 	nop
   60564:	b9400020 	ldr	w0, [x1]
   60568:	3607ffc0 	tbz	w0, #0, 60560 <uart_getc+0xc>
   6056c:	d28a0800 	mov	x0, #0x5040                	// #20544
   60570:	52800141 	mov	w1, #0xa                   	// #10
   60574:	f2a7e420 	movk	x0, #0x3f21, lsl #16
   60578:	b9400000 	ldr	w0, [x0]
   6057c:	12001c00 	and	w0, w0, #0xff
   60580:	7100341f 	cmp	w0, #0xd
   60584:	1a811000 	csel	w0, w0, w1, ne  // ne = any
   60588:	d65f03c0 	ret
   6058c:	d503201f 	nop

0000000000060590 <uart_puts>:
   60590:	39400001 	ldrb	w1, [x0]
   60594:	34000221 	cbz	w1, 605d8 <uart_puts+0x48>
   60598:	d28a0a82 	mov	x2, #0x5054                	// #20564
   6059c:	d28a0804 	mov	x4, #0x5040                	// #20544
   605a0:	f2a7e422 	movk	x2, #0x3f21, lsl #16
   605a4:	f2a7e424 	movk	x4, #0x3f21, lsl #16
   605a8:	528001a5 	mov	w5, #0xd                   	// #13
   605ac:	d503201f 	nop
   605b0:	7100283f 	cmp	w1, #0xa
   605b4:	54000140 	b.eq	605dc <uart_puts+0x4c>  // b.none
   605b8:	38401403 	ldrb	w3, [x0], #1
   605bc:	d503201f 	nop
   605c0:	d503201f 	nop
   605c4:	b9400041 	ldr	w1, [x2]
   605c8:	362fffc1 	tbz	w1, #5, 605c0 <uart_puts+0x30>
   605cc:	b9000083 	str	w3, [x4]
   605d0:	39400001 	ldrb	w1, [x0]
   605d4:	35fffee1 	cbnz	w1, 605b0 <uart_puts+0x20>
   605d8:	d65f03c0 	ret
   605dc:	d503201f 	nop
   605e0:	b9400041 	ldr	w1, [x2]
   605e4:	362fffc1 	tbz	w1, #5, 605dc <uart_puts+0x4c>
   605e8:	b9000085 	str	w5, [x4]
   605ec:	17fffff3 	b	605b8 <uart_puts+0x28>

00000000000605f0 <uart_hex>:
   605f0:	a9bf7bfd 	stp	x29, x30, [sp, #-16]!
   605f4:	b0000001 	adrp	x1, 61000 <shell+0x20>
   605f8:	2a0003e6 	mov	w6, w0
   605fc:	910003fd 	mov	x29, sp
   60600:	910da020 	add	x0, x1, #0x368
   60604:	97ffffe3 	bl	60590 <uart_puts>
   60608:	d28a0a82 	mov	x2, #0x5054                	// #20564
   6060c:	d28a0800 	mov	x0, #0x5040                	// #20544
   60610:	52800383 	mov	w3, #0x1c                  	// #28
   60614:	52800ae7 	mov	w7, #0x57                  	// #87
   60618:	52800605 	mov	w5, #0x30                  	// #48
   6061c:	f2a7e422 	movk	x2, #0x3f21, lsl #16
   60620:	f2a7e420 	movk	x0, #0x3f21, lsl #16
   60624:	d503201f 	nop
   60628:	1ac324c1 	lsr	w1, w6, w3
   6062c:	12000c21 	and	w1, w1, #0xf
   60630:	7100243f 	cmp	w1, #0x9
   60634:	1a8580e4 	csel	w4, w7, w5, hi  // hi = pmore
   60638:	0b010084 	add	w4, w4, w1
   6063c:	d503201f 	nop
   60640:	d503201f 	nop
   60644:	b9400041 	ldr	w1, [x2]
   60648:	362fffc1 	tbz	w1, #5, 60640 <uart_hex+0x50>
   6064c:	51001063 	sub	w3, w3, #0x4
   60650:	b9000004 	str	w4, [x0]
   60654:	3100107f 	cmn	w3, #0x4
   60658:	54fffe81 	b.ne	60628 <uart_hex+0x38>  // b.any
   6065c:	a8c17bfd 	ldp	x29, x30, [sp], #16
   60660:	d65f03c0 	ret
	...

0000000000060670 <pow>:
   60670:	2a0003e2 	mov	w2, w0
   60674:	52800020 	mov	w0, #0x1                   	// #1
   60678:	7100003f 	cmp	w1, #0x0
   6067c:	5400008d 	b.le	6068c <pow+0x1c>
   60680:	1b027c00 	mul	w0, w0, w2
   60684:	71000421 	subs	w1, w1, #0x1
   60688:	54ffffc1 	b.ne	60680 <pow+0x10>  // b.any
   6068c:	d65f03c0 	ret

0000000000060690 <strcmp>:
   60690:	39400002 	ldrb	w2, [x0]
   60694:	35000082 	cbnz	w2, 606a4 <strcmp+0x14>
   60698:	14000009 	b	606bc <strcmp+0x2c>
   6069c:	38401c02 	ldrb	w2, [x0, #1]!
   606a0:	340000e2 	cbz	w2, 606bc <strcmp+0x2c>
   606a4:	39400023 	ldrb	w3, [x1]
   606a8:	91000421 	add	x1, x1, #0x1
   606ac:	6b02007f 	cmp	w3, w2
   606b0:	54ffff60 	b.eq	6069c <strcmp+0xc>  // b.none
   606b4:	52800020 	mov	w0, #0x1                   	// #1
   606b8:	d65f03c0 	ret
   606bc:	39400020 	ldrb	w0, [x1]
   606c0:	7100001f 	cmp	w0, #0x0
   606c4:	1a9f07e0 	cset	w0, ne  // ne = any
   606c8:	d65f03c0 	ret
   606cc:	d503201f 	nop

00000000000606d0 <strlen>:
   606d0:	39400001 	ldrb	w1, [x0]
   606d4:	34000101 	cbz	w1, 606f4 <strlen+0x24>
   606d8:	d1000403 	sub	x3, x0, #0x1
   606dc:	d2800021 	mov	x1, #0x1                   	// #1
   606e0:	2a0103e0 	mov	w0, w1
   606e4:	91000421 	add	x1, x1, #0x1
   606e8:	38616862 	ldrb	w2, [x3, x1]
   606ec:	35ffffa2 	cbnz	w2, 606e0 <strlen+0x10>
   606f0:	d65f03c0 	ret
   606f4:	52800000 	mov	w0, #0x0                   	// #0
   606f8:	d65f03c0 	ret
   606fc:	d503201f 	nop

0000000000060700 <substr>:
   60700:	6b03005f 	cmp	w2, w3
   60704:	540001ac 	b.gt	60738 <substr+0x38>
   60708:	0b030043 	add	w3, w2, w3
   6070c:	6b03005f 	cmp	w2, w3
   60710:	5400016a 	b.ge	6073c <substr+0x3c>  // b.tcont
   60714:	93407c42 	sxtw	x2, w2
   60718:	cb020025 	sub	x5, x1, x2
   6071c:	d503201f 	nop
   60720:	38626804 	ldrb	w4, [x0, x2]
   60724:	382268a4 	strb	w4, [x5, x2]
   60728:	91000442 	add	x2, x2, #0x1
   6072c:	6b02007f 	cmp	w3, w2
   60730:	54ffff8c 	b.gt	60720 <substr+0x20>
   60734:	3823c83f 	strb	wzr, [x1, w3, sxtw]
   60738:	d65f03c0 	ret
   6073c:	2a0203e3 	mov	w3, w2
   60740:	3823c83f 	strb	wzr, [x1, w3, sxtw]
   60744:	17fffffd 	b	60738 <substr+0x38>
   60748:	d503201f 	nop
   6074c:	d503201f 	nop

0000000000060750 <reverse>:
   60750:	aa0003e2 	mov	x2, x0
   60754:	52800005 	mov	w5, #0x0                   	// #0
   60758:	385ff446 	ldrb	w6, [x2], #-1
   6075c:	340003c6 	cbz	w6, 607d4 <reverse+0x84>
   60760:	d2800021 	mov	x1, #0x1                   	// #1
   60764:	d503201f 	nop
   60768:	2a0103e4 	mov	w4, w1
   6076c:	91000421 	add	x1, x1, #0x1
   60770:	38616843 	ldrb	w3, [x2, x1]
   60774:	35ffffa3 	cbnz	w3, 60768 <reverse+0x18>
   60778:	6b8404bf 	cmp	w5, w4, asr #1
   6077c:	540002ca 	b.ge	607d4 <reverse+0x84>  // b.tcont
   60780:	d2800021 	mov	x1, #0x1                   	// #1
   60784:	d503201f 	nop
   60788:	2a0103e4 	mov	w4, w1
   6078c:	91000421 	add	x1, x1, #0x1
   60790:	38616843 	ldrb	w3, [x2, x1]
   60794:	35ffffa3 	cbnz	w3, 60788 <reverse+0x38>
   60798:	4b050084 	sub	w4, w4, w5
   6079c:	d2800021 	mov	x1, #0x1                   	// #1
   607a0:	8b24c004 	add	x4, x0, w4, sxtw
   607a4:	385ff087 	ldurb	w7, [x4, #-1]
   607a8:	2a0103e4 	mov	w4, w1
   607ac:	91000421 	add	x1, x1, #0x1
   607b0:	38616843 	ldrb	w3, [x2, x1]
   607b4:	35ffffa3 	cbnz	w3, 607a8 <reverse+0x58>
   607b8:	4b050084 	sub	w4, w4, w5
   607bc:	110004a5 	add	w5, w5, #0x1
   607c0:	8b24c004 	add	x4, x0, w4, sxtw
   607c4:	381ff086 	sturb	w6, [x4, #-1]
   607c8:	2a0703e6 	mov	w6, w7
   607cc:	39000007 	strb	w7, [x0]
   607d0:	35fffc86 	cbnz	w6, 60760 <reverse+0x10>
   607d4:	d65f03c0 	ret
   607d8:	d503201f 	nop
   607dc:	d503201f 	nop

00000000000607e0 <itoa>:
   607e0:	2a0003e5 	mov	w5, w0
   607e4:	aa0103e0 	mov	x0, x1
   607e8:	340003a5 	cbz	w5, 6085c <itoa+0x7c>
   607ec:	d1000428 	sub	x8, x1, #0x1
   607f0:	528ccce1 	mov	w1, #0x6667                	// #26215
   607f4:	d2800027 	mov	x7, #0x1                   	// #1
   607f8:	72acccc1 	movk	w1, #0x6666, lsl #16
   607fc:	d503201f 	nop
   60800:	9b217ca3 	smull	x3, w5, w1
   60804:	2a0703e6 	mov	w6, w7
   60808:	9362fc63 	asr	x3, x3, #34
   6080c:	4b857c63 	sub	w3, w3, w5, asr #31
   60810:	0b030864 	add	w4, w3, w3, lsl #2
   60814:	4b0404a4 	sub	w4, w5, w4, lsl #1
   60818:	2a0303e5 	mov	w5, w3
   6081c:	1100c083 	add	w3, w4, #0x30
   60820:	38276903 	strb	w3, [x8, x7]
   60824:	910004e7 	add	x7, x7, #0x1
   60828:	35fffec5 	cbnz	w5, 60800 <itoa+0x20>
   6082c:	8b26c001 	add	x1, x0, w6, sxtw
   60830:	6b06005f 	cmp	w2, w6
   60834:	5400010d 	b.le	60854 <itoa+0x74>
   60838:	93407cc3 	sxtw	x3, w6
   6083c:	52800601 	mov	w1, #0x30                  	// #48
   60840:	38236801 	strb	w1, [x0, x3]
   60844:	91000463 	add	x3, x3, #0x1
   60848:	6b03005f 	cmp	w2, w3
   6084c:	54ffffac 	b.gt	60840 <itoa+0x60>
   60850:	8b22c001 	add	x1, x0, w2, sxtw
   60854:	3900003f 	strb	wzr, [x1]
   60858:	17ffffbe 	b	60750 <reverse>
   6085c:	52800006 	mov	w6, #0x0                   	// #0
   60860:	17fffff4 	b	60830 <itoa+0x50>

0000000000060864 <ftoa>:
   60864:	1e380009 	fcvtzs	w9, s0
   60868:	a9bf7bfd 	stp	x29, x30, [sp, #-16]!
   6086c:	2a0103e8 	mov	w8, w1
   60870:	910003fd 	mov	x29, sp
   60874:	34000b29 	cbz	w9, 609d8 <ftoa+0x174>
   60878:	528ccce7 	mov	w7, #0x6667                	// #26215
   6087c:	2a0903e4 	mov	w4, w9
   60880:	d1000406 	sub	x6, x0, #0x1
   60884:	d2800025 	mov	x5, #0x1                   	// #1
   60888:	72acccc7 	movk	w7, #0x6666, lsl #16
   6088c:	d503201f 	nop
   60890:	9b277c82 	smull	x2, w4, w7
   60894:	2a0503e1 	mov	w1, w5
   60898:	9362fc42 	asr	x2, x2, #34
   6089c:	4b847c42 	sub	w2, w2, w4, asr #31
   608a0:	0b020843 	add	w3, w2, w2, lsl #2
   608a4:	4b030483 	sub	w3, w4, w3, lsl #1
   608a8:	2a0203e4 	mov	w4, w2
   608ac:	1100c062 	add	w2, w3, #0x30
   608b0:	382568c2 	strb	w2, [x6, x5]
   608b4:	910004a5 	add	x5, x5, #0x1
   608b8:	35fffec4 	cbnz	w4, 60890 <ftoa+0x2c>
   608bc:	8b21c001 	add	x1, x0, w1, sxtw
   608c0:	3900003f 	strb	wzr, [x1]
   608c4:	97ffffa3 	bl	60750 <reverse>
   608c8:	39400001 	ldrb	w1, [x0]
   608cc:	34000741 	cbz	w1, 609b4 <ftoa+0x150>
   608d0:	d1000406 	sub	x6, x0, #0x1
   608d4:	d2800022 	mov	x2, #0x1                   	// #1
   608d8:	8b020004 	add	x4, x0, x2
   608dc:	aa0203e3 	mov	x3, x2
   608e0:	91000442 	add	x2, x2, #0x1
   608e4:	386268c1 	ldrb	w1, [x6, x2]
   608e8:	35ffff81 	cbnz	w1, 608d8 <ftoa+0x74>
   608ec:	7100011f 	cmp	w8, #0x0
   608f0:	340006a8 	cbz	w8, 609c4 <ftoa+0x160>
   608f4:	d503201f 	nop
   608f8:	1e220121 	scvtf	s1, w9
   608fc:	528005c1 	mov	w1, #0x2e                  	// #46
   60900:	39000081 	strb	w1, [x4]
   60904:	1e213800 	fsub	s0, s0, s1
   60908:	5400014d 	b.le	60930 <ftoa+0xcc>
   6090c:	2a0803e2 	mov	w2, w8
   60910:	52800021 	mov	w1, #0x1                   	// #1
   60914:	d503201f 	nop
   60918:	0b010821 	add	w1, w1, w1, lsl #2
   6091c:	71000442 	subs	w2, w2, #0x1
   60920:	531f7821 	lsl	w1, w1, #1
   60924:	54ffffa1 	b.ne	60918 <ftoa+0xb4>  // b.any
   60928:	1e220021 	scvtf	s1, w1
   6092c:	1e210800 	fmul	s0, s0, s1
   60930:	1e380004 	fcvtzs	w4, s0
   60934:	91000467 	add	x7, x3, #0x1
   60938:	8b070007 	add	x7, x0, x7
   6093c:	34000484 	cbz	w4, 609cc <ftoa+0x168>
   60940:	8b030002 	add	x2, x0, x3
   60944:	528ccce0 	mov	w0, #0x6667                	// #26215
   60948:	d2800026 	mov	x6, #0x1                   	// #1
   6094c:	72acccc0 	movk	w0, #0x6666, lsl #16
   60950:	9b207c83 	smull	x3, w4, w0
   60954:	93407cc1 	sxtw	x1, w6
   60958:	9362fc63 	asr	x3, x3, #34
   6095c:	4b847c63 	sub	w3, w3, w4, asr #31
   60960:	0b030865 	add	w5, w3, w3, lsl #2
   60964:	4b050485 	sub	w5, w4, w5, lsl #1
   60968:	2a0303e4 	mov	w4, w3
   6096c:	1100c0a3 	add	w3, w5, #0x30
   60970:	38266843 	strb	w3, [x2, x6]
   60974:	910004c6 	add	x6, x6, #0x1
   60978:	35fffec4 	cbnz	w4, 60950 <ftoa+0xec>
   6097c:	8b21c0e0 	add	x0, x7, w1, sxtw
   60980:	6b01011f 	cmp	w8, w1
   60984:	5400010d 	b.le	609a4 <ftoa+0x140>
   60988:	52800600 	mov	w0, #0x30                  	// #48
   6098c:	d503201f 	nop
   60990:	382168e0 	strb	w0, [x7, x1]
   60994:	91000421 	add	x1, x1, #0x1
   60998:	6b01011f 	cmp	w8, w1
   6099c:	54ffffac 	b.gt	60990 <ftoa+0x12c>
   609a0:	8b28c0e0 	add	x0, x7, w8, sxtw
   609a4:	3900001f 	strb	wzr, [x0]
   609a8:	aa0703e0 	mov	x0, x7
   609ac:	a8c17bfd 	ldp	x29, x30, [sp], #16
   609b0:	17ffff68 	b	60750 <reverse>
   609b4:	aa0003e4 	mov	x4, x0
   609b8:	7100011f 	cmp	w8, #0x0
   609bc:	d2800003 	mov	x3, #0x0                   	// #0
   609c0:	35fff9c8 	cbnz	w8, 608f8 <ftoa+0x94>
   609c4:	a8c17bfd 	ldp	x29, x30, [sp], #16
   609c8:	d65f03c0 	ret
   609cc:	aa0703e0 	mov	x0, x7
   609d0:	d2800001 	mov	x1, #0x0                   	// #0
   609d4:	17ffffeb 	b	60980 <ftoa+0x11c>
   609d8:	aa0003e1 	mov	x1, x0
   609dc:	17ffffb9 	b	608c0 <ftoa+0x5c>

00000000000609e0 <ls>:
   609e0:	a9bb7bfd 	stp	x29, x30, [sp, #-80]!
   609e4:	910003fd 	mov	x29, sp
   609e8:	a9025bf5 	stp	x21, x22, [sp, #32]
   609ec:	b0000015 	adrp	x21, 61000 <shell+0x20>
   609f0:	910e62b5 	add	x21, x21, #0x398
   609f4:	a90363f7 	stp	x23, x24, [sp, #48]
   609f8:	b0000017 	adrp	x23, 61000 <shell+0x20>
   609fc:	2a0103f8 	mov	w24, w1
   60a00:	910e02f7 	add	x23, x23, #0x380
   60a04:	a9046bf9 	stp	x25, x26, [sp, #64]
   60a08:	aa0003f9 	mov	x25, x0
   60a0c:	d2a10016 	mov	x22, #0x8000000             	// #134217728
   60a10:	a90153f3 	stp	x19, x20, [sp, #16]
   60a14:	d503201f 	nop
   60a18:	9100dac2 	add	x2, x22, #0x36
   60a1c:	9100fac5 	add	x5, x22, #0x3e
   60a20:	52800003 	mov	w3, #0x0                   	// #0
   60a24:	52800014 	mov	w20, #0x0                   	// #0
   60a28:	14000018 	b	60a88 <ls+0xa8>
   60a2c:	39400040 	ldrb	w0, [x2]
   60a30:	12001c00 	and	w0, w0, #0xff
   60a34:	7101181f 	cmp	w0, #0x46
   60a38:	54000328 	b.hi	60a9c <ls+0xbc>  // b.pmore
   60a3c:	39400040 	ldrb	w0, [x2]
   60a40:	531c6c63 	lsl	w3, w3, #4
   60a44:	3940a044 	ldrb	w4, [x2, #40]
   60a48:	0b200280 	add	w0, w20, w0, uxtb
   60a4c:	12001c84 	and	w4, w4, #0xff
   60a50:	5100dc14 	sub	w20, w0, #0x37
   60a54:	9100a040 	add	x0, x2, #0x28
   60a58:	7101009f 	cmp	w4, #0x40
   60a5c:	54000329 	b.ls	60ac0 <ls+0xe0>  // b.plast
   60a60:	3940a041 	ldrb	w1, [x2, #40]
   60a64:	12001c21 	and	w1, w1, #0xff
   60a68:	7101183f 	cmp	w1, #0x46
   60a6c:	540002a8 	b.hi	60ac0 <ls+0xe0>  // b.pmore
   60a70:	39400000 	ldrb	w0, [x0]
   60a74:	91000442 	add	x2, x2, #0x1
   60a78:	0b200060 	add	w0, w3, w0, uxtb
   60a7c:	5100dc03 	sub	w3, w0, #0x37
   60a80:	eb05005f 	cmp	x2, x5
   60a84:	540002a0 	b.eq	60ad8 <ls+0xf8>  // b.none
   60a88:	39400044 	ldrb	w4, [x2]
   60a8c:	531c6e94 	lsl	w20, w20, #4
   60a90:	12001c84 	and	w4, w4, #0xff
   60a94:	7101009f 	cmp	w4, #0x40
   60a98:	54fffca8 	b.hi	60a2c <ls+0x4c>  // b.pmore
   60a9c:	39400044 	ldrb	w4, [x2]
   60aa0:	531c6c63 	lsl	w3, w3, #4
   60aa4:	9100a040 	add	x0, x2, #0x28
   60aa8:	0b240294 	add	w20, w20, w4, uxtb
   60aac:	3940a044 	ldrb	w4, [x2, #40]
   60ab0:	5100c294 	sub	w20, w20, #0x30
   60ab4:	12001c84 	and	w4, w4, #0xff
   60ab8:	7101009f 	cmp	w4, #0x40
   60abc:	54fffd28 	b.hi	60a60 <ls+0x80>  // b.pmore
   60ac0:	39400004 	ldrb	w4, [x0]
   60ac4:	91000442 	add	x2, x2, #0x1
   60ac8:	0b240063 	add	w3, w3, w4, uxtb
   60acc:	5100c063 	sub	w3, w3, #0x30
   60ad0:	eb05005f 	cmp	x2, x5
   60ad4:	54fffda1 	b.ne	60a88 <ls+0xa8>  // b.any
   60ad8:	1101b873 	add	w19, w3, #0x6e
   60adc:	72000681 	ands	w1, w20, #0x3
   60ae0:	540000c0 	b.eq	60af8 <ls+0x118>  // b.none
   60ae4:	6b1403e0 	negs	w0, w20
   60ae8:	12000400 	and	w0, w0, #0x3
   60aec:	5a804420 	csneg	w0, w1, w0, mi  // mi = first
   60af0:	4b000280 	sub	w0, w20, w0
   60af4:	11001014 	add	w20, w0, #0x4
   60af8:	72000661 	ands	w1, w19, #0x3
   60afc:	540000c0 	b.eq	60b14 <ls+0x134>  // b.none
   60b00:	6b1303e0 	negs	w0, w19
   60b04:	12000400 	and	w0, w0, #0x3
   60b08:	5a804420 	csneg	w0, w1, w0, mi  // mi = first
   60b0c:	4b000260 	sub	w0, w19, w0
   60b10:	11001013 	add	w19, w0, #0x4
   60b14:	3941bac3 	ldrb	w3, [x22, #110]
   60b18:	9101bada 	add	x26, x22, #0x6e
   60b1c:	340004a3 	cbz	w3, 60bb0 <ls+0x1d0>
   60b20:	b0000000 	adrp	x0, 61000 <shell+0x20>
   60b24:	2a0303e4 	mov	w4, w3
   60b28:	910dc000 	add	x0, x0, #0x370
   60b2c:	9101bec1 	add	x1, x22, #0x6f
   60b30:	d2800002 	mov	x2, #0x0                   	// #0
   60b34:	52800a85 	mov	w5, #0x54                  	// #84
   60b38:	14000005 	b	60b4c <ls+0x16c>
   60b3c:	38626824 	ldrb	w4, [x1, x2]
   60b40:	91000442 	add	x2, x2, #0x1
   60b44:	38626805 	ldrb	w5, [x0, x2]
   60b48:	340009a4 	cbz	w4, 60c7c <ls+0x29c>
   60b4c:	6b0400bf 	cmp	w5, w4
   60b50:	54ffff60 	b.eq	60b3c <ls+0x15c>  // b.none
   60b54:	2a0303e4 	mov	w4, w3
   60b58:	9101bec0 	add	x0, x22, #0x6f
   60b5c:	d2800002 	mov	x2, #0x0                   	// #0
   60b60:	528005c5 	mov	w5, #0x2e                  	// #46
   60b64:	14000005 	b	60b78 <ls+0x198>
   60b68:	38626804 	ldrb	w4, [x0, x2]
   60b6c:	91000442 	add	x2, x2, #0x1
   60b70:	38626ae5 	ldrb	w5, [x23, x2]
   60b74:	34000944 	cbz	w4, 60c9c <ls+0x2bc>
   60b78:	6b0400bf 	cmp	w5, w4
   60b7c:	54ffff60 	b.eq	60b68 <ls+0x188>  // b.none
   60b80:	340001d8 	cbz	w24, 60bb8 <ls+0x1d8>
   60b84:	aa1903e2 	mov	x2, x25
   60b88:	14000003 	b	60b94 <ls+0x1b4>
   60b8c:	38401f43 	ldrb	w3, [x26, #1]!
   60b90:	34000263 	cbz	w3, 60bdc <ls+0x1fc>
   60b94:	39400040 	ldrb	w0, [x2]
   60b98:	91000442 	add	x2, x2, #0x1
   60b9c:	6b03001f 	cmp	w0, w3
   60ba0:	54ffff60 	b.eq	60b8c <ls+0x1ac>  // b.none
   60ba4:	0b130283 	add	w3, w20, w19
   60ba8:	8b23c2d6 	add	x22, x22, w3, sxtw
   60bac:	17ffff9b 	b	60a18 <ls+0x38>
   60bb0:	aa1903e2 	mov	x2, x25
   60bb4:	35000158 	cbnz	w24, 60bdc <ls+0x1fc>
   60bb8:	aa1a03e0 	mov	x0, x26
   60bbc:	97fffe75 	bl	60590 <uart_puts>
   60bc0:	aa1503e0 	mov	x0, x21
   60bc4:	97fffe73 	bl	60590 <uart_puts>
   60bc8:	3941bac3 	ldrb	w3, [x22, #110]
   60bcc:	35fffdc3 	cbnz	w3, 60b84 <ls+0x1a4>
   60bd0:	0b130283 	add	w3, w20, w19
   60bd4:	8b23c2d6 	add	x22, x22, w3, sxtw
   60bd8:	17ffff90 	b	60a18 <ls+0x38>
   60bdc:	39400040 	ldrb	w0, [x2]
   60be0:	7100001f 	cmp	w0, #0x0
   60be4:	7a400b04 	ccmp	w24, #0x0, #0x4, eq  // eq = none
   60be8:	54fffde0 	b.eq	60ba4 <ls+0x1c4>  // b.none
   60bec:	7100029f 	cmp	w20, #0x0
   60bf0:	5400038d 	b.le	60c60 <ls+0x280>
   60bf4:	93407e63 	sxtw	x3, w19
   60bf8:	51000680 	sub	w0, w20, #0x1
   60bfc:	910006c1 	add	x1, x22, #0x1
   60c00:	8b030000 	add	x0, x0, x3
   60c04:	8b0302d6 	add	x22, x22, x3
   60c08:	8b010013 	add	x19, x0, x1
   60c0c:	d503201f 	nop
   60c10:	394002c0 	ldrb	w0, [x22]
   60c14:	12001c00 	and	w0, w0, #0xff
   60c18:	97fffe46 	bl	60530 <uart_send>
   60c1c:	394002c4 	ldrb	w4, [x22]
   60c20:	92401c84 	and	x4, x4, #0xff
   60c24:	39400081 	ldrb	w1, [x4]
   60c28:	34000401 	cbz	w1, 60ca8 <ls+0x2c8>
   60c2c:	d1002484 	sub	x4, x4, #0x9
   60c30:	d2800140 	mov	x0, #0xa                   	// #10
   60c34:	14000003 	b	60c40 <ls+0x260>
   60c38:	39400061 	ldrb	w1, [x3]
   60c3c:	340003a1 	cbz	w1, 60cb0 <ls+0x2d0>
   60c40:	39400002 	ldrb	w2, [x0]
   60c44:	8b040003 	add	x3, x0, x4
   60c48:	91000400 	add	x0, x0, #0x1
   60c4c:	6b01005f 	cmp	w2, w1
   60c50:	54ffff40 	b.eq	60c38 <ls+0x258>  // b.none
   60c54:	910006d6 	add	x22, x22, #0x1
   60c58:	eb16027f 	cmp	x19, x22
   60c5c:	54fffda1 	b.ne	60c10 <ls+0x230>  // b.any
   60c60:	52800020 	mov	w0, #0x1                   	// #1
   60c64:	a94153f3 	ldp	x19, x20, [sp, #16]
   60c68:	a9425bf5 	ldp	x21, x22, [sp, #32]
   60c6c:	a94363f7 	ldp	x23, x24, [sp, #48]
   60c70:	a9446bf9 	ldp	x25, x26, [sp, #64]
   60c74:	a8c57bfd 	ldp	x29, x30, [sp], #80
   60c78:	d65f03c0 	ret
   60c7c:	35fff6c5 	cbnz	w5, 60b54 <ls+0x174>
   60c80:	52800000 	mov	w0, #0x0                   	// #0
   60c84:	a94153f3 	ldp	x19, x20, [sp, #16]
   60c88:	a9425bf5 	ldp	x21, x22, [sp, #32]
   60c8c:	a94363f7 	ldp	x23, x24, [sp, #48]
   60c90:	a9446bf9 	ldp	x25, x26, [sp, #64]
   60c94:	a8c57bfd 	ldp	x29, x30, [sp], #80
   60c98:	d65f03c0 	ret
   60c9c:	34fff745 	cbz	w5, 60b84 <ls+0x1a4>
   60ca0:	35fff738 	cbnz	w24, 60b84 <ls+0x1a4>
   60ca4:	17ffffc5 	b	60bb8 <ls+0x1d8>
   60ca8:	d2800140 	mov	x0, #0xa                   	// #10
   60cac:	d503201f 	nop
   60cb0:	39400000 	ldrb	w0, [x0]
   60cb4:	35fffd00 	cbnz	w0, 60c54 <ls+0x274>
   60cb8:	528001a0 	mov	w0, #0xd                   	// #13
   60cbc:	910006d6 	add	x22, x22, #0x1
   60cc0:	97fffe1c 	bl	60530 <uart_send>
   60cc4:	eb16027f 	cmp	x19, x22
   60cc8:	54fffa41 	b.ne	60c10 <ls+0x230>  // b.any
   60ccc:	17ffffe5 	b	60c60 <ls+0x280>

0000000000060cd0 <checkcat>:
   60cd0:	39400001 	ldrb	w1, [x0]
   60cd4:	71018c3f 	cmp	w1, #0x63
   60cd8:	54000101 	b.ne	60cf8 <checkcat+0x28>  // b.any
   60cdc:	39400401 	ldrb	w1, [x0, #1]
   60ce0:	7101843f 	cmp	w1, #0x61
   60ce4:	540000a1 	b.ne	60cf8 <checkcat+0x28>  // b.any
   60ce8:	39400800 	ldrb	w0, [x0, #2]
   60cec:	7101d01f 	cmp	w0, #0x74
   60cf0:	1a9f17e0 	cset	w0, eq  // eq = none
   60cf4:	d65f03c0 	ret
   60cf8:	52800000 	mov	w0, #0x0                   	// #0
   60cfc:	d65f03c0 	ret

0000000000060d00 <cat>:
   60d00:	a9bc7bfd 	stp	x29, x30, [sp, #-64]!
   60d04:	910003fd 	mov	x29, sp
   60d08:	a90153f3 	stp	x19, x20, [sp, #16]
   60d0c:	39400001 	ldrb	w1, [x0]
   60d10:	34001601 	cbz	w1, 60fd0 <cat+0x2d0>
   60d14:	d1000405 	sub	x5, x0, #0x1
   60d18:	d2800021 	mov	x1, #0x1                   	// #1
   60d1c:	d503201f 	nop
   60d20:	51000423 	sub	w3, w1, #0x1
   60d24:	2a0103e4 	mov	w4, w1
   60d28:	91000421 	add	x1, x1, #0x1
   60d2c:	386168a2 	ldrb	w2, [x5, x1]
   60d30:	35ffff82 	cbnz	w2, 60d20 <cat+0x20>
   60d34:	a902ffff 	stp	xzr, xzr, [sp, #40]
   60d38:	9100a3f3 	add	x19, sp, #0x28
   60d3c:	b9003bff 	str	wzr, [sp, #56]
   60d40:	71001c9f 	cmp	w4, #0x7
   60d44:	540001cd 	b.le	60d7c <cat+0x7c>
   60d48:	d2800081 	mov	x1, #0x4                   	// #4
   60d4c:	d503201f 	nop
   60d50:	8b010265 	add	x5, x19, x1
   60d54:	38616806 	ldrb	w6, [x0, x1]
   60d58:	91000421 	add	x1, x1, #0x1
   60d5c:	51000422 	sub	w2, w1, #0x1
   60d60:	381fc0a6 	sturb	w6, [x5, #-4]
   60d64:	6b03005f 	cmp	w2, w3
   60d68:	54ffff4b 	b.lt	60d50 <cat+0x50>  // b.tstop
   60d6c:	71000c7f 	cmp	w3, #0x3
   60d70:	528000a0 	mov	w0, #0x5                   	// #5
   60d74:	1a80c084 	csel	w4, w4, w0, gt
   60d78:	3824ca7f 	strb	wzr, [x19, w4, sxtw]
   60d7c:	b0000008 	adrp	x8, 61000 <shell+0x20>
   60d80:	910dc108 	add	x8, x8, #0x370
   60d84:	d2a10007 	mov	x7, #0x8000000             	// #134217728
   60d88:	52800089 	mov	w9, #0x4                   	// #4
   60d8c:	d503201f 	nop
   60d90:	9100d8e0 	add	x0, x7, #0x36
   60d94:	9100f8e5 	add	x5, x7, #0x3e
   60d98:	52800001 	mov	w1, #0x0                   	// #0
   60d9c:	52800002 	mov	w2, #0x0                   	// #0
   60da0:	14000018 	b	60e00 <cat+0x100>
   60da4:	39400003 	ldrb	w3, [x0]
   60da8:	12001c63 	and	w3, w3, #0xff
   60dac:	7101187f 	cmp	w3, #0x46
   60db0:	54000328 	b.hi	60e14 <cat+0x114>  // b.pmore
   60db4:	39400003 	ldrb	w3, [x0]
   60db8:	531c6c21 	lsl	w1, w1, #4
   60dbc:	9100a004 	add	x4, x0, #0x28
   60dc0:	0b230042 	add	w2, w2, w3, uxtb
   60dc4:	3940a003 	ldrb	w3, [x0, #40]
   60dc8:	5100dc42 	sub	w2, w2, #0x37
   60dcc:	12001c63 	and	w3, w3, #0xff
   60dd0:	7101007f 	cmp	w3, #0x40
   60dd4:	54000329 	b.ls	60e38 <cat+0x138>  // b.plast
   60dd8:	3940a003 	ldrb	w3, [x0, #40]
   60ddc:	12001c63 	and	w3, w3, #0xff
   60de0:	7101187f 	cmp	w3, #0x46
   60de4:	540002a8 	b.hi	60e38 <cat+0x138>  // b.pmore
   60de8:	39400083 	ldrb	w3, [x4]
   60dec:	91000400 	add	x0, x0, #0x1
   60df0:	0b230021 	add	w1, w1, w3, uxtb
   60df4:	5100dc21 	sub	w1, w1, #0x37
   60df8:	eb05001f 	cmp	x0, x5
   60dfc:	540002a0 	b.eq	60e50 <cat+0x150>  // b.none
   60e00:	39400003 	ldrb	w3, [x0]
   60e04:	531c6c42 	lsl	w2, w2, #4
   60e08:	12001c63 	and	w3, w3, #0xff
   60e0c:	7101007f 	cmp	w3, #0x40
   60e10:	54fffca8 	b.hi	60da4 <cat+0xa4>  // b.pmore
   60e14:	39400003 	ldrb	w3, [x0]
   60e18:	531c6c21 	lsl	w1, w1, #4
   60e1c:	9100a004 	add	x4, x0, #0x28
   60e20:	0b230042 	add	w2, w2, w3, uxtb
   60e24:	3940a003 	ldrb	w3, [x0, #40]
   60e28:	5100c042 	sub	w2, w2, #0x30
   60e2c:	12001c63 	and	w3, w3, #0xff
   60e30:	7101007f 	cmp	w3, #0x40
   60e34:	54fffd28 	b.hi	60dd8 <cat+0xd8>  // b.pmore
   60e38:	39400083 	ldrb	w3, [x4]
   60e3c:	91000400 	add	x0, x0, #0x1
   60e40:	0b230021 	add	w1, w1, w3, uxtb
   60e44:	5100c021 	sub	w1, w1, #0x30
   60e48:	eb05001f 	cmp	x0, x5
   60e4c:	54fffda1 	b.ne	60e00 <cat+0x100>  // b.any
   60e50:	1101b821 	add	w1, w1, #0x6e
   60e54:	72000443 	ands	w3, w2, #0x3
   60e58:	540000c0 	b.eq	60e70 <cat+0x170>  // b.none
   60e5c:	6b0203e0 	negs	w0, w2
   60e60:	12000400 	and	w0, w0, #0x3
   60e64:	5a804460 	csneg	w0, w3, w0, mi  // mi = first
   60e68:	4b000120 	sub	w0, w9, w0
   60e6c:	0b000042 	add	w2, w2, w0
   60e70:	72000423 	ands	w3, w1, #0x3
   60e74:	540000c0 	b.eq	60e8c <cat+0x18c>  // b.none
   60e78:	6b0103e0 	negs	w0, w1
   60e7c:	12000400 	and	w0, w0, #0x3
   60e80:	5a804460 	csneg	w0, w3, w0, mi  // mi = first
   60e84:	4b000120 	sub	w0, w9, w0
   60e88:	0b000021 	add	w1, w1, w0
   60e8c:	3941b8e3 	ldrb	w3, [x7, #110]
   60e90:	9101b8e6 	add	x6, x7, #0x6e
   60e94:	340002e3 	cbz	w3, 60ef0 <cat+0x1f0>
   60e98:	2a0303e4 	mov	w4, w3
   60e9c:	9101bcea 	add	x10, x7, #0x6f
   60ea0:	d2800000 	mov	x0, #0x0                   	// #0
   60ea4:	52800a85 	mov	w5, #0x54                  	// #84
   60ea8:	14000005 	b	60ebc <cat+0x1bc>
   60eac:	38606944 	ldrb	w4, [x10, x0]
   60eb0:	91000400 	add	x0, x0, #0x1
   60eb4:	38606905 	ldrb	w5, [x8, x0]
   60eb8:	34000624 	cbz	w4, 60f7c <cat+0x27c>
   60ebc:	6b0400bf 	cmp	w5, w4
   60ec0:	54ffff60 	b.eq	60eac <cat+0x1ac>  // b.none
   60ec4:	aa1303e0 	mov	x0, x19
   60ec8:	14000003 	b	60ed4 <cat+0x1d4>
   60ecc:	38401cc3 	ldrb	w3, [x6, #1]!
   60ed0:	34000143 	cbz	w3, 60ef8 <cat+0x1f8>
   60ed4:	39400004 	ldrb	w4, [x0]
   60ed8:	91000400 	add	x0, x0, #0x1
   60edc:	6b03009f 	cmp	w4, w3
   60ee0:	54ffff60 	b.eq	60ecc <cat+0x1cc>  // b.none
   60ee4:	0b010041 	add	w1, w2, w1
   60ee8:	8b21c0e7 	add	x7, x7, w1, sxtw
   60eec:	17ffffa9 	b	60d90 <cat+0x90>
   60ef0:	aa1303e0 	mov	x0, x19
   60ef4:	d503201f 	nop
   60ef8:	39400000 	ldrb	w0, [x0]
   60efc:	35ffff40 	cbnz	w0, 60ee4 <cat+0x1e4>
   60f00:	7100005f 	cmp	w2, #0x0
   60f04:	5400036d 	b.le	60f70 <cat+0x270>
   60f08:	93407c21 	sxtw	x1, w1
   60f0c:	51000453 	sub	w19, w2, #0x1
   60f10:	8b010273 	add	x19, x19, x1
   60f14:	910004e0 	add	x0, x7, #0x1
   60f18:	8b0100f4 	add	x20, x7, x1
   60f1c:	8b000273 	add	x19, x19, x0
   60f20:	39400280 	ldrb	w0, [x20]
   60f24:	12001c00 	and	w0, w0, #0xff
   60f28:	97fffd82 	bl	60530 <uart_send>
   60f2c:	39400284 	ldrb	w4, [x20]
   60f30:	92401c84 	and	x4, x4, #0xff
   60f34:	39400081 	ldrb	w1, [x4]
   60f38:	340003a1 	cbz	w1, 60fac <cat+0x2ac>
   60f3c:	d1002484 	sub	x4, x4, #0x9
   60f40:	d2800140 	mov	x0, #0xa                   	// #10
   60f44:	14000003 	b	60f50 <cat+0x250>
   60f48:	39400061 	ldrb	w1, [x3]
   60f4c:	34000321 	cbz	w1, 60fb0 <cat+0x2b0>
   60f50:	39400002 	ldrb	w2, [x0]
   60f54:	8b040003 	add	x3, x0, x4
   60f58:	91000400 	add	x0, x0, #0x1
   60f5c:	6b01005f 	cmp	w2, w1
   60f60:	54ffff40 	b.eq	60f48 <cat+0x248>  // b.none
   60f64:	91000694 	add	x20, x20, #0x1
   60f68:	eb14027f 	cmp	x19, x20
   60f6c:	54fffda1 	b.ne	60f20 <cat+0x220>  // b.any
   60f70:	a94153f3 	ldp	x19, x20, [sp, #16]
   60f74:	a8c47bfd 	ldp	x29, x30, [sp], #64
   60f78:	d65f03c0 	ret
   60f7c:	35fffa45 	cbnz	w5, 60ec4 <cat+0x1c4>
   60f80:	b0000000 	adrp	x0, 61000 <shell+0x20>
   60f84:	910c8000 	add	x0, x0, #0x320
   60f88:	97fffd82 	bl	60590 <uart_puts>
   60f8c:	aa1303e0 	mov	x0, x19
   60f90:	97fffd80 	bl	60590 <uart_puts>
   60f94:	b0000000 	adrp	x0, 61000 <shell+0x20>
   60f98:	910e2000 	add	x0, x0, #0x388
   60f9c:	97fffd7d 	bl	60590 <uart_puts>
   60fa0:	a94153f3 	ldp	x19, x20, [sp, #16]
   60fa4:	a8c47bfd 	ldp	x29, x30, [sp], #64
   60fa8:	d65f03c0 	ret
   60fac:	d2800140 	mov	x0, #0xa                   	// #10
   60fb0:	39400000 	ldrb	w0, [x0]
   60fb4:	35fffd80 	cbnz	w0, 60f64 <cat+0x264>
   60fb8:	528001a0 	mov	w0, #0xd                   	// #13
   60fbc:	91000694 	add	x20, x20, #0x1
   60fc0:	97fffd5c 	bl	60530 <uart_send>
   60fc4:	eb14027f 	cmp	x19, x20
   60fc8:	54fffac1 	b.ne	60f20 <cat+0x220>  // b.any
   60fcc:	17ffffe9 	b	60f70 <cat+0x270>
   60fd0:	9100a3f3 	add	x19, sp, #0x28
   60fd4:	a902ffff 	stp	xzr, xzr, [sp, #40]
   60fd8:	b9003bff 	str	wzr, [sp, #56]
   60fdc:	17ffff68 	b	60d7c <cat+0x7c>

0000000000060fe0 <shell>:
   60fe0:	a9be7bfd 	stp	x29, x30, [sp, #-32]!
   60fe4:	910003fd 	mov	x29, sp
   60fe8:	f9000bf3 	str	x19, [sp, #16]
   60fec:	aa0003f3 	mov	x19, x0
   60ff0:	97fffd59 	bl	60554 <uart_getc>
   60ff4:	12001c02 	and	w2, w0, #0xff
   60ff8:	2a0003e1 	mov	w1, w0
   60ffc:	2a0203e0 	mov	w0, w2
   61000:	7100285f 	cmp	w2, #0xa
   61004:	54000120 	b.eq	61028 <shell+0x48>  // b.none
   61008:	38001662 	strb	w2, [x19], #1
   6100c:	97fffd49 	bl	60530 <uart_send>
   61010:	97fffd51 	bl	60554 <uart_getc>
   61014:	12001c02 	and	w2, w0, #0xff
   61018:	2a0003e1 	mov	w1, w0
   6101c:	2a0203e0 	mov	w0, w2
   61020:	7100285f 	cmp	w2, #0xa
   61024:	54ffff21 	b.ne	61008 <shell+0x28>  // b.any
   61028:	3900027f 	strb	wzr, [x19]
   6102c:	12001c20 	and	w0, w1, #0xff
   61030:	97fffd40 	bl	60530 <uart_send>
   61034:	f9400bf3 	ldr	x19, [sp, #16]
   61038:	90000000 	adrp	x0, 61000 <shell+0x20>
   6103c:	a8c27bfd 	ldp	x29, x30, [sp], #32
   61040:	910e8000 	add	x0, x0, #0x3a0
   61044:	17fffd53 	b	60590 <uart_puts>
   61048:	d503201f 	nop
   6104c:	d503201f 	nop

0000000000061050 <print_welcome>:
   61050:	90000000 	adrp	x0, 61000 <shell+0x20>
   61054:	910ea000 	add	x0, x0, #0x3a8
   61058:	17fffd4e 	b	60590 <uart_puts>

Disassembly of section .rodata:

0000000000061060 <.rodata>:
   61060:	6e72654b 	umax	v11.8h, v10.8h, v18.8h
   61064:	73206c65 	.inst	0x73206c65 ; undefined
   61068:	2e657a69 	.inst	0x2e657a69 ; undefined
   6106c:	000a2e2e 	.inst	0x000a2e2e ; undefined
   61070:	706d754a 	adr	x10, 13bf1b <__bss_end+0xda99b>
   61074:	206f7420 	.inst	0x206f7420 ; undefined
   61078:	6e72656b 	umax	v11.8h, v11.8h, v18.8h
   6107c:	2e2e6c65 	umin	v5.8b, v3.8b, v14.8b
   61080:	00000a2e 	udf	#2606
   61084:	00000000 	udf	#0
   61088:	205f200a 	.inst	0x205f200a ; undefined
   6108c:	20202020 	.inst	0x20202020 ; undefined
   61090:	20202020 	.inst	0x20202020 ; undefined
   61094:	20202020 	.inst	0x20202020 ; undefined
   61098:	20202020 	.inst	0x20202020 ; undefined
   6109c:	20202020 	.inst	0x20202020 ; undefined
   610a0:	205f205f 	.inst	0x205f205f ; undefined
   610a4:	20202020 	.inst	0x20202020 ; undefined
   610a8:	20202020 	.inst	0x20202020 ; undefined
   610ac:	20202020 	.inst	0x20202020 ; undefined
   610b0:	5f5f2020 	.inst	0x5f5f2020 ; undefined
   610b4:	5f5f5f5f 	.inst	0x5f5f5f5f ; undefined
   610b8:	20205f5f 	.inst	0x20205f5f ; undefined
   610bc:	5f5f5f5f 	.inst	0x5f5f5f5f ; undefined
   610c0:	5f5f5f5f 	.inst	0x5f5f5f5f ; undefined
   610c4:	207c0a20 	.inst	0x207c0a20 ; undefined
   610c8:	2020207c 	.inst	0x2020207c ; undefined
   610cc:	20202020 	.inst	0x20202020 ; undefined
   610d0:	20202020 	.inst	0x20202020 ; undefined
   610d4:	20202020 	.inst	0x20202020 ; undefined
   610d8:	20202020 	.inst	0x20202020 ; undefined
   610dc:	5f28207c 	.inst	0x5f28207c ; undefined
   610e0:	20202029 	.inst	0x20202029 ; undefined
   610e4:	20202020 	.inst	0x20202020 ; undefined
   610e8:	20202020 	.inst	0x20202020 ; undefined
   610ec:	5f7c2020 	.inst	0x5f7c2020 ; undefined
   610f0:	5f202020 	.inst	0x5f202020 ; undefined
   610f4:	5c20207c 	ldr	d28, a1500 <__bss_end+0x3ff80>
   610f8:	7c20202f 	.inst	0x7c20202f ; undefined
   610fc:	5f5f2020 	.inst	0x5f5f2020 ; undefined
   61100:	7c0a5c20 	str	h0, [x1, #165]!
   61104:	20207c20 	.inst	0x20207c20 ; undefined
   61108:	5f202020 	.inst	0x5f202020 ; undefined
   6110c:	20205f5f 	.inst	0x20205f5f ; undefined
   61110:	205f5f20 	.inst	0x205f5f20 ; undefined
   61114:	5f20205f 	.inst	0x5f20205f ; undefined
   61118:	7c207c5f 	.inst	0x7c207c5f ; undefined
   6111c:	205f205f 	.inst	0x205f205f ; undefined
   61120:	20205f5f 	.inst	0x20205f5f ; undefined
   61124:	205f5f20 	.inst	0x205f5f20 ; undefined
   61128:	2020205f 	.inst	0x2020205f ; undefined
   6112c:	7c207c20 	.inst	0x7c207c20 ; undefined
   61130:	2e207c20 	uaba	v0.8b, v1.8b, v0.8b
   61134:	202e2020 	.inst	0x202e2020 ; undefined
   61138:	207c207c 	.inst	0x207c207c ; undefined
   6113c:	0a2f5c20 	bic	w0, w1, w15, lsl #23
   61140:	207c207c 	.inst	0x207c207c ; undefined
   61144:	2f202020 	.inst	0x2f202020 ; undefined
   61148:	5c205f20 	ldr	d0, a1d2c <__bss_end+0x407ac>
   6114c:	5f202f20 	.inst	0x5f202f20 ; undefined
   61150:	2f7c2060 	umlal	v0.4s, v3.4h, v12.h[3]
   61154:	20605f20 	.inst	0x20605f20 ; undefined
   61158:	207c207c 	.inst	0x207c207c ; undefined
   6115c:	5c205f27 	ldr	d7, a1d40 <__bss_end+0x407c0>
   61160:	5f202f20 	.inst	0x5f202f20 ; undefined
   61164:	207c2060 	.inst	0x207c2060 ; undefined
   61168:	207c2020 	.inst	0x207c2020 ; undefined
   6116c:	207c207c 	.inst	0x207c207c ; undefined
   61170:	7c2f5c7c 	.inst	0x7c2f5c7c ; undefined
   61174:	7c207c20 	.inst	0x7c207c20 ; undefined
   61178:	205f5f20 	.inst	0x205f5f20 ; undefined
   6117c:	7c207c0a 	.inst	0x7c207c0a ; undefined
   61180:	7c5f5f5f 	ldr	h31, [x26, #-11]!
   61184:	295f2820 	ldp	w0, w10, [x1, #248]
   61188:	28207c20 	stnp	w0, wzr, [x1, #-256]
   6118c:	7c207c5f 	.inst	0x7c207c5f ; undefined
   61190:	7c5f2820 	.inst	0x7c5f2820 ; undefined
   61194:	7c207c20 	.inst	0x7c207c20 ; undefined
   61198:	7c207c20 	.inst	0x7c207c20 ; undefined
   6119c:	28207c20 	stnp	w0, wzr, [x1, #-256]
   611a0:	7c207c5f 	.inst	0x7c207c5f ; undefined
   611a4:	7c5f2020 	ldur	h0, [x1, #-14]
   611a8:	7c5f7c20 	ldr	h0, [x1, #-9]!
   611ac:	20207c20 	.inst	0x20207c20 ; undefined
   611b0:	207c207c 	.inst	0x207c207c ; undefined
   611b4:	205c5f7c 	.inst	0x205c5f7c ; undefined
   611b8:	5f5c0a5c 	.inst	0x5f5c0a5c ; undefined
   611bc:	5f5f5f5f 	.inst	0x5f5f5f5f ; undefined
   611c0:	5f5f5c2f 	.inst	0x5f5f5c2f ; undefined
   611c4:	5c202f5f 	ldr	d31, a17ac <__bss_end+0x4022c>
   611c8:	5f2c5f5f 	.inst	0x5f2c5f5f ; undefined
   611cc:	5f5f5c7c 	.inst	0x5f5f5c7c ; undefined
   611d0:	5f7c5f2c 	.inst	0x5f7c5f2c ; undefined
   611d4:	207c5f7c 	.inst	0x207c5f7c ; undefined
   611d8:	5c7c5f7c 	ldr	d28, 159dc4 <__bss_end+0xf8844>
   611dc:	202c5f5f 	.inst	0x202c5f5f ; undefined
   611e0:	5c20207c 	ldr	d28, a15ec <__bss_end+0x4006c>
   611e4:	2f5f5f5f 	.inst	0x2f5f5f5f ; undefined
   611e8:	207c5f5c 	.inst	0x207c5f5c ; undefined
   611ec:	2f5f7c20 	.inst	0x2f5f7c20 ; undefined
   611f0:	5f5f5f5c 	.inst	0x5f5f5f5c ; undefined
   611f4:	200a2f5f 	.inst	0x200a2f5f ; undefined
   611f8:	20202020 	.inst	0x20202020 ; undefined
   611fc:	20202020 	.inst	0x20202020 ; undefined
   61200:	20202020 	.inst	0x20202020 ; undefined
   61204:	20202020 	.inst	0x20202020 ; undefined
   61208:	20202020 	.inst	0x20202020 ; undefined
   6120c:	20202020 	.inst	0x20202020 ; undefined
   61210:	20202020 	.inst	0x20202020 ; undefined
   61214:	20202020 	.inst	0x20202020 ; undefined
   61218:	2f5f5f20 	.inst	0x2f5f5f20 ; undefined
   6121c:	20207c20 	.inst	0x20207c20 ; undefined
   61220:	20202020 	.inst	0x20202020 ; undefined
   61224:	20202020 	.inst	0x20202020 ; undefined
   61228:	20202020 	.inst	0x20202020 ; undefined
   6122c:	20202020 	.inst	0x20202020 ; undefined
   61230:	0a202020 	bic	w0, w1, w0, lsl #8
   61234:	20202020 	.inst	0x20202020 ; undefined
   61238:	20202020 	.inst	0x20202020 ; undefined
   6123c:	20202020 	.inst	0x20202020 ; undefined
   61240:	20202020 	.inst	0x20202020 ; undefined
   61244:	20202020 	.inst	0x20202020 ; undefined
   61248:	20202020 	.inst	0x20202020 ; undefined
   6124c:	20202020 	.inst	0x20202020 ; undefined
   61250:	20202020 	.inst	0x20202020 ; undefined
   61254:	5f5f7c20 	.inst	0x5f5f7c20 ; undefined
   61258:	20202f5f 	.inst	0x20202f5f ; undefined
   6125c:	20202020 	.inst	0x20202020 ; undefined
   61260:	20202020 	.inst	0x20202020 ; undefined
   61264:	20202020 	.inst	0x20202020 ; undefined
   61268:	20202020 	.inst	0x20202020 ; undefined
   6126c:	20202020 	.inst	0x20202020 ; undefined
   61270:	2020200a 	.inst	0x2020200a ; undefined
   61274:	00000a20 	udf	#2592
   61278:	00002023 	udf	#8227
   6127c:	00000000 	udf	#0
   61280:	706c6568 	adr	x8, 139f2f <__bss_end+0xd89af>
   61284:	00000000 	udf	#0
   61288:	706c6568 	adr	x8, 139f37 <__bss_end+0xd89b7>
   6128c:	7270203a 	.inst	0x7270203a ; undefined
   61290:	20746e69 	.inst	0x20746e69 ; undefined
   61294:	206c6c61 	.inst	0x206c6c61 ; undefined
   61298:	69617661 	ldpsw	x1, x29, [x19, #-248]
   6129c:	6c62616c 	ldnp	d12, d24, [x11, #-480]
   612a0:	6f632065 	umlal2	v5.4s, v3.8h, v3.h[2]
   612a4:	6e616d6d 	umin	v13.8h, v11.8h, v1.8h
   612a8:	000a7364 	.inst	0x000a7364 ; undefined
   612ac:	00000000 	udf	#0
   612b0:	64616f6c 	.inst	0x64616f6c ; undefined
   612b4:	3a676d69 	.inst	0x3a676d69 ; undefined
   612b8:	616f6c20 	.inst	0x616f6c20 ; undefined
   612bc:	656b2064 	fmls	z4.h, p0/m, z3.h, z11.h
   612c0:	6c656e72 	ldnp	d18, d27, [x19, #-432]
   612c4:	616d6920 	.inst	0x616d6920 ; undefined
   612c8:	000a6567 	.inst	0x000a6567 ; undefined
   612cc:	00000000 	udf	#0
   612d0:	6f626572 	sqshlu	v18.2d, v11.2d, #34
   612d4:	203a746f 	.inst	0x203a746f ; undefined
   612d8:	6f626572 	sqshlu	v18.2d, v11.2d, #34
   612dc:	7320746f 	.inst	0x7320746f ; undefined
   612e0:	65747379 	fnmls	z25.h, p4/m, z27.h, z20.h
   612e4:	00000a6d 	udf	#2669
   612e8:	6f626572 	sqshlu	v18.2d, v11.2d, #34
   612ec:	0000746f 	udf	#29807
   612f0:	75706e69 	.inst	0x75706e69 ; undefined
   612f4:	20632074 	.inst	0x20632074 ; undefined
   612f8:	63206f74 	.inst	0x63206f74 ; undefined
   612fc:	65636e61 	fnmls	z1.h, p3/m, z19.h, z3.h
   61300:	6572206c 	fmls	z12.h, p0/m, z3.h, z18.h
   61304:	0a746573 	bic	w19, w11, w20, lsr #25
	...
   61310:	00000063 	udf	#99
   61314:	00000000 	udf	#0
   61318:	64616f6c 	.inst	0x64616f6c ; undefined
   6131c:	00676d69 	.inst	0x00676d69 ; undefined
   61320:	6f727245 	fcmla	v5.8h, v18.8h, v18.h[1], #270
   61324:	00203a72 	.inst	0x00203a72 ; NYI
   61328:	6d6f6320 	ldp	d0, d24, [x25, #-272]
   6132c:	646e616d 	.inst	0x646e616d ; undefined
   61330:	746f6e20 	.inst	0x746f6e20 ; undefined
   61334:	756f6620 	.inst	0x756f6620 ; undefined
   61338:	2021646e 	.inst	0x2021646e ; undefined
   6133c:	20797254 	.inst	0x20797254 ; undefined
   61340:	6c65683c 	ldnp	d28, d26, [x1, #-432]
   61344:	74203e70 	.inst	0x74203e70 ; undefined
   61348:	6863206f 	.inst	0x6863206f ; undefined
   6134c:	206b6365 	.inst	0x206b6365 ; undefined
   61350:	206c6c61 	.inst	0x206c6c61 ; undefined
   61354:	69617661 	ldpsw	x1, x29, [x19, #-248]
   61358:	6c62616c 	ldnp	d12, d24, [x11, #-480]
   6135c:	6f632065 	umlal2	v5.4s, v3.8h, v3.h[2]
   61360:	6e616d6d 	umin	v13.8h, v11.8h, v1.8h
   61364:	000a7364 	.inst	0x000a7364 ; undefined
   61368:	00007830 	udf	#30768
   6136c:	00000000 	udf	#0
   61370:	49415254 	.inst	0x49415254 ; undefined
   61374:	2152454c 	.inst	0x2152454c ; undefined
   61378:	00002121 	udf	#8481
   6137c:	00000000 	udf	#0
   61380:	0000002e 	udf	#46
   61384:	00000000 	udf	#0
   61388:	6c696620 	ldnp	d0, d25, [x17, #-368]
   6138c:	6f6e2065 	umlal2	v5.4s, v3.8h, v14.h[2]
   61390:	6f662074 	umlal2	v20.4s, v3.8h, v6.h[2]
   61394:	21646e75 	.inst	0x21646e75 ; undefined
   61398:	0000000a 	udf	#10
   6139c:	00000000 	udf	#0
   613a0:	0000000d 	udf	#13
   613a4:	00000000 	udf	#0
   613a8:	205f200a 	.inst	0x205f200a ; undefined
   613ac:	205f2020 	.inst	0x205f2020 ; undefined
   613b0:	20202020 	.inst	0x20202020 ; undefined
   613b4:	5f205f20 	.inst	0x5f205f20 ; undefined
   613b8:	20202020 	.inst	0x20202020 ; undefined
   613bc:	20202020 	.inst	0x20202020 ; undefined
   613c0:	205f5f20 	.inst	0x205f5f20 ; undefined
   613c4:	20202020 	.inst	0x20202020 ; undefined
   613c8:	5f202020 	.inst	0x5f202020 ; undefined
   613cc:	2020205f 	.inst	0x2020205f ; undefined
   613d0:	20202020 	.inst	0x20202020 ; undefined
   613d4:	205f2020 	.inst	0x205f2020 ; undefined
   613d8:	20202020 	.inst	0x20202020 ; undefined
   613dc:	7c0a205f 	stur	h31, [x2, #162]
   613e0:	7c207c20 	.inst	0x7c207c20 ; undefined
   613e4:	5f207c20 	.inst	0x5f207c20 ; undefined
   613e8:	207c5f5f 	.inst	0x207c5f5f ; undefined
   613ec:	207c207c 	.inst	0x207c207c ; undefined
   613f0:	205f5f5f 	.inst	0x205f5f5f ; undefined
   613f4:	5c202020 	ldr	d0, a17f8 <__bss_end+0x40278>
   613f8:	20205c20 	.inst	0x20205c20 ; undefined
   613fc:	20202020 	.inst	0x20202020 ; undefined
   61400:	5f2f202f 	.inst	0x5f2f202f ; undefined
   61404:	5f20205f 	.inst	0x5f20205f ; undefined
   61408:	7c5f5f20 	ldr	h0, [x25, #-11]!
   6140c:	5f207c20 	.inst	0x5f207c20 ; undefined
   61410:	7c207c5f 	.inst	0x7c207c5f ; undefined
   61414:	7c207c0a 	.inst	0x7c207c0a ; undefined
   61418:	7c207c5f 	.inst	0x7c207c5f ; undefined
   6141c:	205f202f 	.inst	0x205f202f ; undefined
   61420:	207c205c 	.inst	0x207c205c ; undefined
   61424:	5f202f7c 	.inst	0x5f202f7c ; undefined
   61428:	20205c20 	.inst	0x20205c20 ; undefined
   6142c:	205c2020 	.inst	0x205c2020 ; undefined
   61430:	5c2f205c 	ldr	d28, bf838 <__bss_end+0x5e2b8>
   61434:	2f202f20 	.inst	0x2f202f20 ; undefined
   61438:	5c205f20 	ldr	d0, a201c <__bss_end+0x40a9c>
   6143c:	5f27207c 	.inst	0x5f27207c ; undefined
   61440:	7c207c5f 	.inst	0x7c207c5f ; undefined
   61444:	605f202f 	.inst	0x605f202f ; undefined
   61448:	7c0a7c20 	str	h0, [x1, #167]!
   6144c:	205f2020 	.inst	0x205f2020 ; undefined
   61450:	20207c20 	.inst	0x20207c20 ; undefined
   61454:	202f5f5f 	.inst	0x202f5f5f ; undefined
   61458:	207c207c 	.inst	0x207c207c ; undefined
   6145c:	20295f28 	.inst	0x20295f28 ; undefined
   61460:	2020207c 	.inst	0x2020207c ; undefined
   61464:	56205c20 	.inst	0x56205c20 ; undefined
   61468:	20562020 	.inst	0x20562020 ; undefined
   6146c:	5f28202f 	.inst	0x5f28202f ; undefined
   61470:	207c2029 	.inst	0x207c2029 ; undefined
   61474:	7c20207c 	.inst	0x7c20207c ; undefined
   61478:	28207c20 	stnp	w0, wzr, [x1, #-256]
   6147c:	7c207c5f 	.inst	0x7c207c5f ; undefined
   61480:	7c5f7c0a 	ldr	h10, [x0, #-9]!
   61484:	7c5f7c20 	ldr	h0, [x1, #-9]!
   61488:	5f5f5f5c 	.inst	0x5f5f5f5c ; undefined
   6148c:	5f7c5f7c 	.inst	0x5f7c5f7c ; undefined
   61490:	5f5f5c7c 	.inst	0x5f5f5c7c ; undefined
   61494:	2920285f 	stp	wzr, w10, [x2, #-256]
   61498:	20202020 	.inst	0x20202020 ; undefined
   6149c:	5c2f5f5c 	ldr	d28, c0084 <__bss_end+0x5eb04>
   614a0:	5c202f5f 	ldr	d31, a1a88 <__bss_end+0x40508>
   614a4:	2f5f5f5f 	.inst	0x2f5f5f5f ; undefined
   614a8:	207c5f7c 	.inst	0x207c5f7c ; undefined
   614ac:	7c5f7c20 	ldr	h0, [x1, #-9]!
   614b0:	2c5f5f5c 	ldnp	s28, s23, [x26, #248]
   614b4:	200a7c5f 	.inst	0x200a7c5f ; undefined
   614b8:	20202020 	.inst	0x20202020 ; undefined
   614bc:	20202020 	.inst	0x20202020 ; undefined
   614c0:	20202020 	.inst	0x20202020 ; undefined
   614c4:	20202020 	.inst	0x20202020 ; undefined
   614c8:	7c202020 	.inst	0x7c202020 ; undefined
   614cc:	2020202f 	.inst	0x2020202f ; undefined
   614d0:	20202020 	.inst	0x20202020 ; undefined
   614d4:	20202020 	.inst	0x20202020 ; undefined
   614d8:	20202020 	.inst	0x20202020 ; undefined
   614dc:	20202020 	.inst	0x20202020 ; undefined
   614e0:	20202020 	.inst	0x20202020 ; undefined
   614e4:	20202020 	.inst	0x20202020 ; undefined
   614e8:	20202020 	.inst	0x20202020 ; undefined
   614ec:	Address 0x00000000000614ec is out of bounds.


Disassembly of section .bss:

00000000000614f0 <mailbox>:
	...

Disassembly of section .debug_line:

0000000000000000 <.debug_line>:
       0:	00000053 	udf	#83
       4:	00080005 	.inst	0x00080005 ; undefined
       8:	0000002a 	udf	#42
       c:	fb010104 	.inst	0xfb010104 ; undefined
      10:	01000d0e 	.inst	0x01000d0e ; undefined
      14:	00010101 	.inst	0x00010101 ; undefined
      18:	00010000 	.inst	0x00010000 ; undefined
      1c:	01010100 	.inst	0x01010100 ; undefined
      20:	0000011f 	udf	#287
      24:	01020000 	.inst	0x01020000 ; undefined
      28:	020f021f 	.inst	0x020f021f ; undefined
      2c:	00000023 	udf	#35
      30:	00002300 	udf	#8960
      34:	09000000 	.inst	0x09000000 ; undefined
      38:	06000002 	.inst	0x06000002 ; undefined
      3c:	00000000 	udf	#0
      40:	011f0300 	.inst	0x011f0300 ; undefined
      44:	21222121 	.inst	0x21222121 ; undefined
      48:	21232124 	.inst	0x21232124 ; undefined
      4c:	21212122 	.inst	0x21212122 ; undefined
      50:	06022223 	.inst	0x06022223 ; undefined
      54:	d6010100 	.inst	0xd6010100 ; undefined
      58:	05000001 	orr	z1.s, z1.s, #0x1
      5c:	3d000800 	str	b0, [x0, #2]
      60:	04000000 	add	z0.b, p0/m, z0.b, z0.b
      64:	0efb0101 	.inst	0x0efb0101 ; undefined
      68:	0101000d 	.inst	0x0101000d ; undefined
      6c:	00000101 	udf	#257
      70:	00000100 	udf	#256
      74:	1f010101 	fmadd	s1, s8, s1, s0
      78:	00000002 	udf	#2
      7c:	00003100 	udf	#12544
      80:	1f010200 	fmadd	s0, s16, s1, s0
      84:	2a050f02 	orr	w2, w24, w5, lsl #3
      88:	00000000 	udf	#0
      8c:	0000002a 	udf	#42
      90:	00003800 	udf	#14336
      94:	00410100 	.inst	0x00410100 ; undefined
      98:	49010000 	.inst	0x49010000 ; undefined
      9c:	01000000 	.inst	0x01000000 ; undefined
      a0:	09000f05 	.inst	0x09000f05 ; undefined
      a4:	06005002 	.inst	0x06005002 ; undefined
      a8:	00000000 	udf	#0
      ac:	05051600 	.inst	0x05051600 ; undefined
      b0:	060f0513 	.inst	0x060f0513 ; undefined
      b4:	21050511 	.inst	0x21050511 ; undefined
      b8:	052d0f05 	ext	z5.b, z5.b, z24.b, #107
      bc:	0f053009 	.inst	0x0f053009 ; undefined
      c0:	2105051e 	.inst	0x2105051e ; undefined
      c4:	01062106 	.inst	0x01062106 ; undefined
      c8:	20253105 	.inst	0x20253105 ; undefined
      cc:	052e1505 	ext	z5.b, z5.b, z8.b, #117
      d0:	051d060a 	mov	z10.b, p13/z, #48
      d4:	05131105 	mov	z5.b, p3/z, #-120
      d8:	11051309 	add	w9, w24, #0x144
      dc:	09050106 	.inst	0x09050106 ; undefined
      e0:	0f052206 	.inst	0x0f052206 ; undefined
      e4:	09051006 	.inst	0x09051006 ; undefined
      e8:	23052106 	.inst	0x23052106 ; undefined
      ec:	0c051306 	.inst	0x0c051306 ; undefined
      f0:	200b051f 	.inst	0x200b051f ; undefined
      f4:	34061605 	cbz	w5, c3b4 <__bss_size+0xc3a2>
      f8:	02000905 	.inst	0x02000905 ; undefined
      fc:	05590304 	mov	z4.h, p9/z, #24
     100:	04020011 	.inst	0x04020011 ; undefined
     104:	05010603 	orr	z3.b, z3.b, #0x1
     108:	0402000f 	.inst	0x0402000f ; undefined
     10c:	09052003 	.inst	0x09052003 ; undefined
     110:	03040200 	.inst	0x03040200 ; undefined
     114:	13052106 	sbfx	w6, w8, #5, #4
     118:	03040200 	.inst	0x03040200 ; undefined
     11c:	26050106 	.inst	0x26050106 ; undefined
     120:	03040200 	.inst	0x03040200 ; undefined
     124:	16053a06 	b	fffffffff814e93c <__bss_end+0xfffffffff80ed3bc>
     128:	03040200 	.inst	0x03040200 ; undefined
     12c:	202e0601 	.inst	0x202e0601 ; undefined
     130:	02000905 	.inst	0x02000905 ; undefined
     134:	17060304 	b	fffffffffc180d44 <__bss_end+0xfffffffffc11f7c4>
     138:	02002005 	.inst	0x02002005 ; undefined
     13c:	051f0304 	mov	z4.b, p15/z, #24
     140:	04020016 	.inst	0x04020016 ; undefined
     144:	02000103 	.inst	0x02000103 ; undefined
     148:	20060304 	.inst	0x20060304 ; undefined
     14c:	23060505 	.inst	0x23060505 ; undefined
     150:	06200613 	.inst	0x06200613 ; undefined
     154:	0601052f 	.inst	0x0601052f ; undefined
     158:	1f050513 	fmadd	s19, s8, s5, s1
     15c:	05210105 	ext	z5.b, z5.b, z8.b, #8
     160:	01051f05 	.inst	0x01051f05 ; undefined
     164:	1f050521 	fmadd	s1, s9, s5, s1
     168:	01000102 	.inst	0x01000102 ; undefined
     16c:	000c0501 	.inst	0x000c0501 ; undefined
     170:	01000209 	.inst	0x01000209 ; undefined
     174:	00000006 	udf	#6
     178:	1c030000 	ldr	s0, 6178 <__bss_size+0x6166>
     17c:	13050501 	sbfiz	w1, w8, #27, #2
     180:	11060c05 	add	w5, w0, #0x183
     184:	13030d05 	sbfx	w5, w8, #3, #1
     188:	030c0558 	.inst	0x030c0558 ; undefined
     18c:	0905206d 	.inst	0x0905206d ; undefined
     190:	052e0e03 	ext	z3.b, z3.b, z16.b, #115
     194:	2072030c 	.inst	0x2072030c ; undefined
     198:	19030d05 	.inst	0x19030d05 ; undefined
     19c:	1f12052e 	fmadd	s14, s9, s18, s1
     1a0:	68030c05 	.inst	0x68030c05 ; undefined
     1a4:	03120520 	.inst	0x03120520 ; undefined
     1a8:	0d052e20 	.inst	0x0d052e20 ; undefined
     1ac:	053c7903 	.inst	0x053c7903 ; undefined
     1b0:	2067030c 	.inst	0x2067030c ; undefined
     1b4:	063d0505 	.inst	0x063d0505 ; undefined
     1b8:	010a0321 	.inst	0x010a0321 ; undefined
     1bc:	1309053d 	sbfiz	w29, w9, #23, #2
     1c0:	0531132f 	ext	z15.b, z15.b, z25.b, #140
     1c4:	0601060d 	.inst	0x0601060d ; undefined
     1c8:	2111063d 	.inst	0x2111063d ; undefined
     1cc:	051f0b05 	mov	z5.b, p15/z, #88
     1d0:	2106210d 	.inst	0x2106210d ; undefined
     1d4:	052f0605 	ext	z5.b, z5.b, z16.b, #121
     1d8:	12053e0e 	and	w14, w16, #0xf80007ff
     1dc:	0d050106 	.inst	0x0d050106 ; undefined
     1e0:	0e053d06 	umov	w6, v8.b[2]
     1e4:	06120519 	.inst	0x06120519 ; undefined
     1e8:	05017803 	orr	z3.s, z3.s, #0x20000
     1ec:	1005210d 	adr	x13, a60c <__bss_size+0xa5fa>
     1f0:	210d051f 	.inst	0x210d051f ; undefined
     1f4:	2f2f2106 	.inst	0x2f2f2106 ; undefined
     1f8:	01061105 	.inst	0x01061105 ; undefined
     1fc:	054a0f05 	.inst	0x054a0f05 ; undefined
     200:	05210611 	ext	z17.b, z17.b, z16.b, #9
     204:	05310612 	ext	z18.b, z18.b, z16.b, #137
     208:	053d060d 	ext	z13.b, z13.b, z16.b, #233
     20c:	12051507 	and	w7, w8, #0xf8000001
     210:	07050e06 	.inst	0x07050e06 ; undefined
     214:	2a100524 	orr	w4, w9, w16, lsl #1
     218:	05210d05 	ext	z5.b, z5.b, z8.b, #11
     21c:	0e053107 	tbx	v7.8b, {v8.16b, v9.16b}, v5.8b
     220:	052f2106 	mov	z6.b, z8.b[7]
     224:	3c67030a 	.inst	0x3c67030a ; undefined
     228:	01060e05 	.inst	0x01060e05 ; undefined
     22c:	01000102 	.inst	0x01000102 ; undefined
     230:	00021d01 	.inst	0x00021d01 ; undefined
     234:	08000500 	stxrb	w0, w0, [x8]
     238:	00003300 	udf	#13056
     23c:	01010400 	.inst	0x01010400 ; undefined
     240:	000d0efb 	.inst	0x000d0efb ; undefined
     244:	01010101 	.inst	0x01010101 ; undefined
     248:	01000000 	.inst	0x01000000 ; undefined
     24c:	01010000 	.inst	0x01010000 ; undefined
     250:	00021f01 	.inst	0x00021f01 ; undefined
     254:	31000000 	adds	w0, w0, #0x0
     258:	02000000 	.inst	0x02000000 ; undefined
     25c:	0f021f01 	.inst	0x0f021f01 ; undefined
     260:	00005703 	udf	#22275
     264:	00570100 	.inst	0x00570100 ; undefined
     268:	5e010000 	sha1c	q0, s0, v1.4s
     26c:	01000000 	.inst	0x01000000 ; undefined
     270:	09000105 	.inst	0x09000105 ; undefined
     274:	06023002 	.inst	0x06023002 ; undefined
     278:	00000000 	udf	#0
     27c:	05051700 	.inst	0x05051700 ; undefined
     280:	06180513 	.inst	0x06180513 ; undefined
     284:	30230501 	adr	x1, 46325 <__bss_size+0x46313>
     288:	051e1205 	mov	z5.b, p14/z, #-112
     28c:	05052223 	.inst	0x05052223 ; undefined
     290:	01040200 	.inst	0x01040200 ; undefined
     294:	08052e06 	stxrb	w5, w6, [x16]
     298:	01040200 	.inst	0x01040200 ; undefined
     29c:	00230501 	.inst	0x00230501 ; NYI
     2a0:	20010402 	.inst	0x20010402 ; undefined
     2a4:	05300505 	ext	z5.b, z5.b, z8.b, #129
     2a8:	05010611 	orr	z17.b, z17.b, #0x1
     2ac:	11052427 	add	w7, w1, #0x149
     2b0:	2705261c 	.inst	0x2705261c ; undefined
     2b4:	2211051e 	.inst	0x2211051e ; undefined
     2b8:	05207a03 	.inst	0x05207a03 ; undefined
     2bc:	04020005 	.inst	0x04020005 ; undefined
     2c0:	05220601 	ext	z1.b, z1.b, z16.b, #17
     2c4:	04020009 	.inst	0x04020009 ; undefined
     2c8:	0c051401 	.inst	0x0c051401 ; undefined
     2cc:	01040200 	.inst	0x01040200 ; undefined
     2d0:	00270501 	.inst	0x00270501 ; NYI
     2d4:	20010402 	.inst	0x20010402 ; undefined
     2d8:	02000905 	.inst	0x02000905 ; undefined
     2dc:	05140104 	mov	z4.b, p4/z, #8
     2e0:	04020027 	.inst	0x04020027 ; undefined
     2e4:	05100601 	mov	z1.b, p0/z, #48
     2e8:	0b053011 	add	w17, w0, w5, lsl #12
     2ec:	060d0520 	.inst	0x060d0520 ; undefined
     2f0:	061b0530 	.inst	0x061b0530 ; undefined
     2f4:	201e0501 	.inst	0x201e0501 ; undefined
     2f8:	05201b05 	ext	z5.b, z5.b, z24.b, #6
     2fc:	0105201e 	.inst	0x0105201e ; undefined
     300:	061a0523 	.inst	0x061a0523 ; undefined
     304:	13050530 	sbfiz	w16, w9, #27, #2
     308:	01061005 	.inst	0x01061005 ; undefined
     30c:	05051d3f 	.inst	0x05051d3f ; undefined
     310:	10052106 	adr	x6, a730 <__bss_size+0xa71e>
     314:	051e1406 	mov	z6.b, p14/z, #-96
     318:	05220605 	ext	z5.b, z5.b, z16.b, #17
     31c:	1f130610 	fmadd	s16, s16, s19, s1
     320:	21060505 	.inst	0x21060505 ; undefined
     324:	03061205 	.inst	0x03061205 ; undefined
     328:	1005016a 	adr	x10, a354 <__bss_size+0xa342>
     32c:	05201603 	ext	z3.b, z3.b, z16.b, #5
     330:	05210605 	ext	z5.b, z5.b, z16.b, #9
     334:	6b030623 	subs	w3, w17, w3, lsl #1
     338:	03100501 	.inst	0x03100501 ; undefined
     33c:	05052015 	.inst	0x05052015 ; undefined
     340:	23052106 	.inst	0x23052106 ; undefined
     344:	016a0306 	.inst	0x016a0306 ; undefined
     348:	16031005 	b	fffffffff80c435c <__bss_end+0xfffffffff8062ddc>
     34c:	06050520 	.inst	0x06050520 ; undefined
     350:	06100522 	.inst	0x06100522 ; undefined
     354:	06050501 	.inst	0x06050501 ; undefined
     358:	01630321 	.inst	0x01630321 ; undefined
     35c:	08051414 	stxrb	w5, w20, [x0]
     360:	20230501 	.inst	0x20230501 ; undefined
     364:	05300505 	ext	z5.b, z5.b, z8.b, #129
     368:	05010611 	orr	z17.b, z17.b, #0x1
     36c:	11052427 	add	w7, w1, #0x149
     370:	2705261c 	.inst	0x2705261c ; undefined
     374:	2211051e 	.inst	0x2211051e ; undefined
     378:	05207a03 	.inst	0x05207a03 ; undefined
     37c:	05220605 	ext	z5.b, z5.b, z16.b, #17
     380:	0c051409 	.inst	0x0c051409 ; undefined
     384:	20270501 	.inst	0x20270501 ; undefined
     388:	05140905 	mov	z5.b, p4/z, #72
     38c:	05100627 	mov	z7.b, p0/z, #49
     390:	0b053011 	add	w17, w0, w5, lsl #12
     394:	060d0520 	.inst	0x060d0520 ; undefined
     398:	061b0530 	.inst	0x061b0530 ; undefined
     39c:	01052e01 	.inst	0x01052e01 ; undefined
     3a0:	05011003 	orr	z3.s, z3.s, #0x40000000
     3a4:	05300613 	ext	z19.b, z19.b, z16.b, #129
     3a8:	10051305 	adr	x5, a608 <__bss_size+0xa5f6>
     3ac:	1d3f0106 	.inst	0x1d3f0106 ; undefined
     3b0:	21060505 	.inst	0x21060505 ; undefined
     3b4:	14061005 	b	1843c8 <__bss_end+0x122e48>
     3b8:	0605051e 	.inst	0x0605051e ; undefined
     3bc:	06100522 	.inst	0x06100522 ; undefined
     3c0:	05051f13 	.inst	0x05051f13 ; undefined
     3c4:	12052106 	and	w6, w8, #0xf800000f
     3c8:	015d0306 	.inst	0x015d0306 ; undefined
     3cc:	23031005 	.inst	0x23031005 ; undefined
     3d0:	06050520 	.inst	0x06050520 ; undefined
     3d4:	06230521 	.inst	0x06230521 ; undefined
     3d8:	05015e03 	orr	z3.b, z3.b, #0x20
     3dc:	20220310 	.inst	0x20220310 ; undefined
     3e0:	21060505 	.inst	0x21060505 ; undefined
     3e4:	03062305 	.inst	0x03062305 ; undefined
     3e8:	1005015d 	adr	x29, a410 <__bss_size+0xa3fe>
     3ec:	05202303 	.inst	0x05202303 ; undefined
     3f0:	05210605 	ext	z5.b, z5.b, z16.b, #9
     3f4:	05010610 	orr	z16.b, z16.b, #0x1
     3f8:	05220605 	ext	z5.b, z5.b, z16.b, #17
     3fc:	05010610 	orr	z16.b, z16.b, #0x1
     400:	03210605 	.inst	0x03210605 ; undefined
     404:	22140155 	.inst	0x22140155 ; undefined
     408:	05010805 	orr	z5.s, z5.s, #0x80000000
     40c:	05052023 	.inst	0x05052023 ; undefined
     410:	06110530 	.inst	0x06110530 ; undefined
     414:	24270501 	cmphs	p1.b, p1/z, z8.b, #28
     418:	261c1105 	.inst	0x261c1105 ; undefined
     41c:	051e2705 	.inst	0x051e2705 ; undefined
     420:	7a032211 	.inst	0x7a032211 ; undefined
     424:	06050520 	.inst	0x06050520 ; undefined
     428:	14090522 	b	2418b0 <__bss_end+0x1e0330>
     42c:	05010c05 	orr	z5.h, z5.h, #0x8000
     430:	09052027 	.inst	0x09052027 ; undefined
     434:	06270514 	.inst	0x06270514 ; undefined
     438:	30110510 	adr	x16, 224d9 <__bss_size+0x224c7>
     43c:	05200b05 	ext	z5.b, z5.b, z24.b, #2
     440:	0530060d 	ext	z13.b, z13.b, z16.b, #129
     444:	2e01061b 	.inst	0x2e01061b ; undefined
     448:	1e030105 	.inst	0x1e030105 ; undefined
     44c:	00010201 	.inst	0x00010201 ; undefined
     450:	00b10101 	.inst	0x00b10101 ; undefined
     454:	00050000 	.inst	0x00050000 ; undefined
     458:	002e0008 	.inst	0x002e0008 ; NYI
     45c:	01040000 	.inst	0x01040000 ; undefined
     460:	0d0efb01 	.inst	0x0d0efb01 ; undefined
     464:	01010100 	.inst	0x01010100 ; undefined
     468:	00000001 	udf	#1
     46c:	01000001 	.inst	0x01000001 ; undefined
     470:	021f0101 	.inst	0x021f0101 ; undefined
     474:	00000000 	udf	#0
     478:	00000031 	udf	#49
     47c:	021f0102 	.inst	0x021f0102 ; undefined
     480:	006c020f 	.inst	0x006c020f ; undefined
     484:	6c010000 	stnp	d0, d0, [x0, #16]
     488:	01000000 	.inst	0x01000000 ; undefined
     48c:	09002505 	.inst	0x09002505 ; undefined
     490:	0603d002 	.inst	0x0603d002 ; undefined
     494:	00000000 	udf	#0
     498:	05051600 	.inst	0x05051600 ; undefined
     49c:	06060513 	.inst	0x06060513 ; undefined
     4a0:	20190501 	.inst	0x20190501 ; undefined
     4a4:	05210105 	ext	z5.b, z5.b, z8.b, #8
     4a8:	05300615 	ext	z21.b, z21.b, z16.b, #129
     4ac:	06051303 	.inst	0x06051303 ; undefined
     4b0:	1305050d 	sbfiz	w13, w8, #27, #2
     4b4:	01061905 	.inst	0x01061905 ; undefined
     4b8:	055d0305 	mov	z5.h, p13/z, #24
     4bc:	052e1b19 	ext	z25.b, z25.b, z24.b, #118
     4c0:	05170603 	mov	z3.b, p7/z, #48
     4c4:	017a0306 	.inst	0x017a0306 ; undefined
     4c8:	05130505 	mov	z5.b, p3/z, #40
     4cc:	05170603 	mov	z3.b, p7/z, #48
     4d0:	05201b19 	ext	z25.b, z25.b, z24.b, #6
     4d4:	15051801 	b	41464d8 <__bss_end+0x40e4f58>
     4d8:	03053006 	.inst	0x03053006 ; undefined
     4dc:	03060513 	.inst	0x03060513 ; undefined
     4e0:	05050176 	.inst	0x05050176 ; undefined
     4e4:	06190513 	.inst	0x06190513 ; undefined
     4e8:	03056601 	.inst	0x03056601 ; undefined
     4ec:	010a0306 	.inst	0x010a0306 ; undefined
     4f0:	75030605 	.inst	0x75030605 ; undefined
     4f4:	13050501 	sbfiz	w1, w8, #27, #2
     4f8:	01061905 	.inst	0x01061905 ; undefined
     4fc:	03010520 	.inst	0x03010520 ; undefined
     500:	0102010b 	.inst	0x0102010b ; undefined
     504:	e0010100 	ld1b	{za0h.b[w12, 0]}, p0/z, [x8, x1]
     508:	05000002 	orr	z2.s, z2.s, #0x1
     50c:	2e000800 	ext	v0.8b, v0.8b, v0.8b, #1
     510:	04000000 	add	z0.b, p0/m, z0.b, z0.b
     514:	0efb0101 	.inst	0x0efb0101 ; undefined
     518:	0101000d 	.inst	0x0101000d ; undefined
     51c:	00000101 	udf	#257
     520:	00000100 	udf	#256
     524:	1f010101 	fmadd	s1, s8, s1, s0
     528:	00000002 	udf	#2
     52c:	00003100 	udf	#12544
     530:	1f010200 	fmadd	s0, s16, s1, s0
     534:	7c020f02 	str	h2, [x24, #32]!
     538:	01000000 	.inst	0x01000000 ; undefined
     53c:	0000007c 	udf	#124
     540:	00010501 	.inst	0x00010501 ; undefined
     544:	04300209 	add	z9.b, z16.b, z16.b
     548:	00000006 	udf	#6
     54c:	2d030000 	stp	s0, s0, [x0, #24]
     550:	13050501 	sbfiz	w1, w8, #27, #2
     554:	060c0514 	.inst	0x060c0514 ; undefined
     558:	06050501 	.inst	0x06050501 ; undefined
     55c:	010c054b 	.inst	0x010c054b ; undefined
     560:	05011205 	orr	z5.s, z5.s, #0xc0007fff
     564:	04020019 	.inst	0x04020019 ; undefined
     568:	12050103 	and	w3, w8, #0x8000000
     56c:	03040200 	.inst	0x03040200 ; undefined
     570:	04020020 	.inst	0x04020020 ; undefined
     574:	00010603 	.inst	0x00010603 ; undefined
     578:	20030402 	.inst	0x20030402 ; undefined
     57c:	26060505 	.inst	0x26060505 ; undefined
     580:	01061005 	.inst	0x01061005 ; undefined
     584:	0605054a 	.inst	0x0605054a ; undefined
     588:	010c0521 	.inst	0x010c0521 ; undefined
     58c:	05011205 	orr	z5.s, z5.s, #0xc0007fff
     590:	04020019 	.inst	0x04020019 ; undefined
     594:	12050103 	and	w3, w8, #0x8000000
     598:	03040200 	.inst	0x03040200 ; undefined
     59c:	04020020 	.inst	0x04020020 ; undefined
     5a0:	00010603 	.inst	0x00010603 ; undefined
     5a4:	20030402 	.inst	0x20030402 ; undefined
     5a8:	21060505 	.inst	0x21060505 ; undefined
     5ac:	01061005 	.inst	0x01061005 ; undefined
     5b0:	05231105 	ext	z5.b, z5.b, z8.b, #28
     5b4:	11051d10 	add	w16, w8, #0x147
     5b8:	21120523 	.inst	0x21120523 ; undefined
     5bc:	05211105 	ext	z5.b, z5.b, z8.b, #12
     5c0:	05051b10 	.inst	0x05051b10 ; undefined
     5c4:	12052306 	and	w6, w24, #0xf800000f
     5c8:	11051306 	add	w6, w24, #0x144
     5cc:	231d2121 	.inst	0x231d2121 ; undefined
     5d0:	051e1e21 	mov	z1.b, p14/z, #-15
     5d4:	052f0605 	ext	z5.b, z5.b, z16.b, #121
     5d8:	05010612 	orr	z18.b, z18.b, #0x1
     5dc:	05210605 	ext	z5.b, z5.b, z16.b, #9
     5e0:	21140611 	.inst	0x21140611 ; undefined
     5e4:	0605051d 	.inst	0x0605051d ; undefined
     5e8:	06110521 	.inst	0x06110521 ; undefined
     5ec:	21120514 	.inst	0x21120514 ; undefined
     5f0:	051d1105 	mov	z5.b, p13/z, #-120
     5f4:	05210605 	ext	z5.b, z5.b, z16.b, #9
     5f8:	05140612 	mov	z18.b, p4/z, #48
     5fc:	05051e11 	.inst	0x05051e11 ; undefined
     600:	11052106 	add	w6, w8, #0x148
     604:	05050106 	.inst	0x05050106 ; undefined
     608:	12052f06 	and	w6, w24, #0xf800007f
     60c:	06050106 	.inst	0x06050106 ; undefined
     610:	03120526 	.inst	0x03120526 ; undefined
     614:	0505207a 	.inst	0x0505207a ; undefined
     618:	06052106 	.inst	0x06052106 ; undefined
     61c:	12051706 	and	w6, w24, #0xf8000001
     620:	0605051b 	.inst	0x0605051b ; undefined
     624:	06080525 	.inst	0x06080525 ; undefined
     628:	1b060519 	madd	w25, w8, w6, w1
     62c:	0605051e 	.inst	0x0605051e ; undefined
     630:	06060521 	.inst	0x06060521 ; undefined
     634:	05051f13 	.inst	0x05051f13 ; undefined
     638:	06052106 	.inst	0x06052106 ; undefined
     63c:	05050106 	.inst	0x05050106 ; undefined
     640:	0e052106 	tbl	v6.8b, {v8.16b, v9.16b}, v5.8b
     644:	02050106 	.inst	0x02050106 ; undefined
     648:	08052406 	stxrb	w5, w6, [x0]
     64c:	05200601 	ext	z1.b, z1.b, z16.b, #1
     650:	05202113 	.inst	0x05202113 ; undefined
     654:	05200603 	ext	z3.b, z3.b, z16.b, #1
     658:	05010613 	orr	z19.b, z19.b, #0x1
     65c:	051f0608 	mov	z8.b, p15/z, #48
     660:	05310601 	ext	z1.b, z1.b, z16.b, #137
     664:	05410620 	eor	z0.b, z0.b, #0x3
     668:	05190625 	mov	z5.b, p9/z, #49
     66c:	04020005 	.inst	0x04020005 ; undefined
     670:	052e0601 	ext	z1.b, z1.b, z16.b, #113
     674:	04020008 	.inst	0x04020008 ; undefined
     678:	23050101 	.inst	0x23050101 ; undefined
     67c:	01040200 	.inst	0x01040200 ; undefined
     680:	00250520 	.inst	0x00250520 ; NYI
     684:	06010402 	.inst	0x06010402 ; undefined
     688:	00230501 	.inst	0x00230501 ; NYI
     68c:	20010402 	.inst	0x20010402 ; undefined
     690:	25060505 	cmpge	p5.b, p1/z, z8.b, #6
     694:	01060f05 	.inst	0x01060f05 ; undefined
     698:	053d0105 	ext	z5.b, z5.b, z8.b, #232
     69c:	05250612 	ext	z18.b, z18.b, z16.b, #41
     6a0:	05160625 	mov	z5.b, p6/z, #49
     6a4:	04020005 	.inst	0x04020005 ; undefined
     6a8:	00390601 	.inst	0x00390601 ; NYI
     6ac:	15010402 	b	40416b4 <__bss_end+0x3fe0134>
     6b0:	02000805 	.inst	0x02000805 ; undefined
     6b4:	05010104 	orr	z4.s, z4.s, #0x1ff
     6b8:	04020023 	.inst	0x04020023 ; undefined
     6bc:	25052001 	cmplt	p1.b, p0/z, z0.b, #5
     6c0:	01040200 	.inst	0x01040200 ; undefined
     6c4:	23050106 	.inst	0x23050106 ; undefined
     6c8:	01040200 	.inst	0x01040200 ; undefined
     6cc:	06050520 	.inst	0x06050520 ; undefined
     6d0:	060e0522 	.inst	0x060e0522 ; undefined
     6d4:	22180501 	.inst	0x22180501 ; undefined
     6d8:	051e0e05 	mov	z5.b, p14/z, #112
     6dc:	05052e06 	.inst	0x05052e06 ; undefined
     6e0:	18052206 	ldr	w6, ab20 <__bss_size+0xab0e>
     6e4:	01050106 	.inst	0x01050106 ; undefined
     6e8:	19052021 	stlurb	w1, [x1, #82]
     6ec:	05053306 	.inst	0x05053306 ; undefined
     6f0:	010b0513 	.inst	0x010b0513 ; undefined
     6f4:	03062505 	.inst	0x03062505 ; undefined
     6f8:	0f052e66 	.inst	0x0f052e66 ; undefined
     6fc:	1b250525 	.inst	0x1b250525 ; undefined
     700:	3c250f05 	.inst	0x3c250f05 ; undefined
     704:	03060905 	.inst	0x03060905 ; undefined
     708:	0b050117 	add	w23, w8, w5
     70c:	09050106 	.inst	0x09050106 ; undefined
     710:	01063006 	.inst	0x01063006 ; undefined
     714:	03060605 	.inst	0x03060605 ; undefined
     718:	0505205b 	.inst	0x0505205b ; undefined
     71c:	01080527 	.inst	0x01080527 ; undefined
     720:	05202305 	.inst	0x05202305 ; undefined
     724:	05010625 	orr	z5.b, z5.b, #0x3
     728:	05052023 	.inst	0x05052023 ; undefined
     72c:	0f052506 	movi	v6.2s, #0xa8, lsl #8
     730:	05200106 	ext	z6.b, z6.b, z8.b, #0
     734:	1503060b 	b	40c1f60 <__bss_end+0x40609e0>
     738:	06010501 	.inst	0x06010501 ; undefined
     73c:	06050534 	.inst	0x06050534 ; undefined
     740:	05206003 	zip1	z3.b, z0.b, z0.b
     744:	23050108 	.inst	0x23050108 ; undefined
     748:	06250520 	.inst	0x06250520 ; undefined
     74c:	20230501 	.inst	0x20230501 ; undefined
     750:	25060505 	cmpge	p5.b, p1/z, z8.b, #6
     754:	01060f05 	.inst	0x01060f05 ; undefined
     758:	05210105 	ext	z5.b, z5.b, z8.b, #8
     75c:	1f03061f 	fmadd	s31, s16, s3, s1
     760:	13050520 	sbfiz	w0, w9, #27, #2
     764:	1f051313 	fmadd	s19, s24, s5, s4
     768:	05050f06 	.inst	0x05050f06 ; undefined
     76c:	1d1f0523 	.inst	0x1d1f0523 ; undefined
     770:	05310505 	ext	z5.b, z5.b, z8.b, #137
     774:	05051d1f 	.inst	0x05051d1f ; undefined
     778:	05210615 	ext	z21.b, z21.b, z16.b, #9
     77c:	2505010f 	cmpge	p15.b, p0/z, z8.b, #5
     780:	01570306 	.inst	0x01570306 ; undefined
     784:	05250f05 	ext	z5.b, z5.b, z24.b, #43
     788:	2024030a 	.inst	0x2024030a ; undefined
     78c:	05241405 	ext	z5.b, z5.b, z0.b, #37
     790:	2e530325 	.inst	0x2e530325 ; undefined
     794:	2e250f05 	uqadd	v5.8b, v24.8b, v5.8b
     798:	03060905 	.inst	0x03060905 ; undefined
     79c:	0d050126 	.inst	0x0d050126 ; undefined
     7a0:	0a050106 	and	w6, w8, w5
     7a4:	06090520 	.inst	0x06090520 ; undefined
     7a8:	06140522 	.inst	0x06140522 ; undefined
     7ac:	2e0a0501 	.inst	0x2e0a0501 ; undefined
     7b0:	21060905 	.inst	0x21060905 ; undefined
     7b4:	4b030605 	sub	w5, w16, w3, lsl #1
     7b8:	27050501 	.inst	0x27050501 ; undefined
     7bc:	05010805 	orr	z5.s, z5.s, #0x80000000
     7c0:	25052023 	cmplt	p3.b, p0/z, z1.b, #5
     7c4:	23050106 	.inst	0x23050106 ; undefined
     7c8:	06050520 	.inst	0x06050520 ; undefined
     7cc:	06140525 	.inst	0x06140525 ; undefined
     7d0:	05012403 	orr	z3.h, z3.h, #0x1000
     7d4:	205c030f 	.inst	0x205c030f ; undefined
     7d8:	06140520 	.inst	0x06140520 ; undefined
     7dc:	05012403 	orr	z3.h, z3.h, #0x1000
     7e0:	0105010f 	.inst	0x0105010f ; undefined
     7e4:	02023506 	.inst	0x02023506 ; undefined
     7e8:	6f010100 	.inst	0x6f010100 ; undefined
     7ec:	0500000a 	orr	z10.s, z10.s, #0x1
     7f0:	2e000800 	ext	v0.8b, v0.8b, v0.8b, #1
     7f4:	04000000 	add	z0.b, p0/m, z0.b, z0.b
     7f8:	0efb0101 	.inst	0x0efb0101 ; undefined
     7fc:	0101000d 	.inst	0x0101000d ; undefined
     800:	00000101 	udf	#257
     804:	00000100 	udf	#256
     808:	1f010101 	fmadd	s1, s8, s1, s0
     80c:	00000002 	udf	#2
     810:	00003100 	udf	#12544
     814:	1f010200 	fmadd	s0, s16, s1, s0
     818:	8a020f02 	and	x2, x24, x2, lsl #3
     81c:	01000000 	.inst	0x01000000 ; undefined
     820:	0000008a 	udf	#138
     824:	00010501 	.inst	0x00010501 ; undefined
     828:	06700209 	.inst	0x06700209 ; undefined
     82c:	00000006 	udf	#6
     830:	05150000 	mov	z0.b, p5/z, #0
     834:	05131305 	mov	z5.b, p3/z, #-104
     838:	01050116 	.inst	0x01050116 ; undefined
     83c:	09051006 	.inst	0x09051006 ; undefined
     840:	21160521 	.inst	0x21160521 ; undefined
     844:	02000905 	.inst	0x02000905 ; undefined
     848:	30060204 	adr	x4, c889 <__bss_size+0xc877>
     84c:	02001005 	.inst	0x02001005 ; undefined
     850:	01060204 	.inst	0x01060204 ; undefined
     854:	02002305 	.inst	0x02002305 ; undefined
     858:	1e060204 	.inst	0x1e060204 ; undefined
     85c:	02001605 	.inst	0x02001605 ; undefined
     860:	00010204 	.inst	0x00010204 ; undefined
     864:	06020402 	.inst	0x06020402 ; undefined
     868:	25010520 	cmpge	p0.b, p1/z, z9.b, #1
     86c:	22061c05 	.inst	0x22061c05 ; undefined
     870:	05130905 	mov	z5.b, p3/z, #72
     874:	3c06010f 	stur	b15, [x8, #96]
     878:	06110520 	.inst	0x06110520 ; undefined
     87c:	05131321 	mov	z1.b, p3/z, #-103
     880:	05100613 	mov	z19.b, p0/z, #48
     884:	0f052212 	.inst	0x0f052212 ; undefined
     888:	13051d06 	sbfx	w6, w8, #5, #3
     88c:	22051306 	.inst	0x22051306 ; undefined
     890:	2601052e 	.inst	0x2601052e ; undefined
     894:	1e060905 	.inst	0x1e060905 ; undefined
     898:	01060b05 	.inst	0x01060b05 ; undefined
     89c:	063e0105 	.inst	0x063e0105 ; undefined
     8a0:	13050531 	sbfiz	w17, w9, #27, #2
     8a4:	14090513 	b	241cf0 <__bss_end+0x1e0770>
     8a8:	01060c05 	.inst	0x01060c05 ; undefined
     8ac:	4c060905 	.inst	0x4c060905 ; undefined
     8b0:	01060a05 	.inst	0x01060a05 ; undefined
     8b4:	1c060b05 	ldr	s5, ca14 <__bss_size+0xca02>
     8b8:	05010505 	orr	z5.h, z5.h, #0x1ff
     8bc:	0c051409 	.inst	0x0c051409 ; undefined
     8c0:	05200106 	ext	z6.b, z6.b, z8.b, #0
     8c4:	09053401 	.inst	0x09053401 ; undefined
     8c8:	05207703 	trn2	z3.b, z24.b, z0.b
     8cc:	05280605 	ext	z5.b, z5.b, z16.b, #65
     8d0:	05130601 	mov	z1.b, p3/z, #48
     8d4:	0530063d 	ext	z29.b, z29.b, z17.b, #129
     8d8:	04051302 	.inst	0x04051302 ; undefined
     8dc:	13050106 	sbfiz	w6, w8, #27, #1
     8e0:	1a053006 	.inst	0x1a053006 ; undefined
     8e4:	13050106 	sbfiz	w6, w8, #27, #1
     8e8:	03053c20 	.inst	0x03053c20 ; undefined
     8ec:	16052f06 	b	fffffffff814c504 <__bss_end+0xfffffffff80eaf84>
     8f0:	13050106 	sbfiz	w6, w8, #27, #1
     8f4:	06210520 	.inst	0x06210520 ; undefined
     8f8:	0113051f 	.inst	0x0113051f ; undefined
     8fc:	02052006 	.inst	0x02052006 ; undefined
     900:	0c053106 	.inst	0x0c053106 ; undefined
     904:	05200106 	ext	z6.b, z6.b, z8.b, #0
     908:	13051301 	sbfiz	w1, w24, #27, #5
     90c:	0602051c 	.inst	0x0602051c ; undefined
     910:	060c0523 	.inst	0x060c0523 ; undefined
     914:	01052001 	.inst	0x01052001 ; undefined
     918:	3c300306 	.inst	0x3c300306 ; undefined
     91c:	13130505 	sbfiz	w5, w8, #13, #2
     920:	060e0514 	.inst	0x060e0514 ; undefined
     924:	017fbe03 	.inst	0x017fbe03 ; undefined
     928:	c2030d05 	.inst	0xc2030d05 ; undefined
     92c:	14052000 	b	14892c <__bss_end+0xe73ac>
     930:	05052006 	.inst	0x05052006 ; undefined
     934:	017fb903 	.inst	0x017fb903 ; undefined
     938:	09051314 	.inst	0x09051314 ; undefined
     93c:	060e0514 	.inst	0x060e0514 ; undefined
     940:	200c0501 	.inst	0x200c0501 ; undefined
     944:	06090520 	.inst	0x06090520 ; undefined
     948:	060a0530 	.inst	0x060a0530 ; undefined
     94c:	060b0501 	.inst	0x060b0501 ; undefined
     950:	0105051c 	.inst	0x0105051c ; undefined
     954:	05140905 	mov	z5.b, p4/z, #72
     958:	2001060c 	.inst	0x2001060c ; undefined
     95c:	33060505 	bfi	w5, w8, #26, #2
     960:	14050106 	b	140d78 <__bss_end+0xdf7f8>
     964:	2e013d03 	.inst	0x2e013d03 ; undefined
     968:	03060905 	.inst	0x03060905 ; undefined
     96c:	0a052e40 	and	w0, w18, w5, lsl #11
     970:	0b050106 	add	w6, w8, w5
     974:	05051c06 	.inst	0x05051c06 ; undefined
     978:	14090501 	b	241d7c <__bss_end+0x1e07fc>
     97c:	01060c05 	.inst	0x01060c05 ; undefined
     980:	06050520 	.inst	0x06050520 ; undefined
     984:	05010633 	orr	z19.b, z19.b, #0x3
     988:	013f031c 	.inst	0x013f031c ; undefined
     98c:	05200e05 	ext	z5.b, z5.b, z16.b, #3
     990:	053d0609 	ext	z9.b, z9.b, z16.b, #233
     994:	7fb60305 	.inst	0x7fb60305 ; undefined
     998:	09051501 	.inst	0x09051501 ; undefined
     99c:	0a051414 	and	w20, w0, w5, lsl #5
     9a0:	0b050106 	add	w6, w8, w5
     9a4:	05051c06 	.inst	0x05051c06 ; undefined
     9a8:	14090501 	b	241dac <__bss_end+0x1e082c>
     9ac:	01060c05 	.inst	0x01060c05 ; undefined
     9b0:	06050520 	.inst	0x06050520 ; undefined
     9b4:	05010633 	orr	z19.b, z19.b, #0x3
     9b8:	00c00315 	.inst	0x00c00315 ; undefined
     9bc:	201e0501 	.inst	0x201e0501 ; undefined
     9c0:	06090520 	.inst	0x06090520 ; undefined
     9c4:	0626052f 	.inst	0x0626052f ; undefined
     9c8:	240e050e 	cmphs	p14.b, p1/z, z8.b, z14.b
     9cc:	1c062605 	ldr	s5, ce8c <__bss_size+0xce7a>
     9d0:	05011405 	orr	z5.h, z5.h, #0x4000
     9d4:	7fb90305 	.inst	0x7fb90305 ; undefined
     9d8:	05131401 	mov	z1.b, p3/z, #-96
     9dc:	0c051409 	.inst	0x0c051409 ; undefined
     9e0:	05200106 	ext	z6.b, z6.b, z8.b, #0
     9e4:	00c80301 	.inst	0x00c80301 ; undefined
     9e8:	4b030601 	sub	w1, w16, w3, lsl #1
     9ec:	1305053c 	sbfiz	w28, w9, #27, #2
     9f0:	06010513 	.inst	0x06010513 ; undefined
     9f4:	060c0510 	.inst	0x060c0510 ; undefined
     9f8:	06010522 	.inst	0x06010522 ; undefined
     9fc:	220c0510 	.inst	0x220c0510 ; undefined
     a00:	052f1705 	ext	z5.b, z5.b, z24.b, #125
     a04:	17051f0c 	b	fffffffffc148634 <__bss_end+0xfffffffffc0e70b4>
     a08:	06090521 	.inst	0x06090521 ; undefined
     a0c:	0617052e 	.inst	0x0617052e ; undefined
     a10:	200e0501 	.inst	0x200e0501 ; undefined
     a14:	05201705 	ext	z5.b, z5.b, z24.b, #5
     a18:	1d054b0b 	.inst	0x1d054b0b ; undefined
     a1c:	2012051f 	.inst	0x2012051f ; undefined
     a20:	21060905 	.inst	0x21060905 ; undefined
     a24:	06100c05 	.inst	0x06100c05 ; undefined
     a28:	03080520 	.inst	0x03080520 ; undefined
     a2c:	0e05200a 	tbl	v10.8b, {v0.16b, v1.16b}, v5.8b
     a30:	12051d06 	and	w6, w8, #0xf8000007
     a34:	09053d06 	.inst	0x09053d06 ; undefined
     a38:	12052006 	and	w6, w0, #0xf800000f
     a3c:	0e050106 	tbl	v6.8b, {v8.16b}, v5.8b
     a40:	20061f06 	.inst	0x20061f06 ; undefined
     a44:	05310805 	ext	z5.b, z5.b, z0.b, #138
     a48:	05200605 	ext	z5.b, z5.b, z16.b, #1
     a4c:	0501060c 	orr	z12.b, z12.b, #0x1
     a50:	05210605 	ext	z5.b, z5.b, z16.b, #9
     a54:	74030609 	.inst	0x74030609 ; undefined
     a58:	06010520 	.inst	0x06010520 ; undefined
     a5c:	052e1103 	ext	z3.b, z3.b, z8.b, #116
     a60:	09051405 	.inst	0x09051405 ; undefined
     a64:	05050106 	.inst	0x05050106 ; undefined
     a68:	05152306 	.inst	0x05152306 ; undefined
     a6c:	01650306 	.inst	0x01650306 ; undefined
     a70:	05150c05 	mov	z5.b, p5/z, #96
     a74:	10030601 	adr	x1, 6b34 <__bss_size+0x6b22>
     a78:	030c0501 	.inst	0x030c0501 ; undefined
     a7c:	17053c70 	b	fffffffffc14fc3c <__bss_end+0xfffffffffc0ee6bc>
     a80:	1f0c0521 	fmadd	s1, s9, s12, s1
     a84:	053d1705 	ext	z5.b, z5.b, z24.b, #237
     a88:	052e0609 	ext	z9.b, z9.b, z16.b, #113
     a8c:	05010617 	orr	z23.b, z23.b, #0x1
     a90:	1705200e 	b	fffffffffc148ac8 <__bss_end+0xfffffffffc0e7548>
     a94:	4b0b0520 	sub	w0, w9, w11, lsl #1
     a98:	051f1d05 	mov	z5.b, p15/z, #-24
     a9c:	09052012 	.inst	0x09052012 ; undefined
     aa0:	0c052106 	.inst	0x0c052106 ; undefined
     aa4:	05200610 	ext	z16.b, z16.b, z16.b, #1
     aa8:	200a0308 	.inst	0x200a0308 ; undefined
     aac:	1d060e05 	.inst	0x1d060e05 ; undefined
     ab0:	05150505 	mov	z5.b, p5/z, #40
     ab4:	0501060c 	orr	z12.b, z12.b, #0x1
     ab8:	06210605 	.inst	0x06210605 ; undefined
     abc:	5e030620 	mov	b0, v17.b[1]
     ac0:	14090501 	b	241ec4 <__bss_end+0x1e0944>
     ac4:	01060c05 	.inst	0x01060c05 ; undefined
     ac8:	4c060905 	.inst	0x4c060905 ; undefined
     acc:	050e0b05 	.inst	0x050e0b05 ; undefined
     ad0:	09050105 	.inst	0x09050105 ; undefined
     ad4:	060c0514 	.inst	0x060c0514 ; undefined
     ad8:	0505202e 	.inst	0x0505202e ; undefined
     adc:	01063306 	.inst	0x01063306 ; undefined
     ae0:	012c0306 	.inst	0x012c0306 ; undefined
     ae4:	01060805 	.inst	0x01060805 ; undefined
     ae8:	79031705 	strh	w5, [x24, #394]
     aec:	2810053c 	stnp	w28, w1, [x9, #128]
     af0:	78030b05 	sttrh	w5, [x24, #48]
     af4:	0609052e 	.inst	0x0609052e ; undefined
     af8:	05051728 	.inst	0x05051728 ; undefined
     afc:	017fb003 	.inst	0x017fb003 ; undefined
     b00:	16051314 	b	fffffffff8145750 <__bss_end+0xfffffffff80e41d0>
     b04:	06090501 	.inst	0x06090501 ; undefined
     b08:	0531062d 	ext	z13.b, z13.b, z17.b, #137
     b0c:	05010610 	orr	z16.b, z16.b, #0x1
     b10:	10051e16 	adr	x22, aed0 <__bss_size+0xaebe>
     b14:	06230522 	.inst	0x06230522 ; undefined
     b18:	0116051e 	.inst	0x0116051e ; undefined
     b1c:	03061705 	.inst	0x03061705 ; undefined
     b20:	052000cd 	ext	z13.b, z13.b, z6.b, #0
     b24:	0505200f 	.inst	0x0505200f ; undefined
     b28:	7fb70306 	.inst	0x7fb70306 ; undefined
     b2c:	05010620 	orr	z0.b, z0.b, #0x3
     b30:	cb030609 	sub	x9, x16, x3, lsl #1
     b34:	22050100 	.inst	0x22050100 ; undefined
     b38:	09052006 	.inst	0x09052006 ; undefined
     b3c:	06060520 	.inst	0x06060520 ; undefined
     b40:	05205903 	.inst	0x05205903 ; undefined
     b44:	1705150c 	b	fffffffffc145f74 <__bss_end+0xfffffffffc0e49f4>
     b48:	0c052f06 	.inst	0x0c052f06 ; undefined
     b4c:	2117051f 	.inst	0x2117051f ; undefined
     b50:	20060905 	.inst	0x20060905 ; undefined
     b54:	01061705 	.inst	0x01061705 ; undefined
     b58:	05200e05 	ext	z5.b, z5.b, z16.b, #3
     b5c:	0b052017 	add	w23, w0, w5, lsl #8
     b60:	1f1d054b 	fmadd	s11, s10, s29, s1
     b64:	05201205 	ext	z5.b, z5.b, z16.b, #4
     b68:	05210609 	ext	z9.b, z9.b, z16.b, #9
     b6c:	0805100c 	stxrb	w5, w12, [x0]
     b70:	2e0a0306 	ext	v6.8b, v24.8b, v10.8b, #0
     b74:	1d060e05 	.inst	0x1d060e05 ; undefined
     b78:	2f061205 	.inst	0x2f061205 ; undefined
     b7c:	2e060905 	ext	v5.8b, v8.8b, v6.8b, #1
     b80:	01061205 	.inst	0x01061205 ; undefined
     b84:	1f060e05 	fmadd	s5, s16, s6, s3
     b88:	08052006 	stxrb	w5, w6, [x0]
     b8c:	06050531 	.inst	0x06050531 ; undefined
     b90:	060c0520 	.inst	0x060c0520 ; undefined
     b94:	06050501 	.inst	0x06050501 ; undefined
     b98:	06010521 	.inst	0x06010521 ; undefined
     b9c:	05201b03 	ext	z3.b, z3.b, z24.b, #6
     ba0:	20650305 	.inst	0x20650305 ; undefined
     ba4:	030c0520 	.inst	0x030c0520 ; undefined
     ba8:	08050160 	stxrb	w5, w0, [x11]
     bac:	05203103 	tbl	z3.b, {z8.b}, z0.b
     bb0:	204f0311 	.inst	0x204f0311 ; undefined
     bb4:	25060505 	cmpge	p5.b, p1/z, z8.b, #6
     bb8:	03060106 	.inst	0x03060106 ; undefined
     bbc:	0805012c 	stxrb	w5, w12, [x9]
     bc0:	01050106 	.inst	0x01050106 ; undefined
     bc4:	05200a03 	ext	z3.b, z3.b, z16.b, #2
     bc8:	5b032c09 	.inst	0x5b032c09 ; undefined
     bcc:	0c052e20 	.inst	0x0c052e20 ; undefined
     bd0:	01052013 	.inst	0x01052013 ; undefined
     bd4:	20360306 	.inst	0x20360306 ; undefined
     bd8:	14130505 	b	4c1fec <__bss_end+0x460a6c>
     bdc:	13131313 	sbfiz	w19, w24, #13, #5
     be0:	03060105 	.inst	0x03060105 ; undefined
     be4:	0d050179 	.inst	0x0d050179 ; undefined
     be8:	053c2803 	tbl	z3.b, {z0.b, z1.b}, z28.b
     bec:	2e580301 	.inst	0x2e580301 ; undefined
     bf0:	ac031005 	stnp	q5, q4, [x0, #96]
     bf4:	0105207f 	.inst	0x0105207f ; undefined
     bf8:	2000d403 	.inst	0x2000d403 ; undefined
     bfc:	ac031005 	stnp	q5, q4, [x0, #96]
     c00:	0105207f 	.inst	0x0105207f ; undefined
     c04:	2000d403 	.inst	0x2000d403 ; undefined
     c08:	052f1d05 	ext	z5.b, z5.b, z8.b, #127
     c0c:	05051f01 	.inst	0x05051f01 ; undefined
     c10:	2e090306 	ext	v6.8b, v24.8b, v9.8b, #0
     c14:	13130905 	sbfiz	w5, w8, #13, #3
     c18:	010d0514 	.inst	0x010d0514 ; undefined
     c1c:	05011605 	orr	z5.b, z5.b, #0x40
     c20:	1f2c0613 	fnmadd	s19, s16, s12, s1
     c24:	02001105 	.inst	0x02001105 ; undefined
     c28:	33060104 	bfi	w4, w8, #26, #1
     c2c:	02003d05 	.inst	0x02003d05 ; undefined
     c30:	11060104 	add	w4, w8, #0x180
     c34:	02003405 	.inst	0x02003405 ; undefined
     c38:	052e0104 	ext	z4.b, z4.b, z8.b, #112
     c3c:	27052f3c 	.inst	0x27052f3c ; undefined
     c40:	1f160525 	fmadd	s5, s9, s22, s1
     c44:	051c2e05 	.inst	0x051c2e05 ; undefined
     c48:	1b052416 	madd	w22, w0, w5, w9
     c4c:	060d051c 	.inst	0x060d051c ; undefined
     c50:	15110524 	b	44420e0 <__bss_end+0x43e0b60>
     c54:	1d060f05 	.inst	0x1d060f05 ; undefined
     c58:	02001105 	.inst	0x02001105 ; undefined
     c5c:	2f060104 	.inst	0x2f060104 ; undefined
     c60:	02003d05 	.inst	0x02003d05 ; undefined
     c64:	11060104 	add	w4, w8, #0x180
     c68:	02003405 	.inst	0x02003405 ; undefined
     c6c:	052e0104 	ext	z4.b, z4.b, z8.b, #112
     c70:	16052f3c 	b	fffffffff814c960 <__bss_end+0xfffffffff80eb3e0>
     c74:	05207903 	.inst	0x05207903 ; undefined
     c78:	1b05272e 	madd	w14, w25, w5, w9
     c7c:	061a0520 	.inst	0x061a0520 ; undefined
     c80:	05207903 	.inst	0x05207903 ; undefined
     c84:	0d050116 	.inst	0x0d050116 ; undefined
     c88:	1511052f 	b	4442144 <__bss_end+0x43e0bc4>
     c8c:	0f061605 	orr	v5.2s, #0xd0
     c90:	05212705 	.inst	0x05212705 ; undefined
     c94:	0f051f16 	.inst	0x0f051f16 ; undefined
     c98:	313c0520 	adds	w0, w9, #0xf01
     c9c:	20232705 	.inst	0x20232705 ; undefined
     ca0:	051d2e05 	.inst	0x051d2e05 ; undefined
     ca4:	1b052216 	madd	w22, w16, w5, w8
     ca8:	060d051e 	.inst	0x060d051e ; undefined
     cac:	15110522 	b	4442134 <__bss_end+0x43e0bb4>
     cb0:	0f061605 	orr	v5.2s, #0xd0
     cb4:	05200f05 	ext	z5.b, z5.b, z24.b, #3
     cb8:	1605313c 	b	fffffffff814d1a8 <__bss_end+0xfffffffff80ebc28>
     cbc:	05207703 	trn2	z3.b, z24.b, z0.b
     cc0:	2009032e 	.inst	0x2009032e ; undefined
     cc4:	05201b05 	ext	z5.b, z5.b, z24.b, #6
     cc8:	7703061a 	.inst	0x7703061a ; undefined
     ccc:	01160520 	.inst	0x01160520 ; undefined
     cd0:	09052e06 	.inst	0x09052e06 ; undefined
     cd4:	010c0306 	.inst	0x010c0306 ; undefined
     cd8:	01061305 	.inst	0x01061305 ; undefined
     cdc:	22060905 	.inst	0x22060905 ; undefined
     ce0:	01060b05 	.inst	0x01060b05 ; undefined
     ce4:	2f060d05 	.inst	0x2f060d05 ; undefined
     ce8:	01062a05 	.inst	0x01062a05 ; undefined
     cec:	053c1d05 	ext	z5.b, z5.b, z8.b, #231
     cf0:	09052017 	.inst	0x09052017 ; undefined
     cf4:	0b052206 	add	w6, w16, w5, lsl #8
     cf8:	0d050106 	.inst	0x0d050106 ; undefined
     cfc:	2a052f06 	orr	w6, w24, w5, lsl #11
     d00:	1d050106 	.inst	0x1d050106 ; undefined
     d04:	2017053c 	.inst	0x2017053c ; undefined
     d08:	22060905 	.inst	0x22060905 ; undefined
     d0c:	03060f05 	.inst	0x03060f05 ; undefined
     d10:	05017f86 	orr	z6.b, z6.b, #0xaa
     d14:	00fa0312 	.inst	0x00fa0312 ; undefined
     d18:	06090520 	.inst	0x06090520 ; undefined
     d1c:	03050522 	.inst	0x03050522 ; undefined
     d20:	05017f83 	orr	z3.b, z3.b, #0xaa
     d24:	1005130f 	adr	x15, af84 <__bss_size+0xaf72>
     d28:	0f052506 	movi	v6.2s, #0xa8, lsl #8
     d2c:	2510051b 	cmpgt	p11.b, p1/z, z8.b, #-16
     d30:	4a1b0f05 	eor	w5, w24, w27, lsl #3
     d34:	05331005 	ext	z5.b, z5.b, z0.b, #156
     d38:	11051b0f 	add	w15, w24, #0x146
     d3c:	13132106 	sbfiz	w6, w8, #13, #9
     d40:	050f0f05 	.inst	0x050f0f05 ; undefined
     d44:	2e130613 	.inst	0x2e130613 ; undefined
     d48:	4a1f0f05 	eor	w5, w24, wzr, lsl #3
     d4c:	05331005 	ext	z5.b, z5.b, z0.b, #156
     d50:	11051b0f 	add	w15, w24, #0x146
     d54:	13132106 	sbfiz	w6, w8, #13, #9
     d58:	050f0f05 	.inst	0x050f0f05 ; undefined
     d5c:	2e130613 	.inst	0x2e130613 ; undefined
     d60:	02002705 	.inst	0x02002705 ; undefined
     d64:	fe030104 	.inst	0xfe030104 ; undefined
     d68:	02000100 	.inst	0x02000100 ; undefined
     d6c:	053c0104 	ext	z4.b, z4.b, z8.b, #224
     d70:	7f81030f 	.inst	0x7f81030f ; undefined
     d74:	11052001 	add	w1, w0, #0x148
     d78:	13132106 	sbfiz	w6, w8, #13, #9
     d7c:	10061305 	adr	x5, cfdc <__bss_size+0xcfca>
     d80:	05221205 	ext	z5.b, z5.b, z16.b, #20
     d84:	051d060f 	mov	z15.b, p13/z, #48
     d88:	2e130613 	.inst	0x2e130613 ; undefined
     d8c:	03060905 	.inst	0x03060905 ; undefined
     d90:	0501018a 	orr	z10.s, z10.s, #0x1fff
     d94:	0501061d 	orr	z29.b, z29.b, #0x1
     d98:	0a052010 	and	w16, w0, w5, lsl #8
     d9c:	20570306 	.inst	0x20570306 ; undefined
     da0:	13061305 	sbfiz	w5, w24, #26, #5
     da4:	03060f05 	.inst	0x03060f05 ; undefined
     da8:	06207f9d 	.inst	0x06207f9d ; undefined
     dac:	03270501 	.inst	0x03270501 ; undefined
     db0:	050100ff 	orr	z31.s, z31.s, #0xff
     db4:	2f2f060d 	ushr	v13.2s, v16.2s, #17
     db8:	05300905 	ext	z5.b, z5.b, z8.b, #130
     dbc:	7efc0305 	.inst	0x7efc0305 ; undefined
     dc0:	130f0501 	sbfiz	w1, w8, #17, #2
     dc4:	09052e06 	.inst	0x09052e06 ; undefined
     dc8:	018b0306 	.inst	0x018b0306 ; undefined
     dcc:	061d0501 	.inst	0x061d0501 ; undefined
     dd0:	20100501 	.inst	0x20100501 ; undefined
     dd4:	03060a05 	.inst	0x03060a05 ; undefined
     dd8:	09052057 	.inst	0x09052057 ; undefined
     ddc:	207fa303 	.inst	0x207fa303 ; undefined
     de0:	03062a05 	.inst	0x03062a05 ; undefined
     de4:	050100fe 	orr	z30.s, z30.s, #0xff
     de8:	054b061b 	.inst	0x054b061b ; undefined
     dec:	582f0630 	ldr	x16, 5eeb0 <__bss_size+0x5ee9e>
     df0:	2e061105 	ext	v5.8b, v8.8b, v6.8b, #2
     df4:	01061b05 	.inst	0x01061b05 ; undefined
     df8:	06201105 	.inst	0x06201105 ; undefined
     dfc:	061c052f 	.inst	0x061c052f ; undefined
     e00:	06050501 	.inst	0x06050501 ; undefined
     e04:	207ef903 	.inst	0x207ef903 ; undefined
     e08:	05130f05 	mov	z5.b, p3/z, #120
     e0c:	8603061c 	.inst	0x8603061c ; undefined
     e10:	0f050101 	.inst	0x0f050101 ; undefined
     e14:	207efa03 	.inst	0x207efa03 ; undefined
     e18:	11052e3c 	add	w28, w17, #0x14b
     e1c:	05132f06 	.inst	0x05132f06 ; undefined
     e20:	05110613 	mov	z19.b, p1/z, #48
     e24:	05300611 	ext	z17.b, z17.b, z16.b, #129
     e28:	05010612 	orr	z18.b, z18.b, #0x1
     e2c:	051d060f 	mov	z15.b, p13/z, #48
     e30:	2e130613 	.inst	0x2e130613 ; undefined
     e34:	02002805 	.inst	0x02002805 ; undefined
     e38:	03060204 	.inst	0x03060204 ; undefined
     e3c:	05010183 	orr	z3.s, z3.s, #0x1fff
     e40:	0402001b 	.inst	0x0402001b ; undefined
     e44:	02000102 	.inst	0x02000102 ; undefined
     e48:	20060204 	.inst	0x20060204 ; undefined
     e4c:	02040200 	.inst	0x02040200 ; undefined
     e50:	1614052e 	b	fffffffff8502308 <__bss_end+0xfffffffff84a0d88>
     e54:	20260105 	.inst	0x20260105 ; undefined
     e58:	0905202e 	.inst	0x0905202e ; undefined
     e5c:	7ef70306 	.inst	0x7ef70306 ; undefined
     e60:	060b052e 	.inst	0x060b052e ; undefined
     e64:	03140501 	.inst	0x03140501 ; undefined
     e68:	052000f8 	ext	z24.b, z24.b, z7.b, #0
     e6c:	20110301 	.inst	0x20110301 ; undefined
     e70:	05202e20 	tbx	z0.b, z17.b, z0.b
     e74:	f7030609 	.inst	0xf7030609 ; undefined
     e78:	0b052e7e 	add	w30, w19, w5, lsl #11
     e7c:	05200106 	ext	z6.b, z6.b, z8.b, #0
     e80:	00fa0327 	.inst	0x00fa0327 ; undefined
     e84:	030f0501 	.inst	0x030f0501 ; undefined
     e88:	052e7f81 	.inst	0x052e7f81 ; undefined
     e8c:	05330609 	ext	z9.b, z9.b, z16.b, #153
     e90:	0501060b 	orr	z11.b, z11.b, #0x1
     e94:	0402003d 	.inst	0x0402003d ; undefined
     e98:	81030601 	.inst	0x81030601 ; undefined
     e9c:	1b052e01 	madd	w1, w16, w5, w11
     ea0:	01040200 	.inst	0x01040200 ; undefined
     ea4:	3d051e06 	str	b6, [x16, #327]
     ea8:	01040200 	.inst	0x01040200 ; undefined
     eac:	00280522 	.inst	0x00280522 ; NYI
     eb0:	06010402 	.inst	0x06010402 ; undefined
     eb4:	001b051e 	.inst	0x001b051e ; undefined
     eb8:	01010402 	.inst	0x01010402 ; undefined
     ebc:	0c031a05 	.inst	0x0c031a05 ; undefined
     ec0:	1302053c 	sbfiz	w28, w9, #30, #2
     ec4:	01060513 	.inst	0x01060513 ; undefined
     ec8:	05011305 	orr	z5.s, z5.s, #0xc07fffff
     ecc:	05051303 	.inst	0x05051303 ; undefined
     ed0:	19050106 	stlurb	w6, [x8, #80]
     ed4:	13053b06 	sbfx	w6, w24, #5, #10
     ed8:	13030501 	sbfiz	w1, w8, #29, #2
     edc:	01060505 	.inst	0x01060505 ; undefined
     ee0:	3b061905 	.inst	0x3b061905 ; undefined
     ee4:	05011305 	orr	z5.s, z5.s, #0xc07fffff
     ee8:	05051303 	.inst	0x05051303 ; undefined
     eec:	05200106 	ext	z6.b, z6.b, z8.b, #0
     ef0:	21053101 	.inst	0x21053101 ; undefined
     ef4:	0105201d 	.inst	0x0105201d ; undefined
     ef8:	06190515 	.inst	0x06190515 ; undefined
     efc:	13050522 	sbfiz	w2, w9, #27, #2
     f00:	017ef003 	.inst	0x017ef003 ; undefined
     f04:	09051314 	.inst	0x09051314 ; undefined
     f08:	06190514 	.inst	0x06190514 ; undefined
     f0c:	01018a03 	.inst	0x01018a03 ; undefined
     f10:	f6030c05 	.inst	0xf6030c05 ; undefined
     f14:	05583c7e 	mov	z30.h, p8/z, #-7424
     f18:	05220609 	ext	z9.b, z9.b, z16.b, #17
     f1c:	0501060a 	orr	z10.b, z10.b, #0x1
     f20:	051c060b 	mov	z11.b, p12/z, #48
     f24:	09050105 	.inst	0x09050105 ; undefined
     f28:	060c0514 	.inst	0x060c0514 ; undefined
     f2c:	05052001 	.inst	0x05052001 ; undefined
     f30:	01063306 	.inst	0x01063306 ; undefined
     f34:	01870306 	.inst	0x01870306 ; undefined
     f38:	13131401 	sbfiz	w1, w0, #13, #6
     f3c:	05131313 	mov	z19.b, p3/z, #-104
     f40:	0501060a 	orr	z10.b, z10.b, #0x1
     f44:	053d0605 	ext	z5.b, z5.b, z16.b, #233
     f48:	7ef40306 	.inst	0x7ef40306 ; undefined
     f4c:	13020501 	sbfiz	w1, w8, #30, #2
     f50:	01060405 	.inst	0x01060405 ; undefined
     f54:	4d060305 	.inst	0x4d060305 ; undefined
     f58:	01061305 	.inst	0x01061305 ; undefined
     f5c:	0521202d 	mov	z13.b, b1
     f60:	051f0621 	mov	z1.b, p15/z, #49
     f64:	02050113 	.inst	0x02050113 ; undefined
     f68:	06210531 	.inst	0x06210531 ; undefined
     f6c:	0c052e0f 	.inst	0x0c052e0f ; undefined
     f70:	10052023 	adr	x3, b374 <__bss_size+0xb362>
     f74:	05016903 	orr	z3.s, z3.s, #0xff80000
     f78:	01b5031d 	.inst	0x01b5031d ; undefined
     f7c:	0605053c 	.inst	0x0605053c ; undefined
     f80:	052e6c03 	uzp2	z3.b, z0.b, z14.b
     f84:	14131309 	b	4c5ba8 <__bss_end+0x464628>
     f88:	05010d05 	orr	z5.h, z5.h, #0x80ff
     f8c:	13050116 	sbfiz	w22, w8, #27, #1
     f90:	051f2c06 	.inst	0x051f2c06 ; undefined
     f94:	04020011 	.inst	0x04020011 ; undefined
     f98:	05330601 	ext	z1.b, z1.b, z16.b, #153
     f9c:	0402003d 	.inst	0x0402003d ; undefined
     fa0:	05110601 	mov	z1.b, p1/z, #48
     fa4:	04020034 	.inst	0x04020034 ; undefined
     fa8:	3c052e01 	str	b1, [x16, #82]!
     fac:	2527052f 	whilelt	p15.b, w9, w7
     fb0:	1b2e0520 	.inst	0x1b2e0520 ; undefined
     fb4:	05241605 	ext	z5.b, z5.b, z16.b, #37
     fb8:	0d051c1b 	.inst	0x0d051c1b ; undefined
     fbc:	11052406 	add	w6, w0, #0x149
     fc0:	06160515 	.inst	0x06160515 ; undefined
     fc4:	200f050f 	.inst	0x200f050f ; undefined
     fc8:	02001105 	.inst	0x02001105 ; undefined
     fcc:	2f060104 	.inst	0x2f060104 ; undefined
     fd0:	02003d05 	.inst	0x02003d05 ; undefined
     fd4:	11060104 	add	w4, w8, #0x180
     fd8:	02003405 	.inst	0x02003405 ; undefined
     fdc:	052e0104 	ext	z4.b, z4.b, z8.b, #112
     fe0:	16052f3c 	b	fffffffff814ccd0 <__bss_end+0xfffffffff80eb750>
     fe4:	05207903 	.inst	0x05207903 ; undefined
     fe8:	1b05272e 	madd	w14, w25, w5, w9
     fec:	061a0520 	.inst	0x061a0520 ; undefined
     ff0:	05207903 	.inst	0x05207903 ; undefined
     ff4:	0d050116 	.inst	0x0d050116 ; undefined
     ff8:	1511052f 	b	44424b4 <__bss_end+0x43e0f34>
     ffc:	0f061605 	orr	v5.2s, #0xd0
    1000:	05212705 	.inst	0x05212705 ; undefined
    1004:	0f051f16 	.inst	0x0f051f16 ; undefined
    1008:	313c0520 	adds	w0, w9, #0xf01
    100c:	20232705 	.inst	0x20232705 ; undefined
    1010:	051d2e05 	.inst	0x051d2e05 ; undefined
    1014:	1b052216 	madd	w22, w16, w5, w8
    1018:	060d051e 	.inst	0x060d051e ; undefined
    101c:	15110522 	b	44424a4 <__bss_end+0x43e0f24>
    1020:	0f061605 	orr	v5.2s, #0xd0
    1024:	05200f05 	ext	z5.b, z5.b, z24.b, #3
    1028:	1605313c 	b	fffffffff814d518 <__bss_end+0xfffffffff80ebf98>
    102c:	05207703 	trn2	z3.b, z24.b, z0.b
    1030:	2009032e 	.inst	0x2009032e ; undefined
    1034:	05201b05 	ext	z5.b, z5.b, z24.b, #6
    1038:	7703061a 	.inst	0x7703061a ; undefined
    103c:	01160520 	.inst	0x01160520 ; undefined
    1040:	02052e06 	.inst	0x02052e06 ; undefined
    1044:	010d0306 	.inst	0x010d0306 ; undefined
    1048:	01060c05 	.inst	0x01060c05 ; undefined
    104c:	22060905 	.inst	0x22060905 ; undefined
    1050:	01060b05 	.inst	0x01060b05 ; undefined
    1054:	2f060d05 	.inst	0x2f060d05 ; undefined
    1058:	01062a05 	.inst	0x01062a05 ; undefined
    105c:	053c1d05 	ext	z5.b, z5.b, z8.b, #231
    1060:	09052017 	.inst	0x09052017 ; undefined
    1064:	0b052206 	add	w6, w16, w5, lsl #8
    1068:	0d050106 	.inst	0x0d050106 ; undefined
    106c:	2a052f06 	orr	w6, w24, w5, lsl #11
    1070:	1d050106 	.inst	0x1d050106 ; undefined
    1074:	2017053c 	.inst	0x2017053c ; undefined
    1078:	22060905 	.inst	0x22060905 ; undefined
    107c:	03060f05 	.inst	0x03060f05 ; undefined
    1080:	05017ec1 	orr	z1.b, z1.b, #0xfe
    1084:	01bf0312 	.inst	0x01bf0312 ; undefined
    1088:	06020520 	.inst	0x06020520 ; undefined
    108c:	03050522 	.inst	0x03050522 ; undefined
    1090:	05017ebe 	orr	z30.b, z30.b, #0x7e
    1094:	6606130f 	.inst	0x6606130f ; undefined
    1098:	05331005 	ext	z5.b, z5.b, z0.b, #156
    109c:	11051b0f 	add	w15, w24, #0x146
    10a0:	13132106 	sbfiz	w6, w8, #13, #9
    10a4:	050f0f05 	.inst	0x050f0f05 ; undefined
    10a8:	05130613 	mov	z19.b, p3/z, #48
    10ac:	052e320b 	tbl	z11.b, {z16.b}, z14.b
    10b0:	05200d0f 	ext	z15.b, z15.b, z8.b, #3
    10b4:	13210611 	.inst	0x13210611 ; undefined
    10b8:	06130513 	.inst	0x06130513 ; undefined
    10bc:	22120510 	.inst	0x22120510 ; undefined
    10c0:	1d060f05 	.inst	0x1d060f05 ; undefined
    10c4:	13061305 	sbfiz	w5, w24, #26, #5
    10c8:	0609052e 	.inst	0x0609052e ; undefined
    10cc:	0101cf03 	.inst	0x0101cf03 ; undefined
    10d0:	01061d05 	.inst	0x01061d05 ; undefined
    10d4:	05201005 	ext	z5.b, z5.b, z0.b, #4
    10d8:	5603060a 	.inst	0x5603060a ; undefined
    10dc:	06130520 	.inst	0x06130520 ; undefined
    10e0:	030f0513 	.inst	0x030f0513 ; undefined
    10e4:	2e207ed9 	uaba	v25.8b, v22.8b, v0.8b
    10e8:	17060905 	b	fffffffffc1834fc <__bss_end+0xfffffffffc121f7c>
    10ec:	01060b05 	.inst	0x01060b05 ; undefined
    10f0:	061b052e 	.inst	0x061b052e ; undefined
    10f4:	0101c403 	.inst	0x0101c403 ; undefined
    10f8:	2f063005 	.inst	0x2f063005 ; undefined
    10fc:	06110520 	.inst	0x06110520 ; undefined
    1100:	061b0558 	.inst	0x061b0558 ; undefined
    1104:	20110501 	.inst	0x20110501 ; undefined
    1108:	1c052f06 	ldr	s6, b6e8 <__bss_size+0xb6d6>
    110c:	05050106 	.inst	0x05050106 ; undefined
    1110:	7eb40306 	.inst	0x7eb40306 ; undefined
    1114:	130f0520 	sbfiz	w0, w9, #17, #2
    1118:	03061c05 	.inst	0x03061c05 ; undefined
    111c:	050101cb 	orr	z11.s, z11.s, #0x7fff
    1120:	7eb5030f 	.inst	0x7eb5030f ; undefined
    1124:	052e3c20 	.inst	0x052e3c20 ; undefined
    1128:	132f0611 	.inst	0x132f0611 ; undefined
    112c:	11061305 	add	w5, w24, #0x184
    1130:	30061105 	adr	x5, d351 <__bss_size+0xd33f>
    1134:	01061205 	.inst	0x01061205 ; undefined
    1138:	1d060f05 	.inst	0x1d060f05 ; undefined
    113c:	13061305 	sbfiz	w5, w24, #26, #5
    1140:	0028052e 	.inst	0x0028052e ; NYI
    1144:	06020402 	.inst	0x06020402 ; undefined
    1148:	0101c803 	.inst	0x0101c803 ; undefined
    114c:	02001b05 	.inst	0x02001b05 ; undefined
    1150:	00010204 	.inst	0x00010204 ; undefined
    1154:	06020402 	.inst	0x06020402 ; undefined
    1158:	04020020 	.inst	0x04020020 ; undefined
    115c:	01052e02 	.inst	0x01052e02 ; undefined
    1160:	05010903 	orr	z3.s, z3.s, #0x800000ff
    1164:	b3030609 	.inst	0xb3030609 ; undefined
    1168:	0b053c7e 	add	w30, w3, w5, lsl #15
    116c:	05200106 	ext	z6.b, z6.b, z8.b, #0
    1170:	bd030606 	str	s6, [x16, #772]
    1174:	07050101 	.inst	0x07050101 ; undefined
    1178:	2f0a053d 	ushr	v29.8b, v9.8b, #6
    117c:	053d0605 	ext	z5.b, z5.b, z16.b, #233
    1180:	0d030601 	.inst	0x0d030601 ; undefined
    1184:	030f0501 	.inst	0x030f0501 ; undefined
    1188:	053c7eae 	.inst	0x053c7eae ; undefined
    118c:	05250609 	ext	z9.b, z9.b, z16.b, #41
    1190:	0501060b 	orr	z11.b, z11.b, #0x1
    1194:	0402003d 	.inst	0x0402003d ; undefined
    1198:	c6030601 	.inst	0xc6030601 ; undefined
    119c:	1b052e01 	madd	w1, w16, w5, w11
    11a0:	01040200 	.inst	0x01040200 ; undefined
    11a4:	3d051e06 	str	b6, [x16, #327]
    11a8:	01040200 	.inst	0x01040200 ; undefined
    11ac:	00280522 	.inst	0x00280522 ; NYI
    11b0:	06010402 	.inst	0x06010402 ; undefined
    11b4:	001b051e 	.inst	0x001b051e ; undefined
    11b8:	01010402 	.inst	0x01010402 ; undefined
    11bc:	01040200 	.inst	0x01040200 ; undefined
    11c0:	05053c06 	.inst	0x05053c06 ; undefined
    11c4:	7eca0306 	.inst	0x7eca0306 ; undefined
    11c8:	06010601 	.inst	0x06010601 ; undefined
    11cc:	01018703 	.inst	0x01018703 ; undefined
    11d0:	13131314 	sbfiz	w20, w24, #13, #5
    11d4:	0a051313 	and	w19, w24, w5, lsl #4
    11d8:	05052006 	.inst	0x05052006 ; undefined
    11dc:	06052f06 	.inst	0x06052f06 ; undefined
    11e0:	017ef403 	.inst	0x017ef403 ; undefined
    11e4:	05130205 	mov	z5.b, p3/z, #16
    11e8:	01bd0319 	.inst	0x01bd0319 ; undefined
    11ec:	3c010620 	str	b0, [x17], #16
    11f0:	21060505 	.inst	0x21060505 ; undefined
    11f4:	09051313 	.inst	0x09051313 ; undefined
    11f8:	060d0513 	.inst	0x060d0513 ; undefined
    11fc:	200b0501 	.inst	0x200b0501 ; undefined
    1200:	21060905 	.inst	0x21060905 ; undefined
    1204:	11060d05 	add	w5, w8, #0x183
    1208:	05220905 	ext	z5.b, z5.b, z8.b, #18
    120c:	052e1f18 	ext	z24.b, z24.b, z24.b, #119
    1210:	06210609 	.inst	0x06210609 ; undefined
    1214:	060e0520 	.inst	0x060e0520 ; undefined
    1218:	0d050513 	.inst	0x0d050513 ; undefined
    121c:	13090513 	sbfiz	w19, w8, #23, #2
    1220:	01060d05 	.inst	0x01060d05 ; undefined
    1224:	05200b05 	ext	z5.b, z5.b, z24.b, #2
    1228:	05210609 	ext	z9.b, z9.b, z16.b, #9
    122c:	0511060d 	mov	z13.b, p1/z, #48
    1230:	18052209 	ldr	w9, b670 <__bss_size+0xb65e>
    1234:	09052e1f 	.inst	0x09052e1f ; undefined
    1238:	2e062106 	ext	v6.8b, v8.8b, v6.8b, #4
    123c:	13060e05 	sbfiz	w5, w16, #26, #4
    1240:	05130505 	mov	z5.b, p3/z, #40
    1244:	05130601 	mov	z1.b, p3/z, #48
    1248:	01051f05 	.inst	0x01051f05 ; undefined
    124c:	1f050521 	fmadd	s1, s9, s5, s1
    1250:	4d061505 	.inst	0x4d061505 ; undefined
    1254:	13130505 	sbfiz	w5, w8, #13, #2
    1258:	00030218 	.inst	0x00030218 ; undefined
    125c:	Address 0x000000000000125c is out of bounds.


Disassembly of section .debug_line_str:

0000000000000000 <.debug_line_str>:
   0:	6d6f682f 	ldp	d15, d26, [x1, #-272]
   4:	61792f65 	.inst	0x61792f65 ; undefined
   8:	72702f6f 	.inst	0x72702f6f ; undefined
   c:	63656a6f 	.inst	0x63656a6f ; undefined
  10:	4f2f7374 	.inst	0x4f2f7374 ; undefined
  14:	2f494453 	.inst	0x2f494453 ; undefined
  18:	746f6f62 	.inst	0x746f6f62 ; undefined
  1c:	64616f6c 	.inst	0x64616f6c ; undefined
  20:	62007265 	.inst	0x62007265 ; undefined
  24:	2e746f6f 	umin	v15.4h, v27.4h, v20.4h
  28:	616d0053 	.inst	0x616d0053 ; undefined
  2c:	632e6e69 	.inst	0x632e6e69 ; undefined
  30:	2f2e2e00 	.inst	0x2f2e2e00 ; undefined
  34:	0062696c 	.inst	0x0062696c ; undefined
  38:	6f626572 	sqshlu	v18.2d, v11.2d, #34
  3c:	682e746f 	.inst	0x682e746f ; undefined
  40:	69747500 	ldpsw	x0, x29, [x8, #-96]
  44:	682e736c 	.inst	0x682e736c ; undefined
  48:	72617500 	.inst	0x72617500 ; undefined
  4c:	00682e74 	.inst	0x00682e74 ; undefined
  50:	6c2f2e2e 	stnp	d14, d11, [x17, #-272]
  54:	6d2f6269 	stp	d9, d24, [x19, #-272]
  58:	2e786f62 	umin	v2.4h, v27.4h, v24.4h
  5c:	626d0063 	.inst	0x626d0063 ; undefined
  60:	682e786f 	.inst	0x682e786f ; undefined
  64:	2f2e2e00 	.inst	0x2f2e2e00 ; undefined
  68:	2f62696c 	umlsl	v12.4s, v11.4h, v2.h[6]
  6c:	6f626572 	sqshlu	v18.2d, v11.2d, #34
  70:	632e746f 	.inst	0x632e746f ; undefined
  74:	2f2e2e00 	.inst	0x2f2e2e00 ; undefined
  78:	2f62696c 	umlsl	v12.4s, v11.4h, v2.h[6]
  7c:	74726175 	.inst	0x74726175 ; undefined
  80:	2e00632e 	.inst	0x2e00632e ; undefined
  84:	696c2f2e 	ldpsw	x14, x11, [x25, #-160]
  88:	74752f62 	.inst	0x74752f62 ; undefined
  8c:	2e736c69 	umin	v9.4h, v3.4h, v19.4h
  90:	Address 0x0000000000000090 is out of bounds.


Disassembly of section .debug_info:

0000000000000000 <.debug_info>:
       0:	00000024 	udf	#36
       4:	08010005 	stxrb	w1, w5, [x0]
       8:	00000000 	udf	#0
       c:	00000001 	udf	#1
      10:	06000000 	.inst	0x06000000 ; undefined
      14:	00000000 	udf	#0
      18:	00005000 	udf	#20480
      1c:	00070000 	.inst	0x00070000 ; undefined
      20:	002a0000 	.inst	0x002a0000 ; NYI
      24:	80010000 	.inst	0x80010000 ; undefined
      28:	0000041b 	udf	#1051
      2c:	08010005 	stxrb	w1, w5, [x0]
      30:	00000014 	udf	#20
      34:	00005b10 	udf	#23312
      38:	002a1d00 	.inst	0x002a1d00 ; NYI
      3c:	00000000 	udf	#0
      40:	00260000 	.inst	0x00260000 ; NYI
	...
      4c:	00570000 	.inst	0x00570000 ; undefined
      50:	260a0000 	.inst	0x260a0000 ; undefined
      54:	02000001 	.inst	0x02000001 ; undefined
      58:	00003702 	udf	#14082
      5c:	06000500 	.inst	0x06000500 ; undefined
      60:	0000012d 	udf	#301
      64:	00480102 	.inst	0x00480102 ; undefined
      68:	48040000 	stxrh	w4, w0, [x0]
      6c:	00000000 	udf	#0
      70:	69050411 	stgp	x17, x1, [x0, #160]
      74:	1200746e 	and	w14, w3, #0x3fffffff
      78:	00000133 	udf	#307
      7c:	48050203 	stxrh	w5, w3, [x16]
      80:	6a000000 	ands	w0, w0, w0
      84:	04000000 	add	z0.b, p0/m, z0.b, z0.b
      88:	0000006a 	udf	#106
      8c:	00006a04 	udf	#27140
      90:	6f070000 	.inst	0x6f070000 ; undefined
      94:	08000000 	stxrb	w0, w0, [x0]
      98:	01210801 	.inst	0x01210801 ; undefined
      9c:	6f0b0000 	.inst	0x6f0b0000 ; undefined
      a0:	06000000 	.inst	0x06000000 ; undefined
      a4:	000000e5 	udf	#229
      a8:	008c0c03 	.inst	0x008c0c03 ; undefined
      ac:	6a040000 	ands	w0, w0, w4
      b0:	00000000 	udf	#0
      b4:	0000db0a 	udf	#56074
      b8:	99010400 	.inst	0x99010400 ; undefined
      bc:	05000000 	orr	z0.s, z0.s, #0x1
      c0:	00d11300 	.inst	0x00d11300 ; undefined
      c4:	03040000 	.inst	0x03040000 ; undefined
      c8:	00006f06 	udf	#28422
      cc:	0000ab00 	udf	#43776
      d0:	06000500 	.inst	0x06000500 ; undefined
      d4:	00000109 	udf	#265
      d8:	00bc0404 	.inst	0x00bc0404 ; undefined
      dc:	6a040000 	ands	w0, w0, w4
      e0:	00000000 	udf	#0
      e4:	0001130c 	.inst	0x0001130c ; undefined
      e8:	01001d00 	.inst	0x01001d00 ; undefined
      ec:	00000006 	udf	#6
      f0:	01300000 	.inst	0x01300000 ; undefined
      f4:	00000000 	udf	#0
      f8:	9c010000 	ldr	q0, 20f8 <__bss_size+0x20e6>
      fc:	000002e4 	udf	#740
     100:	0000f609 	udf	#62985
     104:	6a0b1f00 	ands	w0, w24, w11, lsl #7
     108:	0a000000 	and	w0, w0, w0
     10c:	06108803 	.inst	0x06108803 ; undefined
     110:	00000000 	udf	#0
     114:	0c149f00 	.inst	0x0c149f00 ; undefined
     118:	bb000000 	.inst	0xbb000000 ; undefined
     11c:	09000002 	.inst	0x09000002 ; undefined
     120:	000000eb 	udf	#235
     124:	02e40e2c 	.inst	0x02e40e2c ; undefined
     128:	91020000 	add	x0, x0, #0x80
     12c:	01700268 	.inst	0x01700268 ; undefined
     130:	00000006 	udf	#6
     134:	00ab0000 	.inst	0x00ab0000 ; undefined
     138:	011d0000 	.inst	0x011d0000 ; undefined
     13c:	01010000 	.inst	0x01010000 ; undefined
     140:	00850250 	.inst	0x00850250 ; undefined
     144:	01780200 	.inst	0x01780200 ; undefined
     148:	00000006 	udf	#6
     14c:	007b0000 	.inst	0x007b0000 ; undefined
     150:	01350000 	.inst	0x01350000 ; undefined
     154:	01010000 	.inst	0x01010000 ; undefined
     158:	00830250 	.inst	0x00830250 ; undefined
     15c:	01840200 	.inst	0x01840200 ; undefined
     160:	00000006 	udf	#6
     164:	004f0000 	.inst	0x004f0000 ; undefined
     168:	01530000 	.inst	0x01530000 ; undefined
     16c:	01010000 	.inst	0x01010000 ; undefined
     170:	00830250 	.inst	0x00830250 ; undefined
     174:	02510101 	.inst	0x02510101 ; undefined
     178:	02000084 	.inst	0x02000084 ; undefined
     17c:	00060194 	.inst	0x00060194 ; undefined
     180:	00000000 	udf	#0
     184:	000000ab 	udf	#171
     188:	00000172 	udf	#370
     18c:	09500101 	.inst	0x09500101 ; undefined
     190:	06128803 	.inst	0x06128803 ; undefined
     194:	00000000 	udf	#0
     198:	9c020000 	ldr	q0, 4198 <__bss_size+0x4186>
     19c:	00000601 	udf	#1537
     1a0:	ab000000 	adds	x0, x0, x0
     1a4:	91000000 	add	x0, x0, #0x0
     1a8:	01000001 	.inst	0x01000001 ; undefined
     1ac:	03095001 	.inst	0x03095001 ; undefined
     1b0:	000612b0 	.inst	0x000612b0 ; undefined
     1b4:	00000000 	udf	#0
     1b8:	01a40200 	.inst	0x01a40200 ; undefined
     1bc:	00000006 	udf	#6
     1c0:	00ab0000 	.inst	0x00ab0000 ; undefined
     1c4:	01b00000 	.inst	0x01b00000 ; undefined
     1c8:	01010000 	.inst	0x01010000 ; undefined
     1cc:	d0030950 	adrp	x16, 612a000 <__bss_end+0x60c8a80>
     1d0:	00000612 	udf	#1554
     1d4:	00000000 	udf	#0
     1d8:	0601b402 	.inst	0x0601b402 ; undefined
     1dc:	00000000 	udf	#0
     1e0:	00004f00 	udf	#20224
     1e4:	0001ce00 	.inst	0x0001ce00 ; undefined
     1e8:	50010100 	adr	x0, 220a <__bss_size+0x21f8>
     1ec:	01008302 	.inst	0x01008302 ; undefined
     1f0:	89025101 	.inst	0x89025101 ; undefined
     1f4:	c4020000 	ld1sb	{z0.d}, p0/z, [x0, z2.d, uxtw]
     1f8:	00000601 	udf	#1537
     1fc:	37000000 	tbnz	w0, #0, 1fc <__bss_size+0x1ea>
     200:	e6000000 	.inst	0xe6000000 ; undefined
     204:	01000001 	.inst	0x01000001 ; undefined
     208:	8a025001 	and	x1, x0, x2, lsl #20
     20c:	cc020000 	.inst	0xcc020000 ; undefined
     210:	00000601 	udf	#1537
     214:	ab000000 	adds	x0, x0, x0
     218:	05000000 	orr	z0.s, z0.s, #0x1
     21c:	01000002 	.inst	0x01000002 ; undefined
     220:	03095001 	.inst	0x03095001 ; undefined
     224:	000612f0 	.inst	0x000612f0 ; undefined
     228:	00000000 	udf	#0
     22c:	01d40200 	.inst	0x01d40200 ; undefined
     230:	00000006 	udf	#6
     234:	007b0000 	.inst	0x007b0000 ; undefined
     238:	021d0000 	.inst	0x021d0000 ; undefined
     23c:	01010000 	.inst	0x01010000 ; undefined
     240:	00830250 	.inst	0x00830250 ; undefined
     244:	01e40200 	.inst	0x01e40200 ; undefined
     248:	00000006 	udf	#6
     24c:	004f0000 	.inst	0x004f0000 ; undefined
     250:	02420000 	.inst	0x02420000 ; undefined
     254:	01010000 	.inst	0x01010000 ; undefined
     258:	00830250 	.inst	0x00830250 ; undefined
     25c:	09510101 	.inst	0x09510101 ; undefined
     260:	06131003 	.inst	0x06131003 ; undefined
     264:	00000000 	udf	#0
     268:	ec030000 	.inst	0xec030000 ; undefined
     26c:	00000601 	udf	#1537
     270:	2a000000 	orr	w0, w0, w0
     274:	02000000 	.inst	0x02000000 ; undefined
     278:	000601fc 	.inst	0x000601fc ; undefined
     27c:	00000000 	udf	#0
     280:	0000004f 	udf	#79
     284:	0000026d 	udf	#621
     288:	02500101 	.inst	0x02500101 ; undefined
     28c:	01010083 	.inst	0x01010083 ; undefined
     290:	008b0251 	.inst	0x008b0251 ; undefined
     294:	02100300 	.inst	0x02100300 ; undefined
     298:	00000006 	udf	#6
     29c:	02fb0000 	.inst	0x02fb0000 ; undefined
     2a0:	18030000 	ldr	w0, 62a0 <__bss_size+0x628e>
     2a4:	00000602 	udf	#1538
     2a8:	ab000000 	adds	x0, x0, x0
     2ac:	02000000 	.inst	0x02000000 ; undefined
     2b0:	00060220 	.inst	0x00060220 ; undefined
     2b4:	00000000 	udf	#0
     2b8:	000000ab 	udf	#171
     2bc:	0000029f 	udf	#671
     2c0:	02500101 	.inst	0x02500101 ; undefined
     2c4:	0d000083 	st1	{v3.b}[0], [x4]
     2c8:	0006022c 	.inst	0x0006022c ; undefined
     2cc:	00000000 	udf	#0
     2d0:	000000ab 	udf	#171
     2d4:	09500101 	.inst	0x09500101 ; undefined
     2d8:	06132803 	.inst	0x06132803 ; undefined
     2dc:	00000000 	udf	#0
     2e0:	03000000 	.inst	0x03000000 ; undefined
     2e4:	0006015c 	.inst	0x0006015c ; undefined
     2e8:	00000000 	udf	#0
     2ec:	0000008c 	udf	#140
     2f0:	0601680d 	.inst	0x0601680d ; undefined
     2f4:	00000000 	udf	#0
     2f8:	0000ab00 	udf	#43776
     2fc:	50010100 	adr	x0, 231e <__bss_size+0x230c>
     300:	10880309 	adr	x9, fffffffffff10360 <__bss_end+0xffffffffffeaede0>
     304:	00000006 	udf	#6
     308:	00000000 	udf	#0
     30c:	00006f15 	udf	#28437
     310:	0002f400 	.inst	0x0002f400 ; undefined
     314:	02f41600 	.inst	0x02f41600 ; undefined
     318:	00130000 	.inst	0x00130000 ; undefined
     31c:	49070808 	.inst	0x49070808 ; undefined
     320:	0c000000 	st4	{v0.8b-v3.8b}, [x0]
     324:	00000101 	udf	#257
     328:	06005005 	.inst	0x06005005 ; undefined
     32c:	00000000 	udf	#0
     330:	0000b000 	udf	#45056
     334:	00000000 	udf	#0
     338:	079c0100 	.inst	0x079c0100 ; undefined
     33c:	17000004 	b	fffffffffc00034c <__bss_end+0xfffffffffbf9edcc>
     340:	0000003d 	udf	#61
     344:	48090701 	stxrh	w9, w1, [x24]
     348:	12000000 	and	w0, w0, #0x1
     34c:	0c000000 	st4	{v0.8b-v3.8b}, [x0]
     350:	09000000 	.inst	0x09000000 ; undefined
     354:	000000eb 	udf	#235
     358:	00761308 	.inst	0x00761308 ; undefined
     35c:	91020000 	add	x0, x0, #0x80
     360:	0036187f 	.inst	0x0036187f ; NYI
     364:	0f010000 	.inst	0x0f010000 ; undefined
     368:	0004071d 	.inst	0x0004071d ; undefined
     36c:	00f11900 	.inst	0x00f11900 ; undefined
     370:	18010000 	ldr	w0, 2370 <__bss_size+0x235e>
     374:	0004190c 	.inst	0x0004190c ; undefined
     378:	08000000 	stxrb	w0, w0, [x0]
     37c:	009c0e00 	.inst	0x009c0e00 ; undefined
     380:	00000006 	udf	#6
     384:	00340000 	.inst	0x00340000 ; NYI
     388:	00000000 	udf	#0
     38c:	03880000 	.inst	0x03880000 ; undefined
     390:	690f0000 	stgp	x0, x0, [x0, #480]
     394:	00481100 	.inst	0x00481100 ; undefined
     398:	00320000 	.inst	0x00320000 ; NYI
     39c:	002c0000 	.inst	0x002c0000 ; NYI
     3a0:	b4030000 	cbz	x0, 63a0 <__bss_size+0x638e>
     3a4:	00000600 	udf	#1536
     3a8:	99000000 	stlur	w0, [x0]
     3ac:	00000000 	udf	#0
     3b0:	0600d00e 	.inst	0x0600d00e ; undefined
     3b4:	00000000 	udf	#0
     3b8:	00000c00 	udf	#3072
     3bc:	00000000 	udf	#0
     3c0:	0003ae00 	.inst	0x0003ae00 ; undefined
     3c4:	00690f00 	.inst	0x00690f00 ; undefined
     3c8:	00004815 	udf	#18453
     3cc:	00005a00 	udf	#23040
     3d0:	00005400 	udf	#21504
     3d4:	70020000 	adr	x0, 43d7 <__bss_size+0x43c5>
     3d8:	00000600 	udf	#1536
     3dc:	ab000000 	adds	x0, x0, x0
     3e0:	cd000000 	.inst	0xcd000000 ; undefined
     3e4:	01000003 	.inst	0x01000003 ; undefined
     3e8:	03095001 	.inst	0x03095001 ; undefined
     3ec:	00061060 	.inst	0x00061060 ; undefined
     3f0:	00000000 	udf	#0
     3f4:	00880300 	.inst	0x00880300 ; undefined
     3f8:	00000006 	udf	#6
     3fc:	00990000 	.inst	0x00990000 ; undefined
     400:	e8020000 	.inst	0xe8020000 ; undefined
     404:	00000600 	udf	#1536
     408:	ab000000 	adds	x0, x0, x0
     40c:	f9000000 	str	x0, [x0]
     410:	01000003 	.inst	0x01000003 ; undefined
     414:	03095001 	.inst	0x03095001 ; undefined
     418:	00061070 	.inst	0x00061070 ; undefined
     41c:	00000000 	udf	#0
     420:	01001a00 	.inst	0x01001a00 ; undefined
     424:	00000006 	udf	#6
     428:	40030000 	.inst	0x40030000 ; undefined
     42c:	0700243f 	.inst	0x0700243f ; undefined
     430:	00000413 	udf	#1043
     434:	18080108 	ldr	w8, 10454 <__bss_size+0x10442>
     438:	0b000001 	add	w1, w0, w0
     43c:	0000040c 	udf	#1036
     440:	0418071b 	orr	z27.b, p1/m, z27.b, z24.b
     444:	3e000000 	.inst	0x3e000000 ; undefined
     448:	05000001 	orr	z1.s, z1.s, #0x1
     44c:	88080100 	stxr	w8, w0, [x8]
     450:	07000001 	.inst	0x07000001 ; undefined
     454:	0000005b 	udf	#91
     458:	0000501d 	udf	#20509
     45c:	00000000 	udf	#0
     460:	06023000 	.inst	0x06023000 ; undefined
     464:	00000000 	udf	#0
     468:	00019400 	.inst	0x00019400 ; undefined
     46c:	00000000 	udf	#0
     470:	00023100 	.inst	0x00023100 ; undefined
     474:	004f0800 	.inst	0x004f0800 ; undefined
     478:	003e0000 	.inst	0x003e0000 ; NYI
     47c:	43090000 	.inst	0x43090000 ; undefined
     480:	23000000 	.inst	0x23000000 ; undefined
     484:	002e0200 	.inst	0x002e0200 ; NYI
     488:	08030000 	stxrb	w3, w0, [x0]
     48c:	00000049 	udf	#73
     490:	004e0403 	.inst	0x004e0403 ; undefined
     494:	49020000 	.inst	0x49020000 ; undefined
     498:	0a000000 	and	w0, w0, w0
     49c:	00000166 	udf	#358
     4a0:	3e1e0302 	.inst	0x3e1e0302 ; undefined
     4a4:	0b000000 	add	w0, w0, w0
     4a8:	00000054 	udf	#84
     4ac:	03093501 	.inst	0x03093501 ; undefined
     4b0:	000614f0 	.inst	0x000614f0 ; undefined
     4b4:	00000000 	udf	#0
     4b8:	00013a04 	.inst	0x00013a04 ; undefined
     4bc:	03302500 	.inst	0x03302500 ; undefined
     4c0:	00000006 	udf	#6
     4c4:	00940000 	.inst	0x00940000 ; undefined
     4c8:	00000000 	udf	#0
     4cc:	9c010000 	ldr	q0, 24cc <__bss_size+0x24ba>
     4d0:	000000b5 	udf	#181
     4d4:	0000f905 	udf	#63749
     4d8:	06037400 	.inst	0x06037400 ; undefined
     4dc:	00000000 	udf	#0
     4e0:	005e0100 	.inst	0x005e0100 ; undefined
     4e4:	06300000 	.inst	0x06300000 ; undefined
     4e8:	0000005e 	udf	#94
     4ec:	00010a01 	.inst	0x00010a01 ; undefined
     4f0:	00009300 	udf	#37632
     4f4:	00009100 	udf	#37120
     4f8:	00000000 	udf	#0
     4fc:	00014604 	.inst	0x00014604 ; undefined
     500:	02a01800 	.inst	0x02a01800 ; undefined
     504:	00000006 	udf	#6
     508:	008c0000 	.inst	0x008c0000 ; undefined
     50c:	00000000 	udf	#0
     510:	9c010000 	ldr	q0, 2510 <__bss_size+0x24fe>
     514:	000000f9 	udf	#249
     518:	0000f905 	udf	#63749
     51c:	0602e000 	.inst	0x0602e000 ; undefined
     520:	00000000 	udf	#0
     524:	00490100 	.inst	0x00490100 ; undefined
     528:	06220000 	.inst	0x06220000 ; undefined
     52c:	00000049 	udf	#73
     530:	00010a01 	.inst	0x00010a01 ; undefined
     534:	00009d00 	udf	#40192
     538:	00009b00 	udf	#39680
     53c:	00000000 	udf	#0
     540:	0001590c 	.inst	0x0001590c ; undefined
     544:	05050100 	.inst	0x05050100 ; undefined
     548:	00000115 	udf	#277
     54c:	00011501 	.inst	0x00011501 ; undefined
     550:	00720d00 	.inst	0x00720d00 ; undefined
     554:	49120701 	.inst	0x49120701 ; undefined
     558:	00000000 	udf	#0
     55c:	6905040e 	stgp	x14, x1, [x0, #160]
     560:	0f00746e 	orr	v14.2s, #0x3, lsl #24
     564:	000000f9 	udf	#249
     568:	00060230 	.inst	0x00060230 ; undefined
     56c:	00000000 	udf	#0
     570:	00000070 	udf	#112
     574:	00000000 	udf	#0
     578:	0a019c01 	.inst	0x0a019c01 ; undefined
     57c:	a7000001 	.inst	0xa7000001 ; undefined
     580:	a5000000 	ld1rqw	{z0.s}, p0/z, [x0, x0, lsl #2]
     584:	00000000 	udf	#0
     588:	00019700 	.inst	0x00019700 ; undefined
     58c:	01000500 	.inst	0x01000500 ; undefined
     590:	00026308 	.inst	0x00026308 ; undefined
     594:	005b0500 	.inst	0x005b0500 ; undefined
     598:	651d0000 	.inst	0x651d0000 ; undefined
     59c:	00000000 	udf	#0
     5a0:	d0000000 	adrp	x0, 2000 <__bss_size+0x1fee>
     5a4:	00000603 	udf	#1539
     5a8:	60000000 	.inst	0x60000000 ; undefined
     5ac:	00000000 	udf	#0
     5b0:	52000000 	eor	w0, w0, #0x1
     5b4:	06000004 	.inst	0x06000004 ; undefined
     5b8:	00000126 	udf	#294
     5bc:	10060e01 	adr	x1, c77c <__bss_size+0xc76a>
     5c0:	00000604 	udf	#1540
     5c4:	20000000 	.inst	0x20000000 ; undefined
     5c8:	00000000 	udf	#0
     5cc:	01000000 	.inst	0x01000000 ; undefined
     5d0:	0000ad9c 	udf	#44444
     5d4:	01470200 	.inst	0x01470200 ; undefined
     5d8:	04100000 	mul	z0.b, p0/m, z0.b, z0.b
     5dc:	00000006 	udf	#6
     5e0:	99020000 	stlur	w0, [x0, #32]
     5e4:	0f000000 	.inst	0x0f000000 ; undefined
     5e8:	0000007e 	udf	#126
     5ec:	00016001 	.inst	0x00016001 ; undefined
     5f0:	0000bb00 	udf	#47872
     5f4:	0000b900 	udf	#47360
     5f8:	01540100 	.inst	0x01540100 ; undefined
     5fc:	00c70000 	.inst	0x00c70000 ; undefined
     600:	00c50000 	.inst	0x00c50000 ; undefined
     604:	03000000 	.inst	0x03000000 ; undefined
     608:	00000147 	udf	#327
     60c:	00060428 	.inst	0x00060428 ; undefined
     610:	00000000 	udf	#0
     614:	0000a302 	udf	#41730
     618:	60011000 	.inst	0x60011000 ; undefined
     61c:	d4000001 	svc	#0x0
     620:	d2000000 	eor	x0, x0, #0x100000001
     624:	01000000 	.inst	0x01000000 ; undefined
     628:	00000154 	udf	#340
     62c:	000000e0 	udf	#224
     630:	000000de 	udf	#222
     634:	2d070000 	stp	s0, s0, [x0, #56]
     638:	01000001 	.inst	0x01000001 ; undefined
     63c:	03e00609 	.inst	0x03e00609 ; undefined
     640:	00000006 	udf	#6
     644:	002c0000 	.inst	0x002c0000 ; NYI
     648:	00000000 	udf	#0
     64c:	9c010000 	ldr	q0, 264c <__bss_size+0x263a>
     650:	00000140 	udf	#320
     654:	00016e08 	.inst	0x00016e08 ; undefined
     658:	10090100 	adr	x0, 12678 <__bss_size+0x12666>
     65c:	00000140 	udf	#320
     660:	000000ef 	udf	#239
     664:	000000eb 	udf	#235
     668:	00014702 	.inst	0x00014702 ; undefined
     66c:	0603e000 	.inst	0x0603e000 ; undefined
     670:	00000000 	udf	#0
     674:	007f0200 	.inst	0x007f0200 ; undefined
     678:	110a0000 	add	w0, w0, #0x280
     67c:	01000001 	.inst	0x01000001 ; undefined
     680:	00000160 	udf	#352
     684:	000000ff 	udf	#255
     688:	000000fd 	udf	#253
     68c:	00015401 	.inst	0x00015401 ; undefined
     690:	00010c00 	.inst	0x00010c00 ; undefined
     694:	00010a00 	.inst	0x00010a00 ; undefined
     698:	47030000 	.inst	0x47030000 ; undefined
     69c:	00000001 	udf	#1
     6a0:	00000604 	udf	#1540
     6a4:	02000000 	.inst	0x02000000 ; undefined
     6a8:	0000008c 	udf	#140
     6ac:	0160010b 	.inst	0x0160010b ; undefined
     6b0:	011b0000 	.inst	0x011b0000 ; undefined
     6b4:	01170000 	.inst	0x01170000 ; undefined
     6b8:	54010000 	b.eq	26b8 <__bss_size+0x26a6>  // b.none
     6bc:	37000001 	tbnz	w1, #0, 6bc <__bss_size+0x6aa>
     6c0:	35000001 	cbnz	w1, 6c0 <__bss_size+0x6ae>
     6c4:	00000001 	udf	#1
     6c8:	05040900 	.inst	0x05040900 ; undefined
     6cc:	00746e69 	.inst	0x00746e69 ; undefined
     6d0:	7465730a 	.inst	0x7465730a ; undefined
     6d4:	06050100 	.inst	0x06050100 ; undefined
     6d8:	00016d01 	.inst	0x00016d01 ; undefined
     6dc:	65720b00 	fmla	z0.h, p2/m, z24.h, z18.h
     6e0:	05010067 	orr	z7.s, z7.s, #0xf
     6e4:	00016d17 	.inst	0x00016d17 ; undefined
     6e8:	016e0c00 	.inst	0x016e0c00 ; undefined
     6ec:	05010000 	orr	z0.s, z0.s, #0x1
     6f0:	00014020 	.inst	0x00014020 ; undefined
     6f4:	040d0000 	uabd	z0.b, p0/m, z0.b, z0.b
     6f8:	00004e07 	udf	#19975
     6fc:	01470e00 	.inst	0x01470e00 ; undefined
     700:	03d00000 	.inst	0x03d00000 ; undefined
     704:	00000006 	udf	#6
     708:	000c0000 	.inst	0x000c0000 ; undefined
     70c:	00000000 	udf	#0
     710:	9c010000 	ldr	q0, 2710 <__bss_size+0x26fe>
     714:	00015404 	.inst	0x00015404 ; undefined
     718:	04500100 	mul	z0.h, p0/m, z0.h, z8.h
     71c:	00000160 	udf	#352
     720:	00005101 	udf	#20737
     724:	00000204 	udf	#516
     728:	08010005 	stxrb	w1, w5, [x0]
     72c:	0000035a 	udf	#858
     730:	00005b06 	udf	#23302
     734:	00751d00 	.inst	0x00751d00 ; undefined
     738:	00000000 	udf	#0
     73c:	04300000 	add	z0.b, z0.b, z16.b
     740:	00000006 	udf	#6
     744:	02340000 	.inst	0x02340000 ; undefined
     748:	00000000 	udf	#0
     74c:	05070000 	.inst	0x05070000 ; undefined
     750:	73020000 	.inst	0x73020000 ; undefined
     754:	84000001 	ld1sb	{z1.s}, p0/z, [x0, z0.s, uxtw]
     758:	000605f0 	.inst	0x000605f0 ; undefined
     75c:	00000000 	udf	#0
     760:	00000074 	udf	#116
     764:	00000000 	udf	#0
     768:	00c09c01 	.inst	0x00c09c01 ; undefined
     76c:	64030000 	.inst	0x64030000 ; undefined
     770:	c01c8400 	.inst	0xc01c8400 ; undefined
     774:	52000000 	eor	w0, w0, #0x1
     778:	4e000001 	tbl	v1.16b, {v0.16b}, v0.16b
     77c:	01000001 	.inst	0x01000001 ; undefined
     780:	1285006e 	mov	w14, #0xffffd7fc            	// #-10244
     784:	000000c0 	udf	#192
     788:	00000165 	udf	#357
     78c:	00000161 	udf	#353
     790:	86006301 	.inst	0x86006301 ; undefined
     794:	0000c709 	udf	#50953
     798:	00017c00 	.inst	0x00017c00 ; undefined
     79c:	00017400 	.inst	0x00017400 ; undefined
     7a0:	01820700 	.inst	0x01820700 ; undefined
     7a4:	063c0000 	.inst	0x063c0000 ; undefined
     7a8:	00000006 	udf	#6
     7ac:	c4010000 	ld1sb	{z0.d}, p0/z, [x0, z1.d, uxtw]
     7b0:	01000000 	.inst	0x01000000 ; undefined
     7b4:	00a4098d 	.inst	0x00a4098d ; undefined
     7b8:	8f040000 	.inst	0x8f040000 ; undefined
     7bc:	9e000001 	.inst	0x9e000001 ; undefined
     7c0:	9c000001 	ldr	q1, 7c0 <__bss_size+0x7ae>
     7c4:	00000001 	udf	#1
     7c8:	06060808 	.inst	0x06060808 ; undefined
     7cc:	00000000 	udf	#0
     7d0:	0000ce00 	udf	#52736
     7d4:	50010900 	adr	x0, 28f6 <__bss_size+0x28e4>
     7d8:	13680309 	.inst	0x13680309 ; undefined
     7dc:	00000006 	udf	#6
     7e0:	00000000 	udf	#0
     7e4:	4e070405 	dup	v5.16b, v0.b[3]
     7e8:	0a000000 	and	w0, w0, w0
     7ec:	6e690504 	uhadd	v4.8h, v8.8h, v9.8h
     7f0:	09020074 	.inst	0x09020074 ; undefined
     7f4:	78000001 	sturh	w1, [x0]
     7f8:	00060590 	.inst	0x00060590 ; undefined
     7fc:	00000000 	udf	#0
     800:	00000060 	udf	#96
     804:	00000000 	udf	#0
     808:	01419c01 	.inst	0x01419c01 ; undefined
     80c:	73030000 	.inst	0x73030000 ; undefined
     810:	41167800 	.inst	0x41167800 ; undefined
     814:	ac000001 	stnp	q1, q0, [x0]
     818:	a6000001 	.inst	0xa6000001 ; undefined
     81c:	0b000001 	add	w1, w0, w0
     820:	00000182 	udf	#386
     824:	000000b9 	udf	#185
     828:	110d7c01 	add	w1, w0, #0x35f
     82c:	0c000001 	st4	{v1.8b-v4.8b}, [x0]
     830:	0000018f 	udf	#399
     834:	01820d00 	.inst	0x01820d00 ; undefined
     838:	05bc0000 	zip1	z0.q, z0.q, z28.q
     83c:	00000006 	udf	#6
     840:	bc000000 	stur	s0, [x0]
     844:	00000605 	udf	#1541
     848:	14000000 	b	848 <__bss_size+0x836>
     84c:	00000000 	udf	#0
     850:	01000000 	.inst	0x01000000 ; undefined
     854:	8f04097d 	.inst	0x8f04097d ; undefined
     858:	c6000001 	.inst	0xc6000001 ; undefined
     85c:	c4000001 	ld1sb	{z1.d}, p0/z, [x0, z0.d, uxtw]
     860:	00000001 	udf	#1
     864:	47080e00 	.inst	0x47080e00 ; undefined
     868:	05000001 	orr	z1.s, z1.s, #0x1
     86c:	01210801 	.inst	0x01210801 ; undefined
     870:	d10f0000 	sub	x0, x0, #0x3c0
     874:	01000000 	.inst	0x01000000 ; undefined
     878:	0147066a 	.inst	0x0147066a ; undefined
     87c:	05540000 	mov	z0.h, p4/z, #0
     880:	00000006 	udf	#6
     884:	00380000 	.inst	0x00380000 ; NYI
     888:	00000000 	udf	#0
     88c:	9c010000 	ldr	q0, 288c <__bss_size+0x287a>
     890:	00000182 	udf	#386
     894:	6b007201 	subs	w1, w16, w0, lsl #28
     898:	0001470a 	.inst	0x0001470a ; undefined
     89c:	0001d000 	.inst	0x0001d000 ; undefined
     8a0:	0001ce00 	.inst	0x0001ce00 ; undefined
     8a4:	7c100000 	stur	h0, [x0, #-256]
     8a8:	01000001 	.inst	0x01000001 ; undefined
     8ac:	9a010658 	.inst	0x9a010658 ; undefined
     8b0:	11000001 	add	w1, w0, #0x0
     8b4:	58010063 	ldr	x3, 28c0 <__bss_size+0x28ae>
     8b8:	0000c01d 	udf	#49181
     8bc:	db120000 	.inst	0xdb120000 ; undefined
     8c0:	01000000 	.inst	0x01000000 ; undefined
     8c4:	0430062d 	sub	z13.b, z17.b, z16.b
     8c8:	00000006 	udf	#6
     8cc:	00f80000 	.inst	0x00f80000 ; undefined
     8d0:	00000000 	udf	#0
     8d4:	9c010000 	ldr	q0, 28d4 <__bss_size+0x28c2>
     8d8:	000001e8 	udf	#488
     8dc:	2f007201 	.inst	0x2f007201 ; undefined
     8e0:	0000c01b 	udf	#49179
     8e4:	0001ec00 	.inst	0x0001ec00 ; undefined
     8e8:	0001d800 	.inst	0x0001d800 ; undefined
     8ec:	05101300 	mov	z0.b, p0/z, #-104
     8f0:	00000006 	udf	#6
     8f4:	000c0000 	.inst	0x000c0000 ; undefined
     8f8:	00000000 	udf	#0
     8fc:	74140000 	.inst	0x74140000 ; undefined
     900:	0100706d 	.inst	0x0100706d ; undefined
     904:	01470851 	.inst	0x01470851 ; undefined
     908:	00000000 	udf	#0
     90c:	00018215 	.inst	0x00018215 ; undefined
     910:	06053000 	.inst	0x06053000 ; undefined
     914:	00000000 	udf	#0
     918:	00002400 	udf	#9216
     91c:	00000000 	udf	#0
     920:	169c0100 	b	fffffffffa700d20 <__bss_end+0xfffffffffa69f7a0>
     924:	0000018f 	udf	#399
     928:	00005001 	udf	#20481
     92c:	00000c7c 	udf	#3196
     930:	08010005 	stxrb	w1, w5, [x0]
     934:	000004be 	udf	#1214
     938:	00005b24 	udf	#23332
     93c:	00831d00 	.inst	0x00831d00 ; undefined
     940:	00000000 	udf	#0
     944:	06700000 	.inst	0x06700000 ; undefined
     948:	00000006 	udf	#6
     94c:	09ec0000 	.inst	0x09ec0000 ; undefined
     950:	00000000 	udf	#0
     954:	07eb0000 	.inst	0x07eb0000 ; undefined
     958:	040f0000 	.inst	0x040f0000 ; undefined
     95c:	0001b804 	.inst	0x0001b804 ; undefined
     960:	05042500 	.inst	0x05042500 ; undefined
     964:	00746e69 	.inst	0x00746e69 ; undefined
     968:	0000d104 	udf	#53508
     96c:	350de600 	cbnz	w0, 1c62c <__bss_size+0x1c61a>
     970:	4d000000 	st1	{v0.b}[8], [x0]
     974:	05000000 	orr	z0.s, z0.s, #0x1
     978:	017c0400 	.inst	0x017c0400 ; undefined
     97c:	11930000 	.inst	0x11930000 ; undefined
     980:	00000035 	udf	#53
     984:	0000005e 	udf	#94
     988:	09040005 	.inst	0x09040005 ; undefined
     98c:	8e000001 	.inst	0x8e000001 ; undefined
     990:	0000350d 	udf	#13581
     994:	00006f00 	udf	#28416
     998:	26000500 	.inst	0x26000500 ; undefined
     99c:	0000023e 	udf	#574
     9a0:	5006ed01 	adr	x1, e742 <__bss_size+0xe730>
     9a4:	00000610 	udf	#1552
     9a8:	0c000000 	st4	{v0.8b-v3.8b}, [x0]
     9ac:	00000000 	udf	#0
     9b0:	01000000 	.inst	0x01000000 ; undefined
     9b4:	0000d09c 	udf	#53404
     9b8:	00f61700 	.inst	0x00f61700 ; undefined
     9bc:	0bee0000 	.inst	0x0bee0000 ; undefined
     9c0:	000000d0 	udf	#208
     9c4:	13a8030a 	.inst	0x13a8030a ; undefined
     9c8:	00000006 	udf	#6
     9cc:	049f0000 	.inst	0x049f0000 ; undefined
     9d0:	00000109 	udf	#265
     9d4:	00350d8e 	.inst	0x00350d8e ; NYI
     9d8:	00b40000 	.inst	0x00b40000 ; undefined
     9dc:	00050000 	.inst	0x00050000 ; undefined
     9e0:	06105c14 	.inst	0x06105c14 ; undefined
     9e4:	00000000 	udf	#0
     9e8:	00005e00 	udf	#24064
     9ec:	50010700 	adr	x0, 2ace <__bss_size+0x2abc>
     9f0:	13a80309 	.inst	0x13a80309 ; undefined
     9f4:	00000006 	udf	#6
     9f8:	00000000 	udf	#0
     9fc:	0000d518 	udf	#54552
     a00:	08010f00 	stxrb	w1, w0, [x24]
     a04:	00000121 	udf	#289
     a08:	0000e515 	udf	#58645
     a0c:	0fe0e200 	.inst	0x0fe0e200 ; undefined
     a10:	00000006 	udf	#6
     a14:	00680000 	.inst	0x00680000 ; undefined
     a18:	00000000 	udf	#0
     a1c:	9c010000 	ldr	q0, 2a1c <__bss_size+0x2a0a>
     a20:	000001bc 	udf	#444
     a24:	0000eb0d 	udf	#60173
     a28:	d012e200 	adrp	x0, 25c42000 <__bss_end+0x25be0a80>
     a2c:	46000000 	.inst	0x46000000 ; undefined
     a30:	40000002 	.inst	0x40000002 ; undefined
     a34:	02000002 	.inst	0x02000002 ; undefined
     a38:	0000022e 	udf	#558
     a3c:	003509e3 	.inst	0x003509e3 ; NYI
     a40:	02690000 	.inst	0x02690000 ; undefined
     a44:	025f0000 	.inst	0x025f0000 ; undefined
     a48:	63090000 	.inst	0x63090000 ; undefined
     a4c:	d50ae400 	sys	#2, C14, C4, #0, x0
     a50:	a6000000 	.inst	0xa6000000 ; undefined
     a54:	a2000002 	.inst	0xa2000002 ; undefined
     a58:	04000002 	add	z2.b, p0/m, z2.b, z0.b
     a5c:	00000109 	udf	#265
     a60:	00350d8e 	.inst	0x00350d8e ; NYI
     a64:	01400000 	.inst	0x01400000 ; undefined
     a68:	00050000 	.inst	0x00050000 ; undefined
     a6c:	00024b0e 	.inst	0x00024b0e ; undefined
     a70:	0001a000 	.inst	0x0001a000 ; undefined
     a74:	00d10400 	.inst	0x00d10400 ; undefined
     a78:	0de60000 	ld2	{v0.b, v1.b}[0], [x0], x6
     a7c:	00000035 	udf	#53
     a80:	0000015a 	udf	#346
     a84:	7c040005 	stur	h5, [x0, #64]
     a88:	93000001 	.inst	0x93000001 ; undefined
     a8c:	00003511 	udf	#13585
     a90:	00016b00 	.inst	0x00016b00 ; undefined
     a94:	0c000500 	st4	{v0.4h-v3.4h}, [x8]
     a98:	00060ff4 	.inst	0x00060ff4 ; undefined
     a9c:	00000000 	udf	#0
     aa0:	0000003c 	udf	#60
     aa4:	0610100c 	.inst	0x0610100c ; undefined
     aa8:	00000000 	udf	#0
     aac:	00004d00 	udf	#19712
     ab0:	10140c00 	adr	x0, 28c30 <__bss_size+0x28c1e>
     ab4:	00000006 	udf	#6
     ab8:	003c0000 	.inst	0x003c0000 ; NYI
     abc:	340c0000 	cbz	w0, 18abc <__bss_size+0x18aaa>
     ac0:	00000610 	udf	#1552
     ac4:	4d000000 	st1	{v0.b}[8], [x0]
     ac8:	00000000 	udf	#0
     acc:	06104814 	.inst	0x06104814 ; undefined
     ad0:	00000000 	udf	#0
     ad4:	00005e00 	udf	#24064
     ad8:	50010700 	adr	x0, 2bba <__bss_size+0x2ba8>
     adc:	13a00309 	.inst	0x13a00309 ; undefined
     ae0:	00000006 	udf	#6
     ae4:	00000000 	udf	#0
     ae8:	74616327 	.inst	0x74616327 ; undefined
     aec:	06a60100 	.inst	0x06a60100 ; undefined
     af0:	00060d00 	.inst	0x00060d00 ; undefined
     af4:	00000000 	udf	#0
     af8:	000002e0 	udf	#736
     afc:	00000000 	udf	#0
     b00:	04bd9c01 	lsl	z1.d, z0.d, #29
     b04:	eb0d0000 	subs	x0, x0, x13
     b08:	a6000000 	.inst	0xa6000000 ; undefined
     b0c:	0000d00f 	udf	#53263
     b10:	0002bb00 	.inst	0x0002bb00 ; undefined
     b14:	0002b500 	.inst	0x0002b500 ; undefined
     b18:	656c0900 	fmla	z0.h, p2/m, z8.h, z12.h
     b1c:	09a7006e 	.inst	0x09a7006e ; undefined
     b20:	00000035 	udf	#53
     b24:	000002da 	udf	#730
     b28:	000002d4 	udf	#724
     b2c:	00003602 	udf	#13826
     b30:	bd1da800 	str	s0, [x0, #7592]
     b34:	fb000004 	.inst	0xfb000004 ; undefined
     b38:	f3000002 	.inst	0xf3000002 ; undefined
     b3c:	02000002 	.inst	0x02000002 ; undefined
     b40:	000001de 	udf	#478
     b44:	04bd1daa 	uqsub	z10.s, z13.s, z29.s
     b48:	03330000 	.inst	0x03330000 ; undefined
     b4c:	03290000 	.inst	0x03290000 ; undefined
     b50:	92020000 	and	x0, x0, #0x4000000040000000
     b54:	ab000001 	adds	x1, x0, x0
     b58:	00003509 	udf	#13577
     b5c:	00036500 	.inst	0x00036500 ; undefined
     b60:	00035d00 	.inst	0x00035d00 ; undefined
     b64:	02340200 	.inst	0x02340200 ; undefined
     b68:	09ac0000 	.inst	0x09ac0000 ; undefined
     b6c:	00000035 	udf	#53
     b70:	00000393 	udf	#915
     b74:	00000383 	udf	#899
     b78:	00021d02 	.inst	0x00021d02 ; undefined
     b7c:	3509ad00 	cbnz	w0, 1411c <__bss_size+0x1410a>
     b80:	d6000000 	.inst	0xd6000000 ; undefined
     b84:	d2000003 	eor	x3, x0, #0x100000001
     b88:	02000003 	.inst	0x02000003 ; undefined
     b8c:	000001c3 	udf	#451
     b90:	003509ae 	.inst	0x003509ae ; NYI
     b94:	03ed0000 	.inst	0x03ed0000 ; undefined
     b98:	03e90000 	.inst	0x03e90000 ; undefined
     b9c:	b1170000 	adds	x0, x0, #0x5c0
     ba0:	af000001 	.inst	0xaf000001 ; undefined
     ba4:	0004ce0a 	.inst	0x0004ce0a ; undefined
     ba8:	68910200 	stgp	x0, x0, [x16], #544
     bac:	00020a0e 	.inst	0x00020a0e ; undefined
     bb0:	00029b00 	.inst	0x00029b00 ; undefined
     bb4:	00690900 	.inst	0x00690900 ; undefined
     bb8:	003511b8 	.inst	0x003511b8 ; NYI
     bbc:	04020000 	.inst	0x04020000 ; undefined
     bc0:	04000000 	add	z0.b, p0/m, z0.b, z0.b
     bc4:	28000000 	stnp	w0, w0, [x0]
     bc8:	00060f80 	.inst	0x00060f80 ; undefined
     bcc:	00000000 	udf	#0
     bd0:	00000020 	udf	#32
     bd4:	00000000 	udf	#0
     bd8:	00000314 	udf	#788
     bdc:	00010904 	.inst	0x00010904 ; undefined
     be0:	350d8e00 	cbnz	w0, 1bda0 <__bss_size+0x1bd8e>
     be4:	c1000000 	.inst	0xc1000000 ; undefined
     be8:	05000002 	orr	z2.s, z2.s, #0x1
     bec:	0f8c1600 	.inst	0x0f8c1600 ; undefined
     bf0:	00000006 	udf	#6
     bf4:	005e0000 	.inst	0x005e0000 ; undefined
     bf8:	02e00000 	.inst	0x02e00000 ; undefined
     bfc:	01070000 	.inst	0x01070000 ; undefined
     c00:	20030950 	.inst	0x20030950 ; undefined
     c04:	00000613 	udf	#1555
     c08:	00000000 	udf	#0
     c0c:	060f9416 	.inst	0x060f9416 ; undefined
     c10:	00000000 	udf	#0
     c14:	00005e00 	udf	#24064
     c18:	0002f800 	.inst	0x0002f800 ; undefined
     c1c:	50010700 	adr	x0, 2cfe <__bss_size+0x2cec>
     c20:	00008302 	udf	#33538
     c24:	060fa010 	.inst	0x060fa010 ; undefined
     c28:	00000000 	udf	#0
     c2c:	00005e00 	udf	#24064
     c30:	50010700 	adr	x0, 2d12 <__bss_size+0x2d00>
     c34:	13880309 	extr	w9, w24, w8, #0
     c38:	00000006 	udf	#6
     c3c:	00000000 	udf	#0
     c40:	0002200e 	.inst	0x0002200e ; undefined
     c44:	00039900 	.inst	0x00039900 ; undefined
     c48:	00690900 	.inst	0x00690900 ; undefined
     c4c:	003515d7 	.inst	0x003515d7 ; NYI
     c50:	040d0000 	uabd	z0.b, p0/m, z0.b, z0.b
     c54:	040b0000 	umin	z0.b, p0/m, z0.b, z0.b
     c58:	2b060000 	adds	w0, w0, w6
     c5c:	04000002 	add	z2.b, p0/m, z2.b, z0.b
     c60:	0000017c 	udf	#380
     c64:	00351193 	.inst	0x00351193 ; NYI
     c68:	03440000 	.inst	0x03440000 ; undefined
     c6c:	00050000 	.inst	0x00050000 ; undefined
     c70:	000aa70a 	.inst	0x000aa70a ; undefined
     c74:	060f3000 	.inst	0x060f3000 ; undefined
     c78:	00000000 	udf	#0
     c7c:	023b0000 	.inst	0x023b0000 ; undefined
     c80:	15d90000 	b	7640c80 <__bss_end+0x75df700>
     c84:	00000377 	udf	#887
     c88:	000abe01 	.inst	0x000abe01 ; undefined
     c8c:	00041c00 	.inst	0x00041c00 ; undefined
     c90:	00041600 	.inst	0x00041600 ; undefined
     c94:	0ab50100 	bic	w0, w8, w21, asr #0
     c98:	04400000 	add	z0.h, p0/m, z0.h, z0.h
     c9c:	04340000 	add	z0.b, z0.b, z20.b
     ca0:	0c000000 	st4	{v0.8b-v3.8b}, [x0]
     ca4:	00060f2c 	.inst	0x00060f2c ; undefined
     ca8:	00000000 	udf	#0
     cac:	0000004d 	udf	#77
     cb0:	060fc410 	.inst	0x060fc410 ; undefined
     cb4:	00000000 	udf	#0
     cb8:	00004d00 	udf	#19712
     cbc:	50010700 	adr	x0, 2d9e <__bss_size+0x2d8c>
     cc0:	00003d01 	udf	#15617
     cc4:	0a860a00 	and	w0, w16, w6, asr #2
     cc8:	0d000000 	st1	{v0.b}[0], [x0]
     ccc:	00000006 	udf	#6
     cd0:	d0020000 	adrp	x0, 4002000 <__bss_end+0x3fa0a80>
     cd4:	a7000001 	.inst	0xa7000001 ; undefined
     cd8:	0003d20f 	.inst	0x0003d20f ; undefined
     cdc:	0a940100 	and	w0, w8, w20, asr #0
     ce0:	04880000 	smax	z0.s, p0/m, z0.s, z0.s
     ce4:	04840000 	.inst	0x04840000 ; undefined
     ce8:	d0060000 	adrp	x0, c002000 <__bss_end+0xbfa0a80>
     cec:	03000001 	.inst	0x03000001 ; undefined
     cf0:	00000a9d 	udf	#2717
     cf4:	000004a1 	udf	#1185
     cf8:	00000497 	udf	#1175
     cfc:	480a0000 	stxrh	w10, w0, [x0]
     d00:	4000000a 	.inst	0x4000000a ; undefined
     d04:	0000060d 	udf	#1549
     d08:	01000000 	.inst	0x01000000 ; undefined
     d0c:	000001e0 	udf	#480
     d10:	046405b0 	sub	z16.h, z13.h, z4.h
     d14:	71010000 	subs	w0, w0, #0x40
     d18:	cd00000a 	.inst	0xcd00000a ; undefined
     d1c:	c7000004 	.inst	0xc7000004 ; undefined
     d20:	01000004 	.inst	0x01000004 ; undefined
     d24:	00000a66 	udf	#2662
     d28:	000004ed 	udf	#1261
     d2c:	000004e9 	udf	#1257
     d30:	000a5b01 	.inst	0x000a5b01 ; undefined
     d34:	00050200 	.inst	0x00050200 ; undefined
     d38:	0004fe00 	.inst	0x0004fe00 ; undefined
     d3c:	0a520100 	and	w0, w8, w18, lsr #0
     d40:	05170000 	mov	z0.b, p7/z, #0
     d44:	05110000 	mov	z0.b, p1/z, #0
     d48:	e0060000 	ld1b	{za0h.b[w12, 0]}, p0/z, [x0, x6]
     d4c:	19000001 	stlurb	w1, [x0]
     d50:	00000a7c 	udf	#2684
     d54:	000a4829 	.inst	0x000a4829 ; undefined
     d58:	060d5000 	.inst	0x060d5000 ; undefined
     d5c:	00000000 	udf	#0
     d60:	00002c00 	udf	#11264
     d64:	00000000 	udf	#0
     d68:	06240100 	.inst	0x06240100 ; undefined
     d6c:	000a7108 	.inst	0x000a7108 ; undefined
     d70:	0a660800 	bic	w0, w0, w6, lsr #2
     d74:	5b080000 	.inst	0x5b080000 ; undefined
     d78:	0800000a 	stxrb	w0, w10, [x0]
     d7c:	00000a52 	udf	#2642
     d80:	000a7c03 	.inst	0x000a7c03 ; undefined
     d84:	00053200 	.inst	0x00053200 ; undefined
     d88:	00053000 	.inst	0x00053000 ; undefined
     d8c:	00000000 	udf	#0
     d90:	000aa70a 	.inst	0x000aa70a ; undefined
     d94:	060e9400 	.inst	0x060e9400 ; undefined
     d98:	00000000 	udf	#0
     d9c:	01f00100 	.inst	0x01f00100 ; undefined
     da0:	06cf0000 	.inst	0x06cf0000 ; undefined
     da4:	00000497 	udf	#1175
     da8:	000abe01 	.inst	0x000abe01 ; undefined
     dac:	00054600 	.inst	0x00054600 ; undefined
     db0:	00053a00 	.inst	0x00053a00 ; undefined
     db4:	0ab50100 	bic	w0, w8, w21, asr #0
     db8:	05b70000 	zip1	z0.q, z0.q, z23.q
     dbc:	05b30000 	zip1	z0.q, z0.q, z19.q
     dc0:	1a000000 	adc	w0, w0, w0
     dc4:	00000aa7 	udf	#2727
     dc8:	00000215 	udf	#533
     dcc:	0abe01d6 	bic	w22, w14, w30, asr #0
     dd0:	05c80000 	.inst	0x05c80000 ; undefined
     dd4:	05c60000 	.inst	0x05c60000 ; undefined
     dd8:	b5010000 	cbnz	x0, 2dd8 <__bss_size+0x2dc6>
     ddc:	d600000a 	.inst	0xd600000a ; undefined
     de0:	d0000005 	adrp	x5, 2000 <__bss_size+0x1fee>
     de4:	00000005 	udf	#5
     de8:	04c91800 	umax	z0.d, p6/m, z0.d, z0.d
     dec:	010f0000 	.inst	0x010f0000 ; undefined
     df0:	00011808 	.inst	0x00011808 ; undefined
     df4:	04c22a00 	.inst	0x04c22a00 ; undefined
     df8:	d51b0000 	msr	s3_3_c0_c0_0, x0
     dfc:	de000000 	.inst	0xde000000 ; undefined
     e00:	1c000004 	ldr	s4, e00 <__bss_size+0xdee>
     e04:	000004de 	udf	#1246
     e08:	080f0013 	stxrb	w15, w19, [x0]
     e0c:	00004907 	udf	#18695
     e10:	01a82b00 	.inst	0x01a82b00 ; undefined
     e14:	9e010000 	.inst	0x9e010000 ; undefined
     e18:	00003505 	udf	#13573
     e1c:	060cd000 	.inst	0x060cd000 ; undefined
     e20:	00000000 	udf	#0
     e24:	00003000 	udf	#12288
     e28:	00000000 	udf	#0
     e2c:	3d9c0100 	str	q0, [x8, #28672]
     e30:	0d000005 	st1	{v5.b}[0], [x0]
     e34:	000000eb 	udf	#235
     e38:	00d0149e 	.inst	0x00d0149e ; undefined
     e3c:	05f80000 	.inst	0x05f80000 ; undefined
     e40:	05f00000 	.inst	0x05f00000 ; undefined
     e44:	73110000 	.inst	0x73110000 ; undefined
     e48:	9f007274 	.inst	0x9f007274 ; undefined
     e4c:	00053d07 	.inst	0x00053d07 ; undefined
     e50:	01c50600 	.inst	0x01c50600 ; undefined
     e54:	69090000 	stgp	x0, x0, [x0, #288]
     e58:	350aa000 	cbnz	w0, 16258 <__bss_size+0x16246>
     e5c:	21000000 	.inst	0x21000000 ; undefined
     e60:	1b000006 	madd	w6, w0, w0, w0
     e64:	00000006 	udf	#6
     e68:	00d51b00 	.inst	0x00d51b00 ; undefined
     e6c:	054d0000 	.inst	0x054d0000 ; undefined
     e70:	de1c0000 	.inst	0xde1c0000 ; undefined
     e74:	03000004 	.inst	0x03000004 ; undefined
     e78:	736c2c00 	.inst	0x736c2c00 ; undefined
     e7c:	05660100 	ext	z0.b, {z8.b, z9.b}, #48
     e80:	00000035 	udf	#53
     e84:	000609e0 	.inst	0x000609e0 ; undefined
     e88:	00000000 	udf	#0
     e8c:	000002f0 	udf	#752
     e90:	00000000 	udf	#0
     e94:	076a9c01 	.inst	0x076a9c01 ; undefined
     e98:	eb0d0000 	subs	x0, x0, x13
     e9c:	66000000 	.inst	0x66000000 ; undefined
     ea0:	0000d00d 	udf	#53261
     ea4:	00064600 	.inst	0x00064600 ; undefined
     ea8:	00063a00 	.inst	0x00063a00 ; undefined
     eac:	01860d00 	.inst	0x01860d00 ; undefined
     eb0:	1c660000 	ldr	s0, cceb0 <__bss_end+0x6b930>
     eb4:	00000035 	udf	#53
     eb8:	00000683 	udf	#1667
     ebc:	00000677 	udf	#1655
     ec0:	00003602 	udf	#13826
     ec4:	bd1d6800 	str	s0, [x0, #7528]
     ec8:	be000004 	.inst	0xbe000004 ; undefined
     ecc:	b4000006 	cbz	x6, ecc <__bss_size+0xeba>
     ed0:	02000006 	.inst	0x02000006 ; undefined
     ed4:	000001de 	udf	#478
     ed8:	04bd1d6a 	uqsub	z10.s, z11.s, z29.s
     edc:	070b0000 	.inst	0x070b0000 ; undefined
     ee0:	06fb0000 	.inst	0x06fb0000 ; undefined
     ee4:	92020000 	and	x0, x0, #0x4000000040000000
     ee8:	6b000001 	subs	w1, w0, w0
     eec:	00003509 	udf	#13577
     ef0:	00075900 	.inst	0x00075900 ; undefined
     ef4:	00074f00 	.inst	0x00074f00 ; undefined
     ef8:	02340200 	.inst	0x02340200 ; undefined
     efc:	096c0000 	.inst	0x096c0000 ; undefined
     f00:	00000035 	udf	#53
     f04:	00000788 	udf	#1928
     f08:	0000077e 	udf	#1918
     f0c:	00021d1d 	.inst	0x00021d1d ; undefined
     f10:	00356d00 	.inst	0x00356d00 ; NYI
     f14:	1d360000 	.inst	0x1d360000 ; undefined
     f18:	000001c3 	udf	#451
     f1c:	0000356e 	udf	#13678
     f20:	650e5e00 	.inst	0x650e5e00 ; undefined
     f24:	11000001 	add	w1, w0, #0x0
     f28:	09000006 	.inst	0x09000006 ; undefined
     f2c:	11740069 	add	w9, w3, #0xd00, lsl #12
     f30:	00000035 	udf	#53
     f34:	000007af 	udf	#1967
     f38:	000007ad 	udf	#1965
     f3c:	013b0e00 	.inst	0x013b0e00 ; undefined
     f40:	06580000 	.inst	0x06580000 ; undefined
     f44:	09040000 	.inst	0x09040000 ; undefined
     f48:	8e000001 	.inst	0x8e000001 ; undefined
     f4c:	0000350d 	udf	#13581
     f50:	00062b00 	.inst	0x00062b00 ; undefined
     f54:	16000500 	b	fffffffff8002354 <__bss_end+0xfffffffff7fa0dd4>
     f58:	00060bc0 	.inst	0x00060bc0 ; undefined
     f5c:	00000000 	udf	#0
     f60:	0000005e 	udf	#94
     f64:	00000643 	udf	#1603
     f68:	02500107 	.inst	0x02500107 ; undefined
     f6c:	1000008a 	adr	x10, f7c <__bss_size+0xf6a>
     f70:	00060bc8 	.inst	0x00060bc8 ; undefined
     f74:	00000000 	udf	#0
     f78:	0000005e 	udf	#94
     f7c:	02500107 	.inst	0x02500107 ; undefined
     f80:	00000085 	udf	#133
     f84:	00019a0e 	.inst	0x00019a0e ; undefined
     f88:	0006dd00 	.inst	0x0006dd00 ; undefined
     f8c:	00690900 	.inst	0x00690900 ; undefined
     f90:	00351592 	.inst	0x00351592 ; NYI
     f94:	07ba0000 	.inst	0x07ba0000 ; undefined
     f98:	07b80000 	.inst	0x07b80000 ; undefined
     f9c:	a5060000 	ld1rqw	{z0.s}, p0/z, [x0, x6, lsl #2]
     fa0:	04000001 	add	z1.b, p0/m, z1.b, z0.b
     fa4:	0000017c 	udf	#380
     fa8:	00351193 	.inst	0x00351193 ; NYI
     fac:	06880000 	.inst	0x06880000 ; undefined
     fb0:	00050000 	.inst	0x00050000 ; undefined
     fb4:	000aa70a 	.inst	0x000aa70a ; undefined
     fb8:	060c2000 	.inst	0x060c2000 ; undefined
     fbc:	00000000 	udf	#0
     fc0:	01b50000 	.inst	0x01b50000 ; undefined
     fc4:	15940000 	b	6500fc4 <__bss_end+0x649fa44>
     fc8:	000006bb 	udf	#1723
     fcc:	000abe01 	.inst	0x000abe01 ; undefined
     fd0:	0007c900 	.inst	0x0007c900 ; undefined
     fd4:	0007c300 	.inst	0x0007c300 ; undefined
     fd8:	0ab50100 	bic	w0, w8, w21, asr #0
     fdc:	07ed0000 	.inst	0x07ed0000 ; undefined
     fe0:	07e10000 	.inst	0x07e10000 ; undefined
     fe4:	0c000000 	st4	{v0.8b-v3.8b}, [x0]
     fe8:	00060c1c 	.inst	0x00060c1c ; undefined
     fec:	00000000 	udf	#0
     ff0:	0000004d 	udf	#77
     ff4:	060cc410 	.inst	0x060cc410 ; undefined
     ff8:	00000000 	udf	#0
     ffc:	00004d00 	udf	#19712
    1000:	50010700 	adr	x0, 30e2 <__bss_size+0x30d0>
    1004:	00003d01 	udf	#15617
    1008:	0aa71e00 	bic	w0, w16, w7, asr #7
    100c:	01460000 	.inst	0x01460000 ; undefined
    1010:	0c8d0000 	st4	{v0.8b-v3.8b}, [x0], x13
    1014:	00000707 	udf	#1799
    1018:	000abe01 	.inst	0x000abe01 ; undefined
    101c:	00083b00 	.inst	0x00083b00 ; undefined
    1020:	00083100 	.inst	0x00083100 ; undefined
    1024:	0ab50100 	bic	w0, w8, w21, asr #0
    1028:	089a0000 	stllrb	w0, [x0]
    102c:	08980000 	stllrb	w0, [x0]
    1030:	0a000000 	and	w0, w0, w0
    1034:	00000aa7 	udf	#2727
    1038:	00060b1c 	.inst	0x00060b1c ; undefined
    103c:	00000000 	udf	#0
    1040:	00017001 	.inst	0x00017001 ; undefined
    1044:	3a0d8a00 	.inst	0x3a0d8a00 ; undefined
    1048:	01000007 	.inst	0x01000007 ; undefined
    104c:	00000abe 	udf	#2750
    1050:	000008ac 	udf	#2220
    1054:	000008a2 	udf	#2210
    1058:	000ab501 	.inst	0x000ab501 ; undefined
    105c:	00090b00 	.inst	0x00090b00 ; undefined
    1060:	00090900 	.inst	0x00090900 ; undefined
    1064:	a71f0000 	.inst	0xa71f0000 ; undefined
    1068:	c800000a 	stxr	w0, x10, [x0]
    106c:	0000060b 	udf	#1547
    1070:	01000000 	.inst	0x01000000 ; undefined
    1074:	0000018a 	udf	#394
    1078:	be010d91 	.inst	0xbe010d91 ; undefined
    107c:	1700000a 	b	fffffffffc0010a4 <__bss_end+0xfffffffffbf9fb24>
    1080:	13000009 	sbfx	w9, w0, #0, #1
    1084:	01000009 	.inst	0x01000009 ; undefined
    1088:	00000ab5 	udf	#2741
    108c:	0000092e 	udf	#2350
    1090:	00000926 	udf	#2342
    1094:	ee150000 	.inst	0xee150000 ; undefined
    1098:	59000001 	stlurh	w1, [x0]
    109c:	00060750 	.inst	0x00060750 ; undefined
    10a0:	00000000 	udf	#0
    10a4:	00000088 	udf	#136
    10a8:	00000000 	udf	#0
    10ac:	085b9c01 	ldaxrb	w1, [x0]
    10b0:	732d0000 	.inst	0x732d0000 ; undefined
    10b4:	17590100 	b	fffffffffd6414b4 <__bss_end+0xfffffffffd5dff34>
    10b8:	000000d0 	udf	#208
    10bc:	69095001 	stgp	x1, x20, [x0, #288]
    10c0:	35095b00 	cbnz	w0, 13c20 <__bss_size+0x13c0e>
    10c4:	57000000 	.inst	0x57000000 ; undefined
    10c8:	4f000009 	.inst	0x4f000009 ; undefined
    10cc:	02000009 	.inst	0x02000009 ; undefined
    10d0:	000001be 	udf	#446
    10d4:	00d50a5c 	.inst	0x00d50a5c ; undefined
    10d8:	09790000 	.inst	0x09790000 ; undefined
    10dc:	09770000 	.inst	0x09770000 ; undefined
    10e0:	860a0000 	.inst	0x860a0000 ; undefined
    10e4:	5800000a 	ldr	x10, 10e4 <__bss_size+0x10d2>
    10e8:	00000607 	udf	#1543
    10ec:	01000000 	.inst	0x01000000 ; undefined
    10f0:	000000f0 	udf	#240
    10f4:	07ef165e 	.inst	0x07ef165e ; undefined
    10f8:	94010000 	bl	410f8 <__bss_size+0x410e6>
    10fc:	8500000a 	.inst	0x8500000a ; undefined
    1100:	81000009 	.inst	0x81000009 ; undefined
    1104:	06000009 	.inst	0x06000009 ; undefined
    1108:	000000f0 	udf	#240
    110c:	000a9d03 	.inst	0x000a9d03 ; undefined
    1110:	00099e00 	.inst	0x00099e00 ; undefined
    1114:	00099400 	.inst	0x00099400 ; undefined
    1118:	2e000000 	ext	v0.8b, v0.8b, v0.8b, #0
    111c:	00000a86 	udf	#2694
    1120:	00060788 	.inst	0x00060788 ; undefined
    1124:	00000000 	udf	#0
    1128:	00000010 	udf	#16
    112c:	00000000 	udf	#0
    1130:	1e126001 	.inst	0x1e126001 ; undefined
    1134:	08000008 	stxrb	w0, w8, [x0]
    1138:	00000a94 	udf	#2708
    113c:	000a9d03 	.inst	0x000a9d03 ; undefined
    1140:	0009cc00 	.inst	0x0009cc00 ; undefined
    1144:	0009c600 	.inst	0x0009c600 ; undefined
    1148:	862f0000 	.inst	0x862f0000 ; undefined
    114c:	a800000a 	stnp	x10, x0, [x0]
    1150:	00000607 	udf	#1543
    1154:	01000000 	.inst	0x01000000 ; undefined
    1158:	000607a8 	.inst	0x000607a8 ; undefined
    115c:	00000000 	udf	#0
    1160:	00000010 	udf	#16
    1164:	00000000 	udf	#0
    1168:	010b6101 	.inst	0x010b6101 ; undefined
    116c:	00000a94 	udf	#2708
    1170:	000009e6 	udf	#2534
    1174:	000009e4 	udf	#2532
    1178:	000a9d03 	.inst	0x000a9d03 ; undefined
    117c:	0009f600 	.inst	0x0009f600 ; undefined
    1180:	0009ee00 	.inst	0x0009ee00 ; undefined
    1184:	15000000 	b	4001184 <__bss_end+0x3f9fc04>
    1188:	000001f6 	udf	#502
    118c:	06086440 	.inst	0x06086440 ; undefined
    1190:	00000000 	udf	#0
    1194:	00017c00 	.inst	0x00017c00 ; undefined
    1198:	00000000 	udf	#0
    119c:	179c0100 	b	fffffffffe70159c <__bss_end+0xfffffffffe6a001c>
    11a0:	2000000a 	.inst	0x2000000a ; undefined
    11a4:	1140006e 	add	w14, w3, #0x0, lsl #12
    11a8:	0000002e 	udf	#46
    11ac:	00000a20 	udf	#2592
    11b0:	00000a16 	udf	#2582
    11b4:	73657220 	.inst	0x73657220 ; undefined
    11b8:	d01a4000 	adrp	x0, 34803000 <__bss_end+0x347a1a80>
    11bc:	5b000000 	.inst	0x5b000000 ; undefined
    11c0:	5100000a 	sub	w10, w0, #0x0
    11c4:	0d00000a 	st1	{v10.b}[0], [x0]
    11c8:	00000212 	udf	#530
    11cc:	00352340 	.inst	0x00352340 ; NYI
    11d0:	0a8d0000 	and	w0, w0, w13, asr #0
    11d4:	0a850000 	and	w0, w0, w5, asr #0
    11d8:	4c020000 	.inst	0x4c020000 ; undefined
    11dc:	43000002 	.inst	0x43000002 ; undefined
    11e0:	00003509 	udf	#13577
    11e4:	000aac00 	.inst	0x000aac00 ; undefined
    11e8:	000aaa00 	.inst	0x000aaa00 ; undefined
    11ec:	01a20200 	.inst	0x01a20200 ; undefined
    11f0:	0b460000 	add	w0, w0, w6, lsr #0
    11f4:	0000002e 	udf	#46
    11f8:	00000abc 	udf	#2748
    11fc:	00000ab4 	udf	#2740
    1200:	4a006909 	eor	w9, w8, w0, lsl #26
    1204:	00003509 	udf	#13577
    1208:	000b0700 	.inst	0x000b0700 ; undefined
    120c:	000b0300 	.inst	0x000b0300 ; undefined
    1210:	0a170a00 	and	w0, w16, w23, lsl #2
    1214:	08680000 	.inst	0x08680000 ; undefined
    1218:	00000006 	udf	#6
    121c:	00020000 	.inst	0x00020000 ; undefined
    1220:	49000001 	.inst	0x49000001 ; undefined
    1224:	00094505 	.inst	0x00094505 ; undefined
    1228:	0a350100 	bic	w0, w8, w21
    122c:	0b1c0000 	add	w0, w0, w28
    1230:	0b180000 	add	w0, w0, w24
    1234:	2a010000 	orr	w0, w0, w1
    1238:	3100000a 	adds	w10, w0, #0x0
    123c:	2d00000b 	stp	s11, s0, [x0]
    1240:	0100000b 	.inst	0x0100000b ; undefined
    1244:	00000a21 	udf	#2593
    1248:	00000b48 	udf	#2888
    124c:	00000b40 	udf	#2880
    1250:	00010006 	.inst	0x00010006 ; undefined
    1254:	0a3e0300 	bic	w0, w24, w30
    1258:	0b6f0000 	.inst	0x0b6f0000 ; undefined
    125c:	0b650000 	.inst	0x0b650000 ; undefined
    1260:	c80c0000 	stxr	w12, x0, [x0]
    1264:	00000608 	udf	#1544
    1268:	6a000000 	ands	w0, w0, w0
    126c:	00000007 	udf	#7
    1270:	0a861e00 	and	w0, w16, w6, asr #7
    1274:	01100000 	.inst	0x01100000 ; undefined
    1278:	0d4a0000 	.inst	0x0d4a0000 ; undefined
    127c:	0000096d 	udf	#2413
    1280:	000a9408 	.inst	0x000a9408 ; undefined
    1284:	01100600 	.inst	0x01100600 ; undefined
    1288:	9d030000 	.inst	0x9d030000 ; undefined
    128c:	9f00000a 	.inst	0x9f00000a ; undefined
    1290:	9700000b 	bl	fffffffffc0012bc <__bss_end+0xfffffffffbf9fd3c>
    1294:	0000000b 	udf	#11
    1298:	0ac80a00 	and	w0, w16, w8, ror #2
    129c:	09080000 	.inst	0x09080000 ; undefined
    12a0:	00000006 	udf	#6
    12a4:	20020000 	.inst	0x20020000 ; undefined
    12a8:	53000001 	ubfx	w1, w0, #0, #1
    12ac:	0009b319 	.inst	0x0009b319 ; undefined
    12b0:	0ae40100 	bic	w0, w8, w4, ror #0
    12b4:	0bc60000 	.inst	0x0bc60000 ; undefined
    12b8:	0bc00000 	.inst	0x0bc00000 ; undefined
    12bc:	d9010000 	stlur	x0, [x0, #16]
    12c0:	e000000a 	ld1b	{za0h.b[w12, 10]}, p0/z, [x0, x0]
    12c4:	de00000b 	.inst	0xde00000b ; undefined
    12c8:	0600000b 	.inst	0x0600000b ; undefined
    12cc:	00000120 	udf	#288
    12d0:	000aef03 	.inst	0x000aef03 ; undefined
    12d4:	000bef00 	.inst	0x000bef00 ; undefined
    12d8:	000be900 	.inst	0x000be900 ; undefined
    12dc:	1f000000 	fmadd	s0, s0, s0, s0
    12e0:	00000a17 	udf	#2583
    12e4:	0006093c 	.inst	0x0006093c ; undefined
    12e8:	00000000 	udf	#0
    12ec:	00012b00 	.inst	0x00012b00 ; undefined
    12f0:	01095500 	.inst	0x01095500 ; undefined
    12f4:	00000a35 	udf	#2613
    12f8:	00000c0a 	udf	#3082
    12fc:	00000c06 	udf	#3078
    1300:	000a2a01 	.inst	0x000a2a01 ; undefined
    1304:	000c1f00 	.inst	0x000c1f00 ; undefined
    1308:	000c1900 	.inst	0x000c1900 ; undefined
    130c:	0a210100 	bic	w0, w8, w1
    1310:	0c3b0000 	.inst	0x0c3b0000 ; undefined
    1314:	0c350000 	.inst	0x0c350000 ; undefined
    1318:	2b060000 	adds	w0, w0, w6
    131c:	03000001 	.inst	0x03000001 ; undefined
    1320:	00000a3e 	udf	#2622
    1324:	00000c5d 	udf	#3165
    1328:	00000c51 	udf	#3153
    132c:	0609b414 	.inst	0x0609b414 ; undefined
    1330:	00000000 	udf	#0
    1334:	00076a00 	.inst	0x00076a00 ; undefined
    1338:	50010700 	adr	x0, 341a <__bss_size+0x3408>
    133c:	00007002 	udf	#28674
    1340:	21000000 	.inst	0x21000000 ; undefined
    1344:	000001d4 	udf	#468
    1348:	000a482e 	.inst	0x000a482e ; undefined
    134c:	00780b00 	.inst	0x00780b00 ; undefined
    1350:	0035102e 	.inst	0x0035102e ; NYI
    1354:	730b0000 	.inst	0x730b0000 ; undefined
    1358:	2e007274 	.inst	0x2e007274 ; undefined
    135c:	0000d018 	udf	#53272
    1360:	00640b00 	.inst	0x00640b00 ; undefined
    1364:	0035232e 	.inst	0x0035232e ; NYI
    1368:	69110000 	stgp	x0, x0, [x0, #544]
    136c:	35093000 	cbnz	w0, 1396c <__bss_size+0x1395a>
    1370:	00000000 	udf	#0
    1374:	00020b21 	.inst	0x00020b21 ; undefined
    1378:	0a862400 	and	w0, w0, w6, asr #9
    137c:	730b0000 	.inst	0x730b0000 ; undefined
    1380:	d0122400 	adrp	x0, 24483000 <__bss_end+0x24421a80>
    1384:	12000000 	and	w0, w0, #0x1
    1388:	000001b1 	udf	#433
    138c:	00d01e24 	.inst	0x00d01e24 ; undefined
    1390:	9c120000 	ldr	q0, 25390 <__bss_size+0x2537e>
    1394:	24000001 	cmphs	p1.b, p0/z, z0.b, z0.b
    1398:	0000352e 	udf	#13614
    139c:	656c0b00 	fmla	z0.h, p2/m, z24.h, z12.h
    13a0:	3924006e 	strb	w14, [x3, #2304]
    13a4:	00000035 	udf	#53
    13a8:	26006911 	.inst	0x26006911 ; undefined
    13ac:	00003506 	udf	#13574
    13b0:	fb220000 	.inst	0xfb220000 ; undefined
    13b4:	17000001 	b	fffffffffc0013b8 <__bss_end+0xfffffffffbf9fe38>
    13b8:	00000035 	udf	#53
    13bc:	00000aa7 	udf	#2727
    13c0:	1700730b 	b	fffffffffc01dfec <__bss_end+0xfffffffffbfbca6c>
    13c4:	0000d015 	udf	#53269
    13c8:	00691100 	.inst	0x00691100 ; undefined
    13cc:	00350919 	.inst	0x00350919 ; NYI
    13d0:	22000000 	.inst	0x22000000 ; undefined
    13d4:	00000133 	udf	#307
    13d8:	0000350d 	udf	#13581
    13dc:	000ac800 	.inst	0x000ac800 ; undefined
    13e0:	00610b00 	.inst	0x00610b00 ; undefined
    13e4:	00d0120d 	.inst	0x00d0120d ; undefined
    13e8:	620b0000 	.inst	0x620b0000 ; undefined
    13ec:	d01a0d00 	adrp	x0, 341a3000 <__bss_end+0x34141a80>
    13f0:	00000000 	udf	#0
    13f4:	776f7030 	.inst	0x776f7030 ; undefined
    13f8:	05030100 	orr	z0.d, z0.d, #0x1ff00000000
    13fc:	00000035 	udf	#53
    1400:	000afc01 	.inst	0x000afc01 ; undefined
    1404:	01d91200 	.inst	0x01d91200 ; undefined
    1408:	0d030000 	.inst	0x0d030000 ; undefined
    140c:	00000035 	udf	#53
    1410:	00020212 	.inst	0x00020212 ; undefined
    1414:	35170300 	cbnz	w0, 2f474 <__bss_size+0x2f462>
    1418:	31000000 	adds	w0, w0, #0x0
    141c:	000001e7 	udf	#487
    1420:	35090501 	cbnz	w1, 134c0 <__bss_size+0x134ae>
    1424:	00000000 	udf	#0
    1428:	000ac813 	.inst	0x000ac813 ; undefined
    142c:	06067000 	.inst	0x06067000 ; undefined
    1430:	00000000 	udf	#0
    1434:	00002000 	udf	#8192
    1438:	00000000 	udf	#0
    143c:	3f9c0100 	.inst	0x3f9c0100 ; undefined
    1440:	0100000b 	.inst	0x0100000b ; undefined
    1444:	00000ad9 	udf	#2777
    1448:	00000c92 	udf	#3218
    144c:	00000c8e 	udf	#3214
    1450:	000ae401 	.inst	0x000ae401 ; undefined
    1454:	000ca300 	.inst	0x000ca300 ; undefined
    1458:	000c9d00 	.inst	0x000c9d00 ; undefined
    145c:	0aef0300 	bic	w0, w24, w15, ror #0
    1460:	0cb90000 	.inst	0x0cb90000 ; undefined
    1464:	0cb50000 	.inst	0x0cb50000 ; undefined
    1468:	13000000 	sbfx	w0, w0, #0, #1
    146c:	00000aa7 	udf	#2727
    1470:	00060690 	.inst	0x00060690 ; undefined
    1474:	00000000 	udf	#0
    1478:	0000003c 	udf	#60
    147c:	00000000 	udf	#0
    1480:	0b759c01 	.inst	0x0b759c01 ; undefined
    1484:	b5010000 	cbnz	x0, 3484 <__bss_size+0x3472>
    1488:	cd00000a 	.inst	0xcd00000a ; undefined
    148c:	c500000c 	ld1sw	{z12.d}, p0/z, [x0, z0.d, uxtw]
    1490:	0100000c 	.inst	0x0100000c ; undefined
    1494:	00000abe 	udf	#2750
    1498:	00000cea 	udf	#3306
    149c:	00000ce6 	udf	#3302
    14a0:	0a861300 	and	w0, w24, w6, asr #4
    14a4:	06d00000 	.inst	0x06d00000 ; undefined
    14a8:	00000006 	udf	#6
    14ac:	002c0000 	.inst	0x002c0000 ; NYI
    14b0:	00000000 	udf	#0
    14b4:	9c010000 	ldr	q0, 34b4 <__bss_size+0x34a2>
    14b8:	00000bab 	udf	#2987
    14bc:	000a9401 	.inst	0x000a9401 ; undefined
    14c0:	000cfd00 	.inst	0x000cfd00 ; undefined
    14c4:	000cf500 	.inst	0x000cf500 ; undefined
    14c8:	0a9d0300 	and	w0, w24, w29, asr #0
    14cc:	0d260000 	.inst	0x0d260000 ; undefined
    14d0:	0d1c0000 	.inst	0x0d1c0000 ; undefined
    14d4:	13000000 	sbfx	w0, w0, #0, #1
    14d8:	00000a48 	udf	#2632
    14dc:	00060700 	.inst	0x00060700 ; undefined
    14e0:	00000000 	udf	#0
    14e4:	00000048 	udf	#72
    14e8:	00000000 	udf	#0
    14ec:	0c269c01 	.inst	0x0c269c01 ; undefined
    14f0:	52230000 	eor	w0, w0, #0x20000000
    14f4:	0100000a 	.inst	0x0100000a ; undefined
    14f8:	0a5b2350 	and	w16, w26, w27, lsr #8
    14fc:	51010000 	sub	w0, w0, #0x40
    1500:	000a6601 	.inst	0x000a6601 ; undefined
    1504:	000d4d00 	.inst	0x000d4d00 ; undefined
    1508:	000d4700 	.inst	0x000d4700 ; undefined
    150c:	0a710100 	bic	w0, w8, w17, lsr #0
    1510:	0d6a0000 	.inst	0x0d6a0000 ; undefined
    1514:	0d660000 	.inst	0x0d660000 ; undefined
    1518:	7c190000 	stur	h0, [x0, #-112]
    151c:	1a00000a 	adc	w10, w0, w0
    1520:	00000a48 	udf	#2632
    1524:	000000e5 	udf	#229
    1528:	0a710824 	bic	w4, w1, w17, lsr #2
    152c:	66080000 	.inst	0x66080000 ; undefined
    1530:	0800000a 	stxrb	w0, w10, [x0]
    1534:	00000a5b 	udf	#2651
    1538:	000a5208 	.inst	0x000a5208 ; undefined
    153c:	00e50600 	.inst	0x00e50600 ; undefined
    1540:	7c030000 	stur	h0, [x0, #48]
    1544:	8200000a 	.inst	0x8200000a ; undefined
    1548:	7c00000d 	stur	h13, [x0]
    154c:	0000000d 	udf	#13
    1550:	17320000 	b	fffffffffcc81550 <__bss_end+0xfffffffffcc1ffd0>
    1554:	e000000a 	ld1b	{za0h.b[w12, 10]}, p0/z, [x0, x0]
    1558:	00000607 	udf	#1543
    155c:	84000000 	ld1sb	{z0.s}, p0/z, [x0, z0.s, uxtw]
    1560:	00000000 	udf	#0
    1564:	01000000 	.inst	0x01000000 ; undefined
    1568:	0a21019c 	bic	w28, w12, w1
    156c:	0da20000 	st2	{v0.b, v1.b}[0], [x0], x2
    1570:	0d9a0000 	st1	{v0.b}[0], [x0], x26
    1574:	2a010000 	orr	w0, w0, w1
    1578:	c300000a 	.inst	0xc300000a ; undefined
    157c:	bf00000d 	.inst	0xbf00000d ; undefined
    1580:	0100000d 	.inst	0x0100000d ; undefined
    1584:	00000a35 	udf	#2613
    1588:	00000dd8 	udf	#3544
    158c:	00000dd2 	udf	#3538
    1590:	000a3e03 	.inst	0x000a3e03 ; undefined
    1594:	000dff00 	.inst	0x000dff00 ; undefined
    1598:	000df100 	.inst	0x000df100 ; undefined
    159c:	085c3300 	ldxrb	w0, [x24]
    15a0:	00000006 	udf	#6
    15a4:	076a0000 	.inst	0x076a0000 ; undefined
    15a8:	00000000 	udf	#0

Disassembly of section .debug_abbrev:

0000000000000000 <.debug_abbrev>:
   0:	10001101 	adr	x1, 220 <__bss_size+0x20e>
   4:	12011117 	and	w23, w8, #0x8000000f
   8:	1b0e030f 	madd	w15, w24, w14, w0
   c:	130e250e 	sbfiz	w14, w8, #18, #10
  10:	00000005 	udf	#5
  14:	02004901 	.inst	0x02004901 ; undefined
  18:	00187e18 	.inst	0x00187e18 ; undefined
  1c:	01480200 	.inst	0x01480200 ; undefined
  20:	137f017d 	.inst	0x137f017d ; undefined
  24:	00001301 	udf	#4865
  28:	7d004803 	str	h3, [x0, #36]
  2c:	00137f01 	.inst	0x00137f01 ; undefined
  30:	00050400 	.inst	0x00050400 ; undefined
  34:	00001349 	udf	#4937
  38:	00001805 	udf	#6149
  3c:	012e0600 	.inst	0x012e0600 ; undefined
  40:	0e03193f 	uzp1	v31.8b, v9.8b, v3.8b
  44:	0b3b0b3a 	add	w26, w25, w27, uxtb #2
  48:	27062139 	.inst	0x27062139 ; undefined
  4c:	01193c19 	.inst	0x01193c19 ; undefined
  50:	07000013 	.inst	0x07000013 ; undefined
  54:	210b000f 	.inst	0x210b000f ; undefined
  58:	00134908 	.inst	0x00134908 ; undefined
  5c:	00240800 	.inst	0x00240800 ; NYI
  60:	0b3e0b0b 	add	w11, w24, w30, uxtb #2
  64:	00000e03 	udf	#3587
  68:	03003409 	.inst	0x03003409 ; undefined
  6c:	01213a0e 	.inst	0x01213a0e ; undefined
  70:	0b390b3b 	add	w27, w25, w25, uxtb #2
  74:	18021349 	ldr	w9, 42dc <__bss_size+0x42ca>
  78:	2e0a0000 	ext	v0.8b, v0.8b, v10.8b, #0
  7c:	03193f01 	.inst	0x03193f01 ; undefined
  80:	3b0b3a0e 	.inst	0x3b0b3a0e ; undefined
  84:	0621390b 	.inst	0x0621390b ; undefined
  88:	1301193c 	sbfx	w28, w9, #1, #6
  8c:	350b0000 	cbnz	w0, 1608c <__bss_size+0x1607a>
  90:	00134900 	.inst	0x00134900 ; undefined
  94:	012e0c00 	.inst	0x012e0c00 ; undefined
  98:	0e03193f 	uzp1	v31.8b, v9.8b, v3.8b
  9c:	3b01213a 	.inst	0x3b01213a ; undefined
  a0:	0621390b 	.inst	0x0621390b ; undefined
  a4:	07120111 	.inst	0x07120111 ; undefined
  a8:	197a1840 	.inst	0x197a1840 ; undefined
  ac:	00001301 	udf	#4865
  b0:	7d01480d 	str	h13, [x0, #164]
  b4:	00137f01 	.inst	0x00137f01 ; undefined
  b8:	010b0e00 	.inst	0x010b0e00 ; undefined
  bc:	07120111 	.inst	0x07120111 ; undefined
  c0:	00001301 	udf	#4865
  c4:	0300340f 	.inst	0x0300340f ; undefined
  c8:	01213a08 	.inst	0x01213a08 ; undefined
  cc:	21390b3b 	.inst	0x21390b3b ; undefined
  d0:	0213490d 	.inst	0x0213490d ; undefined
  d4:	1742b717 	b	fffffffffd0add30 <__bss_end+0xfffffffffd04c7b0>
  d8:	11100000 	add	w0, w0, #0x400
  dc:	130e2501 	sbfiz	w1, w8, #18, #10
  e0:	1b1f030b 	madd	w11, w24, wzr, w0
  e4:	1117551f 	add	wsp, w8, #0x5d5
  e8:	00171001 	.inst	0x00171001 ; undefined
  ec:	00241100 	.inst	0x00241100 ; NYI
  f0:	0b3e0b0b 	add	w11, w24, w30, uxtb #2
  f4:	00000803 	udf	#2051
  f8:	3f012e12 	.inst	0x3f012e12 ; undefined
  fc:	3a0e0319 	adcs	w25, w24, w14
 100:	390b3b0b 	strb	w11, [x24, #718]
 104:	4919270b 	.inst	0x4919270b ; undefined
 108:	01193c13 	.inst	0x01193c13 ; undefined
 10c:	13000013 	sbfx	w19, w0, #0, #1
 110:	193f012e 	.inst	0x193f012e ; undefined
 114:	0b3a0e03 	add	w3, w16, w26, uxtb #3
 118:	0b390b3b 	add	w27, w25, w25, uxtb #2
 11c:	193c1349 	.inst	0x193c1349 ; undefined
 120:	00001301 	udf	#4865
 124:	55010b14 	.inst	0x55010b14 ; undefined
 128:	00130117 	.inst	0x00130117 ; undefined
 12c:	01011500 	.inst	0x01011500 ; undefined
 130:	13011349 	sbfx	w9, w26, #1, #4
 134:	21160000 	.inst	0x21160000 ; undefined
 138:	2f134900 	.inst	0x2f134900 ; undefined
 13c:	1700000b 	b	fffffffffc000168 <__bss_end+0xfffffffffbf9ebe8>
 140:	0e030034 	tbl	v20.8b, {v1.16b}, v3.8b
 144:	0b3b0b3a 	add	w26, w25, w27, uxtb #2
 148:	13490b39 	.inst	0x13490b39 ; undefined
 14c:	42b71702 	.inst	0x42b71702 ; undefined
 150:	18000017 	ldr	w23, 150 <__bss_size+0x13e>
 154:	0e030034 	tbl	v20.8b, {v1.16b}, v3.8b
 158:	0b3b0b3a 	add	w26, w25, w27, uxtb #2
 15c:	13490b39 	.inst	0x13490b39 ; undefined
 160:	34190000 	cbz	w0, 32160 <__bss_size+0x3214e>
 164:	3a0e0300 	adcs	w0, w24, w14
 168:	390b3b0b 	strb	w11, [x24, #718]
 16c:	1c13490b 	ldr	s11, 26a8c <__bss_size+0x26a7a>
 170:	1a000006 	adc	w6, w0, w0
 174:	017d0048 	.inst	0x017d0048 ; undefined
 178:	83190182 	.inst	0x83190182 ; undefined
 17c:	00001801 	udf	#6145
 180:	2700151b 	.inst	0x2700151b ; undefined
 184:	00000019 	udf	#25
 188:	31003401 	adds	w1, w0, #0xd
 18c:	b7170213 	tbnz	x19, #34, ffffffffffffe1cc <__bss_end+0xfffffffffff9cc4c>
 190:	00001742 	udf	#5954
 194:	49003502 	.inst	0x49003502 ; undefined
 198:	03000013 	.inst	0x03000013 ; undefined
 19c:	0b0b0024 	add	w4, w1, w11
 1a0:	0307213e 	.inst	0x0307213e ; undefined
 1a4:	0400000e 	add	z14.b, p0/m, z14.b, z0.b
 1a8:	193f012e 	.inst	0x193f012e ; undefined
 1ac:	213a0e03 	.inst	0x213a0e03 ; undefined
 1b0:	390b3b01 	strb	w1, [x24, #718]
 1b4:	01110621 	.inst	0x01110621 ; undefined
 1b8:	18400712 	ldr	w18, 80298 <__bss_end+0x1ed18>
 1bc:	1301197a 	sbfx	w26, w11, #1, #6
 1c0:	1d050000 	.inst	0x1d050000 ; undefined
 1c4:	52133101 	eor	w1, w8, #0x3ffe000
 1c8:	0b42b801 	.inst	0x0b42b801 ; undefined
 1cc:	21581755 	.inst	0x21581755 ; undefined
 1d0:	570b5901 	.inst	0x570b5901 ; undefined
 1d4:	00000521 	udf	#1313
 1d8:	55010b06 	.inst	0x55010b06 ; undefined
 1dc:	07000017 	.inst	0x07000017 ; undefined
 1e0:	0e250111 	saddl	v17.8h, v8.8b, v5.8b
 1e4:	1f030b13 	fmadd	s19, s24, s3, s2
 1e8:	01111f1b 	.inst	0x01111f1b ; undefined
 1ec:	17100712 	b	fffffffffc401e34 <__bss_end+0xfffffffffc3a08b4>
 1f0:	01080000 	.inst	0x01080000 ; undefined
 1f4:	01134901 	.inst	0x01134901 ; undefined
 1f8:	09000013 	.inst	0x09000013 ; undefined
 1fc:	13490021 	.inst	0x13490021 ; undefined
 200:	00000b2f 	udf	#2863
 204:	0300340a 	.inst	0x0300340a ; undefined
 208:	3b0b3a0e 	.inst	0x3b0b3a0e ; undefined
 20c:	490b390b 	.inst	0x490b390b ; undefined
 210:	3c193f13 	str	b19, [x24, #-109]!
 214:	0b000019 	add	w25, w0, w0
 218:	13470034 	.inst	0x13470034 ; undefined
 21c:	0b390b3a 	add	w26, w25, w25, uxtb #2
 220:	00001802 	udf	#6146
 224:	3f012e0c 	.inst	0x3f012e0c ; undefined
 228:	3a0e0319 	adcs	w25, w24, w14
 22c:	390b3b0b 	strb	w11, [x24, #718]
 230:	2013490b 	.inst	0x2013490b ; undefined
 234:	0013010b 	.inst	0x0013010b ; undefined
 238:	00340d00 	.inst	0x00340d00 ; NYI
 23c:	0b3a0803 	add	w3, w0, w26, uxtb #2
 240:	0b390b3b 	add	w27, w25, w25, uxtb #2
 244:	00001349 	udf	#4937
 248:	0b00240e 	add	w14, w0, w0, lsl #9
 24c:	030b3e0b 	.inst	0x030b3e0b ; undefined
 250:	0f000008 	.inst	0x0f000008 ; undefined
 254:	1331012e 	.inst	0x1331012e ; undefined
 258:	07120111 	.inst	0x07120111 ; undefined
 25c:	197a1840 	.inst	0x197a1840 ; undefined
 260:	01000000 	.inst	0x01000000 ; undefined
 264:	13310005 	.inst	0x13310005 ; undefined
 268:	42b71702 	.inst	0x42b71702 ; undefined
 26c:	02000017 	.inst	0x02000017 ; undefined
 270:	1331011d 	.inst	0x1331011d ; undefined
 274:	42b80152 	.inst	0x42b80152 ; undefined
 278:	5817550b 	ldr	x11, 2ed18 <__bss_size+0x2ed06>
 27c:	0b590121 	add	w1, w9, w25, lsr #0
 280:	01032157 	.inst	0x01032157 ; undefined
 284:	03000013 	.inst	0x03000013 ; undefined
 288:	1331011d 	.inst	0x1331011d ; undefined
 28c:	42b80152 	.inst	0x42b80152 ; undefined
 290:	5817550b 	ldr	x11, 2ed30 <__bss_size+0x2ed1e>
 294:	0b590121 	add	w1, w9, w25, lsr #0
 298:	00032157 	.inst	0x00032157 ; undefined
 29c:	00050400 	.inst	0x00050400 ; undefined
 2a0:	18021331 	ldr	w17, 4504 <__bss_size+0x44f2>
 2a4:	11050000 	add	w0, w0, #0x140
 2a8:	130e2501 	sbfiz	w1, w8, #18, #10
 2ac:	1b1f030b 	madd	w11, w24, wzr, w0
 2b0:	1201111f 	and	wsp, w8, #0x8000000f
 2b4:	00171007 	.inst	0x00171007 ; undefined
 2b8:	012e0600 	.inst	0x012e0600 ; undefined
 2bc:	0e03193f 	uzp1	v31.8b, v9.8b, v3.8b
 2c0:	0b3b0b3a 	add	w26, w25, w27, uxtb #2
 2c4:	01110b39 	.inst	0x01110b39 ; undefined
 2c8:	18400712 	ldr	w18, 803a8 <__bss_end+0x1ee28>
 2cc:	1301197a 	sbfx	w26, w11, #1, #6
 2d0:	2e070000 	ext	v0.8b, v0.8b, v7.8b, #0
 2d4:	03193f01 	.inst	0x03193f01 ; undefined
 2d8:	3b0b3a0e 	.inst	0x3b0b3a0e ; undefined
 2dc:	270b390b 	.inst	0x270b390b ; undefined
 2e0:	12011119 	and	w25, w8, #0x8000000f
 2e4:	7a184007 	.inst	0x7a184007 ; undefined
 2e8:	00130119 	.inst	0x00130119 ; undefined
 2ec:	00050800 	.inst	0x00050800 ; undefined
 2f0:	0b3a0e03 	add	w3, w16, w26, uxtb #3
 2f4:	0b390b3b 	add	w27, w25, w25, uxtb #2
 2f8:	17021349 	b	fffffffffc08501c <__bss_end+0xfffffffffc023a9c>
 2fc:	001742b7 	.inst	0x001742b7 ; undefined
 300:	00240900 	.inst	0x00240900 ; NYI
 304:	0b3e0b0b 	add	w11, w24, w30, uxtb #2
 308:	00000803 	udf	#2051
 30c:	3f012e0a 	.inst	0x3f012e0a ; undefined
 310:	3a080319 	adcs	w25, w24, w8
 314:	390b3b0b 	strb	w11, [x24, #718]
 318:	2019270b 	.inst	0x2019270b ; undefined
 31c:	0013010b 	.inst	0x0013010b ; undefined
 320:	00050b00 	.inst	0x00050b00 ; undefined
 324:	0b3a0803 	add	w3, w0, w26, uxtb #2
 328:	0b390b3b 	add	w27, w25, w25, uxtb #2
 32c:	00001349 	udf	#4937
 330:	0300050c 	.inst	0x0300050c ; undefined
 334:	3b0b3a0e 	.inst	0x3b0b3a0e ; undefined
 338:	490b390b 	.inst	0x490b390b ; undefined
 33c:	0d000013 	st1	{v19.b}[0], [x0]
 340:	0b0b0024 	add	w4, w1, w11
 344:	0e030b3e 	.inst	0x0e030b3e ; undefined
 348:	2e0e0000 	ext	v0.8b, v0.8b, v14.8b, #0
 34c:	11133101 	add	w1, w8, #0x4cc
 350:	40071201 	.inst	0x40071201 ; undefined
 354:	00197a18 	.inst	0x00197a18 ; undefined
 358:	34010000 	cbz	w0, 2358 <__bss_size+0x2346>
 35c:	3a080300 	adcs	w0, w24, w8
 360:	0b3b0121 	add	w1, w9, w27, uxtb
 364:	13490b39 	.inst	0x13490b39 ; undefined
 368:	42b71702 	.inst	0x42b71702 ; undefined
 36c:	02000017 	.inst	0x02000017 ; undefined
 370:	193f012e 	.inst	0x193f012e ; undefined
 374:	213a0e03 	.inst	0x213a0e03 ; undefined
 378:	390b3b01 	strb	w1, [x24, #718]
 37c:	19270621 	.inst	0x19270621 ; undefined
 380:	07120111 	.inst	0x07120111 ; undefined
 384:	197a1840 	.inst	0x197a1840 ; undefined
 388:	00001301 	udf	#4865
 38c:	03000503 	.inst	0x03000503 ; undefined
 390:	01213a08 	.inst	0x01213a08 ; undefined
 394:	0b390b3b 	add	w27, w25, w25, uxtb #2
 398:	17021349 	b	fffffffffc0850bc <__bss_end+0xfffffffffc023b3c>
 39c:	001742b7 	.inst	0x001742b7 ; undefined
 3a0:	00050400 	.inst	0x00050400 ; undefined
 3a4:	17021331 	b	fffffffffc085068 <__bss_end+0xfffffffffc023ae8>
 3a8:	001742b7 	.inst	0x001742b7 ; undefined
 3ac:	00240500 	.inst	0x00240500 ; NYI
 3b0:	0b3e0b0b 	add	w11, w24, w30, uxtb #2
 3b4:	00000e03 	udf	#3587
 3b8:	25011106 	cmpge	p6.b, p4/z, z8.b, #1
 3bc:	030b130e 	.inst	0x030b130e ; undefined
 3c0:	111f1b1f 	add	wsp, w24, #0x7c6
 3c4:	10071201 	adr	x1, e604 <__bss_size+0xe5f2>
 3c8:	07000017 	.inst	0x07000017 ; undefined
 3cc:	1331011d 	.inst	0x1331011d ; undefined
 3d0:	42b80152 	.inst	0x42b80152 ; undefined
 3d4:	5817550b 	ldr	x11, 2ee74 <__bss_size+0x2ee62>
 3d8:	570b590b 	.inst	0x570b590b ; undefined
 3dc:	0013010b 	.inst	0x0013010b ; undefined
 3e0:	01480800 	.inst	0x01480800 ; undefined
 3e4:	137f017d 	.inst	0x137f017d ; undefined
 3e8:	49090000 	.inst	0x49090000 ; undefined
 3ec:	7e180200 	.inst	0x7e180200 ; undefined
 3f0:	0a000018 	and	w24, w0, w0
 3f4:	0b0b0024 	add	w4, w1, w11
 3f8:	08030b3e 	stxrb	w3, w30, [x25]
 3fc:	1d0b0000 	.inst	0x1d0b0000 ; undefined
 400:	55133101 	.inst	0x55133101 ; undefined
 404:	590b5817 	.inst	0x590b5817 ; undefined
 408:	010b570b 	.inst	0x010b570b ; undefined
 40c:	0c000013 	st4	{v19.8b-v22.8b}, [x0]
 410:	13310005 	.inst	0x13310005 ; undefined
 414:	1d0d0000 	.inst	0x1d0d0000 ; undefined
 418:	52133101 	eor	w1, w8, #0x3ffe000
 41c:	0b42b801 	.inst	0x0b42b801 ; undefined
 420:	07120111 	.inst	0x07120111 ; undefined
 424:	0b590b58 	add	w24, w26, w25, lsr #2
 428:	00000b57 	udf	#2903
 42c:	0b000f0e 	add	w14, w24, w0, lsl #3
 430:	0013490b 	.inst	0x0013490b ; undefined
 434:	012e0f00 	.inst	0x012e0f00 ; undefined
 438:	0e03193f 	uzp1	v31.8b, v9.8b, v3.8b
 43c:	0b3b0b3a 	add	w26, w25, w27, uxtb #2
 440:	13490b39 	.inst	0x13490b39 ; undefined
 444:	07120111 	.inst	0x07120111 ; undefined
 448:	197a1840 	.inst	0x197a1840 ; undefined
 44c:	00001301 	udf	#4865
 450:	3f012e10 	.inst	0x3f012e10 ; undefined
 454:	3a0e0319 	adcs	w25, w24, w14
 458:	390b3b0b 	strb	w11, [x24, #718]
 45c:	2019270b 	.inst	0x2019270b ; undefined
 460:	0013010b 	.inst	0x0013010b ; undefined
 464:	00051100 	.inst	0x00051100 ; undefined
 468:	0b3a0803 	add	w3, w0, w26, uxtb #2
 46c:	0b390b3b 	add	w27, w25, w25, uxtb #2
 470:	00001349 	udf	#4937
 474:	3f012e12 	.inst	0x3f012e12 ; undefined
 478:	3a0e0319 	adcs	w25, w24, w14
 47c:	390b3b0b 	strb	w11, [x24, #718]
 480:	1201110b 	and	w11, w8, #0x8000000f
 484:	7a184007 	.inst	0x7a184007 ; undefined
 488:	00130119 	.inst	0x00130119 ; undefined
 48c:	010b1300 	.inst	0x010b1300 ; undefined
 490:	07120111 	.inst	0x07120111 ; undefined
 494:	34140000 	cbz	w0, 28494 <__bss_size+0x28482>
 498:	3a080300 	adcs	w0, w24, w8
 49c:	390b3b0b 	strb	w11, [x24, #718]
 4a0:	0013490b 	.inst	0x0013490b ; undefined
 4a4:	012e1500 	.inst	0x012e1500 ; undefined
 4a8:	01111331 	.inst	0x01111331 ; undefined
 4ac:	18400712 	ldr	w18, 8058c <__bss_end+0x1f00c>
 4b0:	0000197a 	udf	#6522
 4b4:	31000516 	adds	w22, w8, #0x1
 4b8:	00180213 	.inst	0x00180213 ; undefined
 4bc:	05010000 	orr	z0.s, z0.s, #0x1
 4c0:	02133100 	.inst	0x02133100 ; undefined
 4c4:	1742b717 	b	fffffffffd0ae120 <__bss_end+0xfffffffffd04cba0>
 4c8:	34020000 	cbz	w0, 44c8 <__bss_size+0x44b6>
 4cc:	3a0e0300 	adcs	w0, w24, w14
 4d0:	0b3b0121 	add	w1, w9, w27, uxtb
 4d4:	13490b39 	.inst	0x13490b39 ; undefined
 4d8:	42b71702 	.inst	0x42b71702 ; undefined
 4dc:	03000017 	.inst	0x03000017 ; undefined
 4e0:	13310034 	.inst	0x13310034 ; undefined
 4e4:	42b71702 	.inst	0x42b71702 ; undefined
 4e8:	04000017 	add	z23.b, p0/m, z23.b, z0.b
 4ec:	193f012e 	.inst	0x193f012e ; undefined
 4f0:	213a0e03 	.inst	0x213a0e03 ; undefined
 4f4:	390b3b01 	strb	w1, [x24, #718]
 4f8:	3c13490b 	.inst	0x3c13490b ; undefined
 4fc:	00130119 	.inst	0x00130119 ; undefined
 500:	00180500 	.inst	0x00180500 ; undefined
 504:	0b060000 	add	w0, w0, w6
 508:	00175501 	.inst	0x00175501 ; undefined
 50c:	00490700 	.inst	0x00490700 ; undefined
 510:	187e1802 	ldr	w2, fc810 <__bss_end+0x9b290>
 514:	05080000 	.inst	0x05080000 ; undefined
 518:	00133100 	.inst	0x00133100 ; undefined
 51c:	00340900 	.inst	0x00340900 ; NYI
 520:	213a0803 	.inst	0x213a0803 ; undefined
 524:	390b3b01 	strb	w1, [x24, #718]
 528:	0213490b 	.inst	0x0213490b ; undefined
 52c:	1742b717 	b	fffffffffd0ae188 <__bss_end+0xfffffffffd04cc08>
 530:	1d0a0000 	.inst	0x1d0a0000 ; undefined
 534:	52133101 	eor	w1, w8, #0x3ffe000
 538:	0b42b801 	.inst	0x0b42b801 ; undefined
 53c:	21581755 	.inst	0x21581755 ; undefined
 540:	570b5901 	.inst	0x570b5901 ; undefined
 544:	0013010b 	.inst	0x0013010b ; undefined
 548:	00050b00 	.inst	0x00050b00 ; undefined
 54c:	213a0803 	.inst	0x213a0803 ; undefined
 550:	390b3b01 	strb	w1, [x24, #718]
 554:	0013490b 	.inst	0x0013490b ; undefined
 558:	00480c00 	.inst	0x00480c00 ; undefined
 55c:	137f017d 	.inst	0x137f017d ; undefined
 560:	050d0000 	.inst	0x050d0000 ; undefined
 564:	3a0e0300 	adcs	w0, w24, w14
 568:	0b3b0121 	add	w1, w9, w27, uxtb
 56c:	13490b39 	.inst	0x13490b39 ; undefined
 570:	42b71702 	.inst	0x42b71702 ; undefined
 574:	0e000017 	tbl	v23.8b, {v0.16b}, v0.8b
 578:	1755010b 	b	fffffffffd5409a4 <__bss_end+0xfffffffffd4df424>
 57c:	00001301 	udf	#4865
 580:	0b00240f 	add	w15, w0, w0, lsl #9
 584:	030b3e0b 	.inst	0x030b3e0b ; undefined
 588:	1000000e 	adr	x14, 588 <__bss_size+0x576>
 58c:	017d0148 	.inst	0x017d0148 ; undefined
 590:	0000137f 	udf	#4991
 594:	03003411 	.inst	0x03003411 ; undefined
 598:	01213a08 	.inst	0x01213a08 ; undefined
 59c:	0b390b3b 	add	w27, w25, w25, uxtb #2
 5a0:	00001349 	udf	#4937
 5a4:	03000512 	.inst	0x03000512 ; undefined
 5a8:	01213a0e 	.inst	0x01213a0e ; undefined
 5ac:	0b390b3b 	add	w27, w25, w25, uxtb #2
 5b0:	00001349 	udf	#4937
 5b4:	31012e13 	adds	w19, w16, #0x4b
 5b8:	12011113 	and	w19, w8, #0x8000000f
 5bc:	7a184007 	.inst	0x7a184007 ; undefined
 5c0:	00130119 	.inst	0x00130119 ; undefined
 5c4:	01481400 	.inst	0x01481400 ; undefined
 5c8:	0182017d 	.inst	0x0182017d ; undefined
 5cc:	00137f19 	.inst	0x00137f19 ; undefined
 5d0:	012e1500 	.inst	0x012e1500 ; undefined
 5d4:	0e03193f 	uzp1	v31.8b, v9.8b, v3.8b
 5d8:	3b01213a 	.inst	0x3b01213a ; undefined
 5dc:	0621390b 	.inst	0x0621390b ; undefined
 5e0:	01111927 	.inst	0x01111927 ; undefined
 5e4:	18400712 	ldr	w18, 806c4 <__bss_end+0x1f144>
 5e8:	1301197a 	sbfx	w26, w11, #1, #6
 5ec:	48160000 	stxrh	w22, w0, [x0]
 5f0:	7f017d01 	.inst	0x7f017d01 ; undefined
 5f4:	00130113 	.inst	0x00130113 ; undefined
 5f8:	00341700 	.inst	0x00341700 ; NYI
 5fc:	213a0e03 	.inst	0x213a0e03 ; undefined
 600:	390b3b01 	strb	w1, [x24, #718]
 604:	0213490b 	.inst	0x0213490b ; undefined
 608:	18000018 	ldr	w24, 608 <__bss_size+0x5f6>
 60c:	210b000f 	.inst	0x210b000f ; undefined
 610:	00134908 	.inst	0x00134908 ; undefined
 614:	00341900 	.inst	0x00341900 ; NYI
 618:	00001331 	udf	#4913
 61c:	31011d1a 	adds	w26, w8, #0x47
 620:	58175513 	ldr	x19, 2f0c0 <__bss_size+0x2f0ae>
 624:	0b590121 	add	w1, w9, w25, lsr #0
 628:	00062157 	.inst	0x00062157 ; undefined
 62c:	01011b00 	.inst	0x01011b00 ; undefined
 630:	13011349 	sbfx	w9, w26, #1, #4
 634:	211c0000 	.inst	0x211c0000 ; undefined
 638:	2f134900 	.inst	0x2f134900 ; undefined
 63c:	1d00000b 	.inst	0x1d00000b ; undefined
 640:	0e030034 	tbl	v20.8b, {v1.16b}, v3.8b
 644:	3b01213a 	.inst	0x3b01213a ; undefined
 648:	0921390b 	.inst	0x0921390b ; undefined
 64c:	0b1c1349 	add	w9, w26, w28, lsl #4
 650:	1d1e0000 	.inst	0x1d1e0000 ; undefined
 654:	55133101 	.inst	0x55133101 ; undefined
 658:	01215817 	.inst	0x01215817 ; undefined
 65c:	0b570b59 	add	w25, w26, w23, lsr #2
 660:	00001301 	udf	#4865
 664:	31011d1f 	cmn	w8, #0x47
 668:	b8015213 	stur	w19, [x16, #21]
 66c:	17550b42 	b	fffffffffd543374 <__bss_end+0xfffffffffd4e1df4>
 670:	59012158 	stlurh	w24, [x10, #18]
 674:	000b570b 	.inst	0x000b570b ; undefined
 678:	00052000 	.inst	0x00052000 ; undefined
 67c:	213a0803 	.inst	0x213a0803 ; undefined
 680:	390b3b01 	strb	w1, [x24, #718]
 684:	0213490b 	.inst	0x0213490b ; undefined
 688:	1742b717 	b	fffffffffd0ae2e4 <__bss_end+0xfffffffffd04cd64>
 68c:	2e210000 	uaddl	v0.8h, v0.8b, v1.8b
 690:	03193f01 	.inst	0x03193f01 ; undefined
 694:	01213a0e 	.inst	0x01213a0e ; undefined
 698:	21390b3b 	.inst	0x21390b3b ; undefined
 69c:	20192706 	.inst	0x20192706 ; undefined
 6a0:	13010121 	sbfiz	w1, w9, #31, #1
 6a4:	2e220000 	uaddl	v0.8h, v0.8b, v2.8b
 6a8:	03193f01 	.inst	0x03193f01 ; undefined
 6ac:	01213a0e 	.inst	0x01213a0e ; undefined
 6b0:	21390b3b 	.inst	0x21390b3b ; undefined
 6b4:	49192705 	.inst	0x49192705 ; undefined
 6b8:	01212013 	.inst	0x01212013 ; undefined
 6bc:	00001301 	udf	#4865
 6c0:	31000523 	adds	w3, w9, #0x1
 6c4:	00180213 	.inst	0x00180213 ; undefined
 6c8:	01112400 	.inst	0x01112400 ; undefined
 6cc:	0b130e25 	add	w5, w17, w19, lsl #3
 6d0:	1f1b1f03 	fmadd	s3, s24, s27, s7
 6d4:	07120111 	.inst	0x07120111 ; undefined
 6d8:	00001710 	udf	#5904
 6dc:	0b002425 	add	w5, w1, w0, lsl #9
 6e0:	030b3e0b 	.inst	0x030b3e0b ; undefined
 6e4:	26000008 	.inst	0x26000008 ; undefined
 6e8:	193f012e 	.inst	0x193f012e ; undefined
 6ec:	0b3a0e03 	add	w3, w16, w26, uxtb #3
 6f0:	0b390b3b 	add	w27, w25, w25, uxtb #2
 6f4:	07120111 	.inst	0x07120111 ; undefined
 6f8:	197a1840 	.inst	0x197a1840 ; undefined
 6fc:	00001301 	udf	#4865
 700:	3f012e27 	.inst	0x3f012e27 ; undefined
 704:	3a080319 	adcs	w25, w24, w8
 708:	390b3b0b 	strb	w11, [x24, #718]
 70c:	1119270b 	add	w11, w24, #0x649
 710:	40071201 	.inst	0x40071201 ; undefined
 714:	01197a18 	.inst	0x01197a18 ; undefined
 718:	28000013 	stnp	w19, w0, [x0]
 71c:	0111010b 	.inst	0x0111010b ; undefined
 720:	13010712 	sbfx	w18, w24, #1, #1
 724:	1d290000 	.inst	0x1d290000 ; undefined
 728:	11133101 	add	w1, w8, #0x4cc
 72c:	58071201 	ldr	x1, e96c <__bss_size+0xe95a>
 730:	570b590b 	.inst	0x570b590b ; undefined
 734:	2a00000b 	orr	w11, w0, w0
 738:	13490035 	.inst	0x13490035 ; undefined
 73c:	2e2b0000 	uaddl	v0.8h, v0.8b, v11.8b
 740:	03193f01 	.inst	0x03193f01 ; undefined
 744:	3b0b3a0e 	.inst	0x3b0b3a0e ; undefined
 748:	270b390b 	.inst	0x270b390b ; undefined
 74c:	11134919 	add	w25, w8, #0x4d2
 750:	40071201 	.inst	0x40071201 ; undefined
 754:	01197a18 	.inst	0x01197a18 ; undefined
 758:	2c000013 	stnp	s19, s0, [x0]
 75c:	193f012e 	.inst	0x193f012e ; undefined
 760:	0b3a0803 	add	w3, w0, w26, uxtb #2
 764:	0b390b3b 	add	w27, w25, w25, uxtb #2
 768:	13491927 	.inst	0x13491927 ; undefined
 76c:	07120111 	.inst	0x07120111 ; undefined
 770:	197a1840 	.inst	0x197a1840 ; undefined
 774:	00001301 	udf	#4865
 778:	0300052d 	.inst	0x0300052d ; undefined
 77c:	3b0b3a08 	.inst	0x3b0b3a08 ; undefined
 780:	490b390b 	.inst	0x490b390b ; undefined
 784:	00180213 	.inst	0x00180213 ; undefined
 788:	011d2e00 	.inst	0x011d2e00 ; undefined
 78c:	01111331 	.inst	0x01111331 ; undefined
 790:	0b580712 	add	w18, w24, w24, lsr #1
 794:	0b570b59 	add	w25, w26, w23, lsr #2
 798:	00001301 	udf	#4865
 79c:	31011d2f 	adds	w15, w9, #0x47
 7a0:	b8015213 	stur	w19, [x16, #21]
 7a4:	01110b42 	.inst	0x01110b42 ; undefined
 7a8:	0b580712 	add	w18, w24, w24, lsr #1
 7ac:	0b570b59 	add	w25, w26, w23, lsr #2
 7b0:	2e300000 	uaddl	v0.8h, v0.8b, v16.8b
 7b4:	03193f01 	.inst	0x03193f01 ; undefined
 7b8:	3b0b3a08 	.inst	0x3b0b3a08 ; undefined
 7bc:	270b390b 	.inst	0x270b390b ; undefined
 7c0:	20134919 	.inst	0x20134919 ; undefined
 7c4:	0013010b 	.inst	0x0013010b ; undefined
 7c8:	00343100 	.inst	0x00343100 ; NYI
 7cc:	0b3a0e03 	add	w3, w16, w26, uxtb #3
 7d0:	0b390b3b 	add	w27, w25, w25, uxtb #2
 7d4:	00001349 	udf	#4937
 7d8:	31012e32 	adds	w18, w17, #0x4b
 7dc:	12011113 	and	w19, w8, #0x8000000f
 7e0:	7a184007 	.inst	0x7a184007 ; undefined
 7e4:	33000019 	bfxil	w25, w0, #0, #1
 7e8:	017d0048 	.inst	0x017d0048 ; undefined
 7ec:	7f190182 	.inst	0x7f190182 ; undefined
 7f0:	00000013 	udf	#19

Disassembly of section .debug_aranges:

0000000000000000 <.debug_aranges>:
   0:	0000002c 	udf	#44
   4:	00000002 	udf	#2
   8:	00080000 	.inst	0x00080000 ; undefined
   c:	00000000 	udf	#0
  10:	00060000 	.inst	0x00060000 ; undefined
  14:	00000000 	udf	#0
  18:	00000050 	udf	#80
	...
  30:	0000003c 	udf	#60
  34:	00280002 	.inst	0x00280002 ; NYI
  38:	00080000 	.inst	0x00080000 ; undefined
  3c:	00000000 	udf	#0
  40:	00060050 	.inst	0x00060050 ; undefined
  44:	00000000 	udf	#0
  48:	000000b0 	udf	#176
  4c:	00000000 	udf	#0
  50:	00060100 	.inst	0x00060100 ; undefined
  54:	00000000 	udf	#0
  58:	00000130 	udf	#304
	...
  70:	0000002c 	udf	#44
  74:	04470002 	.inst	0x04470002 ; undefined
  78:	00080000 	.inst	0x00080000 ; undefined
  7c:	00000000 	udf	#0
  80:	00060230 	.inst	0x00060230 ; undefined
  84:	00000000 	udf	#0
  88:	00000194 	udf	#404
	...
  a0:	0000002c 	udf	#44
  a4:	05890002 	.inst	0x05890002 ; undefined
  a8:	00080000 	.inst	0x00080000 ; undefined
  ac:	00000000 	udf	#0
  b0:	000603d0 	.inst	0x000603d0 ; undefined
  b4:	00000000 	udf	#0
  b8:	00000060 	udf	#96
	...
  d0:	0000002c 	udf	#44
  d4:	07240002 	.inst	0x07240002 ; undefined
  d8:	00080000 	.inst	0x00080000 ; undefined
  dc:	00000000 	udf	#0
  e0:	00060430 	.inst	0x00060430 ; undefined
  e4:	00000000 	udf	#0
  e8:	00000234 	udf	#564
	...
 100:	0000002c 	udf	#44
 104:	092c0002 	.inst	0x092c0002 ; undefined
 108:	00080000 	.inst	0x00080000 ; undefined
 10c:	00000000 	udf	#0
 110:	00060670 	.inst	0x00060670 ; undefined
 114:	00000000 	udf	#0
 118:	000009ec 	udf	#2540
	...

Disassembly of section .debug_str:

0000000000000000 <.debug_str>:
   0:	746f6f62 	.inst	0x746f6f62 ; undefined
   4:	2f00532e 	.inst	0x2f00532e ; undefined
   8:	656d6f68 	fnmls	z8.h, p3/m, z27.h, z13.h
   c:	6f61792f 	fcmla	v15.8h, v9.8h, v1.h[3], #270
  10:	6f72702f 	fcmla	v15.8h, v1.8h, v18.h[1], #270
  14:	7463656a 	.inst	0x7463656a ; undefined
  18:	534f2f73 	.inst	0x534f2f73 ; undefined
  1c:	622f4944 	.inst	0x622f4944 ; undefined
  20:	6c746f6f 	ldnp	d15, d27, [x27, #-192]
  24:	6564616f 	fnmls	z15.h, p0/m, z11.h, z4.h
  28:	4e470072 	.inst	0x4e470072 ; undefined
  2c:	53412055 	.inst	0x53412055 ; undefined
  30:	332e3220 	.inst	0x332e3220 ; undefined
  34:	656b0038 	fmla	z24.h, p0/m, z1.h, z11.h
  38:	6c656e72 	ldnp	d18, d27, [x19, #-432]
  3c:	72656b00 	.inst	0x72656b00 ; undefined
  40:	5f6c656e 	.inst	0x5f6c656e ; undefined
  44:	657a6973 	fnmls	z19.h, p2/m, z11.h, z26.h
  48:	6e6f6c00 	umin	v0.8h, v0.8h, v15.8h
  4c:	6e752067 	usubl2	v7.4s, v3.8h, v21.8h
  50:	6e676973 	.inst	0x6e676973 ; undefined
  54:	69206465 	stgp	x5, x25, [x3, #-1024]
  58:	4700746e 	.inst	0x4700746e ; undefined
  5c:	4320554e 	.inst	0x4320554e ; undefined
  60:	31203731 	adds	w17, w25, #0x80d
  64:	2e342e31 	uqsub	v17.8b, v17.8b, v20.8b
  68:	6d2d2030 	stp	d16, d8, [x1, #-304]
  6c:	7474696c 	.inst	0x7474696c ; undefined
  70:	652d656c 	.inst	0x652d656c ; undefined
  74:	6169646e 	.inst	0x6169646e ; undefined
  78:	6d2d206e 	stp	d14, d8, [x3, #-304]
  7c:	3d696261 	ldr	b1, [x19, #2648]
  80:	3436706c 	cbz	w12, 6ce8c <__bss_end+0xb90c>
  84:	20672d20 	.inst	0x20672d20 ; undefined
  88:	20324f2d 	.inst	0x20324f2d ; undefined
  8c:	7266662d 	.inst	0x7266662d ; undefined
  90:	74736565 	.inst	0x74736565 ; undefined
  94:	69646e61 	ldpsw	x1, x27, [x19, #-224]
  98:	2d20676e 	stp	s14, s25, [x27, #-256]
  9c:	79736166 	ldrh	w6, [x11, #6576]
  a0:	7268636e 	.inst	0x7268636e ; undefined
  a4:	756f6e6f 	.inst	0x756f6e6f ; undefined
  a8:	6e752d73 	uqsub	v19.8h, v11.8h, v21.8h
  ac:	646e6977 	.inst	0x646e6977 ; undefined
  b0:	6261742d 	.inst	0x6261742d ; undefined
  b4:	2073656c 	.inst	0x2073656c ; undefined
  b8:	7473662d 	.inst	0x7473662d ; undefined
  bc:	2d6b6361 	ldp	s1, s24, [x27, #-168]
  c0:	73616c63 	.inst	0x73616c63 ; undefined
  c4:	72702d68 	.inst	0x72702d68 ; undefined
  c8:	6365746f 	.inst	0x6365746f ; undefined
  cc:	6e6f6974 	.inst	0x6e6f6974 ; undefined
  d0:	72617500 	.inst	0x72617500 ; undefined
  d4:	65675f74 	fnmla	z20.h, p7/m, z27.h, z7.h
  d8:	75006374 	.inst	0x75006374 ; undefined
  dc:	5f747261 	sqdmlsl	s1, h19, v4.h[3]
  e0:	74696e69 	.inst	0x74696e69 ; undefined
  e4:	65687300 	fnmls	z0.h, p4/m, z24.h, z8.h
  e8:	69006c6c 	stgp	x12, x27, [x3]
  ec:	7475706e 	.inst	0x7475706e ; undefined
  f0:	6d756a00 	ldp	d0, d26, [x16, #-176]
  f4:	65680070 	fmla	z16.h, p0/m, z3.h, z8.h
  f8:	776f6c6c 	.inst	0x776f6c6c ; undefined
  fc:	646c726f 	.inst	0x646c726f ; undefined
 100:	616f6c00 	.inst	0x616f6c00 ; undefined
 104:	676d6964 	.inst	0x676d6964 ; undefined
 108:	72617500 	.inst	0x72617500 ; undefined
 10c:	75705f74 	.inst	0x75705f74 ; undefined
 110:	6d007374 	stp	d20, d28, [x27]
 114:	006e6961 	.inst	0x006e6961 ; undefined
 118:	69736e75 	ldpsw	x21, x27, [x19, #-104]
 11c:	64656e67 	.inst	0x64656e67 ; undefined
 120:	61686320 	.inst	0x61686320 ; undefined
 124:	61630072 	.inst	0x61630072 ; undefined
 128:	6c65636e 	ldnp	d14, d24, [x27, #-432]
 12c:	7365725f 	.inst	0x7365725f ; undefined
 130:	73007465 	.inst	0x73007465 ; undefined
 134:	6d637274 	ldp	d20, d28, [x19, #-464]
 138:	65670070 	fmla	z16.h, p0/m, z3.h, z7.h
 13c:	72615f74 	.inst	0x72615f74 ; undefined
 140:	656d5f6d 	fnmla	z13.h, p7/m, z27.h, z13.h
 144:	6567006d 	fmla	z13.h, p0/m, z3.h, z7.h
 148:	6f625f74 	.inst	0x6f625f74 ; undefined
 14c:	5f647261 	sqdmlsl	s1, h19, v4.h[2]
 150:	69766572 	ldpsw	x18, x25, [x11, #-80]
 154:	6e6f6973 	.inst	0x6e6f6973 ; undefined
 158:	69616d00 	ldpsw	x0, x27, [x8, #-248]
 15c:	786f626c 	ldumaxlh	w15, w12, [x19]
 160:	6c61635f 	ldnp	d31, d24, [x26, #-496]
 164:	616d006c 	.inst	0x616d006c ; undefined
 168:	6f626c69 	.inst	0x6f626c69 ; undefined
 16c:	69740078 	ldpsw	x24, x0, [x3, #-96]
 170:	75006b63 	.inst	0x75006b63 ; undefined
 174:	5f747261 	sqdmlsl	s1, h19, v4.h[3]
 178:	00786568 	.inst	0x00786568 ; undefined
 17c:	74726175 	.inst	0x74726175 ; undefined
 180:	6e65735f 	uabdl2	v31.4s, v26.8h, v5.8h
 184:	65720064 	fmla	z4.h, p0/m, z3.h, z18.h
 188:	6f636461 	sqshlu	v1.2d, v3.2d, #35
 18c:	6e65746e 	uabd	v14.8h, v3.8h, v5.8h
 190:	69660074 	ldpsw	x20, x0, [x3, #-208]
 194:	735f656c 	.inst	0x735f656c ; undefined
 198:	00657a69 	.inst	0x00657a69 ; undefined
 19c:	72617473 	.inst	0x72617473 ; undefined
 1a0:	70660074 	adr	x20, cc1af <__bss_end+0x6ac2f>
 1a4:	00747261 	.inst	0x00747261 ; undefined
 1a8:	63656863 	.inst	0x63656863 ; undefined
 1ac:	7461636b 	.inst	0x7461636b ; undefined
 1b0:	72617400 	.inst	0x72617400 ; undefined
 1b4:	00746567 	.inst	0x00746567 ; undefined
 1b8:	616f6c66 	.inst	0x616f6c66 ; undefined
 1bc:	65740074 	fmla	z20.h, p0/m, z3.h, z20.h
 1c0:	6e00706d 	ext	v13.16b, v3.16b, v0.16b, #14
 1c4:	5f656d61 	.inst	0x5f656d61 ; undefined
 1c8:	657a6973 	fnmls	z19.h, p2/m, z11.h, z26.h
 1cc:	66666f5f 	.inst	0x66666f5f ; undefined
 1d0:	00746573 	.inst	0x00746573 ; undefined
 1d4:	616f7469 	.inst	0x616f7469 ; undefined
 1d8:	73616200 	.inst	0x73616200 ; undefined
 1dc:	69660065 	ldpsw	x5, x0, [x3, #-208]
 1e0:	616e656c 	.inst	0x616e656c ; undefined
 1e4:	7200656d 	ands	w13, w11, #0x3ffffff
 1e8:	6c757365 	ldnp	d5, d28, [x27, #-176]
 1ec:	65720074 	fmla	z20.h, p0/m, z3.h, z18.h
 1f0:	73726576 	.inst	0x73726576 ; undefined
 1f4:	74660065 	.inst	0x74660065 ; undefined
 1f8:	7300616f 	.inst	0x7300616f ; undefined
 1fc:	656c7274 	fnmls	z20.h, p4/m, z19.h, z12.h
 200:	7865006e 	ldaddlh	w5, w14, [x3]
 204:	656e6f70 	fnmls	z16.h, p3/m, z27.h, z14.h
 208:	7300746e 	.inst	0x7300746e ; undefined
 20c:	74736275 	.inst	0x74736275 ; undefined
 210:	66610072 	.inst	0x66610072 ; undefined
 214:	70726574 	adr	x20, e4ec3 <__bss_end+0x83943>
 218:	746e696f 	.inst	0x746e696f ; undefined
 21c:	6c696600 	ldnp	d0, d25, [x16, #-368]
 220:	69735f65 	ldpsw	x5, x23, [x27, #-104]
 224:	6f5f657a 	sqshlu	v26.2d, v11.2d, #31
 228:	65736666 	fnmls	z6.h, p1/m, z19.h, z19.h
 22c:	6e690074 	uaddl2	v20.4s, v3.8h, v9.8h
 230:	00786564 	.inst	0x00786564 ; undefined
 234:	656d616e 	fnmls	z14.h, p0/m, z11.h, z13.h
 238:	7a69735f 	.inst	0x7a69735f ; undefined
 23c:	72700065 	.inst	0x72700065 ; undefined
 240:	5f746e69 	.inst	0x5f746e69 ; undefined
 244:	636c6577 	.inst	0x636c6577 ; undefined
 248:	00656d6f 	.inst	0x00656d6f ; undefined
 24c:	72617069 	.inst	0x72617069 ; undefined
 250:	Address 0x0000000000000250 is out of bounds.


Disassembly of section .debug_loclists:

0000000000000000 <.debug_loclists>:
   0:	00000081 	udf	#129
   4:	00080005 	.inst	0x00080005 ; undefined
   8:	00000000 	udf	#0
   c:	00000001 	udf	#1
  10:	70060000 	adr	x0, c013 <__bss_size+0xc001>
  14:	00000600 	udf	#1536
  18:	04000000 	add	z0.b, p0/m, z0.b, z0.b
  1c:	30020400 	adr	x0, 409d <__bss_size+0x408b>
  20:	0804049f 	stxrb	w4, wzr, [x4]
  24:	14046301 	b	118c28 <__bss_end+0xb76a8>
  28:	0063017c 	.inst	0x0063017c ; undefined
  2c:	00000000 	udf	#0
  30:	9c060001 	ldr	q1, c030 <__bss_size+0xc01e>
  34:	00000600 	udf	#1536
  38:	04000000 	add	z0.b, p0/m, z0.b, z0.b
  3c:	30021000 	adr	x0, 423d <__bss_size+0x422b>
  40:	2810049f 	stnp	wzr, w1, [x4, #128]
  44:	80808405 	.inst	0x80808405 ; undefined
  48:	28049f60 	stnp	w0, w7, [x27, #36]
  4c:	80840530 	fmops	za0.s, p1/m, p0/m, z9.s, z4.s
  50:	009f6080 	.inst	0x009f6080 ; undefined
  54:	00010100 	.inst	0x00010100 ; undefined
  58:	d0060000 	adrp	x0, c002000 <__bss_end+0xbfa0a80>
  5c:	00000600 	udf	#1536
  60:	04000000 	add	z0.b, p0/m, z0.b, z0.b
  64:	0a070400 	and	w0, w0, w7, lsl #1
  68:	00702710 	.inst	0x00702710 ; undefined
  6c:	04049f1c 	asrd	z28.h, p7/m, z28.h, #8
  70:	110a0708 	add	w8, w24, #0x281
  74:	1c007027 	ldr	s7, e78 <__bss_size+0xe66>
  78:	1008049f 	adr	xzr, 10108 <__bss_size+0x100f6>
  7c:	27100a07 	.inst	0x27100a07 ; undefined
  80:	9f1c0070 	.inst	0x9f1c0070 ; undefined
  84:	00002400 	udf	#9216
  88:	08000500 	stxrb	w0, w0, [x8]
  8c:	00000000 	udf	#0
  90:	04000000 	add	z0.b, p0/m, z0.b, z0.b
  94:	039002c4 	.inst	0x039002c4 ; undefined
  98:	03005201 	.inst	0x03005201 ; undefined
  9c:	01b00400 	.inst	0x01b00400 ; undefined
  a0:	520101f8 	eor	w24, w15, #0x80000000
  a4:	04000000 	add	z0.b, p0/m, z0.b, z0.b
  a8:	52017010 	eor	w16, w0, #0x8fffffff
  ac:	00009100 	udf	#37120
  b0:	08000500 	stxrb	w0, w0, [x8]
  b4:	00000000 	udf	#0
  b8:	04000200 	add	z0.b, p0/m, z0.b, z16.b
  bc:	08055840 	stxrb	w5, w0, [x2]
  c0:	9f2447b4 	.inst	0x9f2447b4 ; undefined
  c4:	04000200 	add	z0.b, p0/m, z0.b, z16.b
  c8:	0c065840 	.inst	0x0c065840 ; undefined
  cc:	3f10001c 	.inst	0x3f10001c ; undefined
  d0:	0002009f 	.inst	0x0002009f ; undefined
  d4:	055c5804 	mov	z4.h, p12/m, #-64
  d8:	2447b408 	cmpeq	p8.h, p5/z, z0.h, z7.h
  dc:	0002009f 	.inst	0x0002009f ; undefined
  e0:	065c5804 	.inst	0x065c5804 ; undefined
  e4:	1000240c 	adr	x12, 564 <__bss_size+0x552>
  e8:	00009f3f 	udf	#40767
  ec:	04000000 	add	z0.b, p0/m, z0.b, z0.b
  f0:	50013410 	adr	x16, 2772 <__bss_size+0x2760>
  f4:	043c3404 	xar	z4.h, z4.h, z0.h, #4
  f8:	9f5001a3 	.inst	0x9f5001a3 ; undefined
  fc:	04000200 	add	z0.b, p0/m, z0.b, z16.b
 100:	0c063010 	.inst	0x0c063010 ; undefined
 104:	5a000020 	sbc	w0, w1, w0
 108:	0002009f 	.inst	0x0002009f ; undefined
 10c:	06301004 	.inst	0x06301004 ; undefined
 110:	10001c0c 	adr	x12, 490 <__bss_size+0x47e>
 114:	02009f3f 	.inst	0x02009f3f ; undefined
 118:	04000000 	add	z0.b, p0/m, z0.b, z0.b
 11c:	70083430 	adr	x16, 107a3 <__bss_size+0x10791>
 120:	47b40800 	.inst	0x47b40800 ; undefined
 124:	049f2124 	.inst	0x049f2124 ; undefined
 128:	a3093834 	.inst	0xa3093834 ; undefined
 12c:	b4085001 	cbz	x1, 10b2c <__bss_size+0x10b1a>
 130:	9f212447 	.inst	0x9f212447 ; undefined
 134:	04000200 	add	z0.b, p0/m, z0.b, z16.b
 138:	0c063830 	.inst	0x0c063830 ; undefined
 13c:	3f100024 	.inst	0x3f100024 ; undefined
 140:	00ee009f 	.inst	0x00ee009f ; undefined
 144:	00050000 	.inst	0x00050000 ; undefined
 148:	00000008 	udf	#8
 14c:	00000000 	udf	#0
 150:	c0040000 	.inst	0xc0040000 ; undefined
 154:	0103d403 	.inst	0x0103d403 ; undefined
 158:	03d40450 	.inst	0x03d40450 ; undefined
 15c:	560104b4 	.inst	0x560104b4 ; undefined
 160:	00000000 	udf	#0
 164:	04800400 	add	z0.s, p1/m, z0.s, z0.s
 168:	5101048c 	sub	w12, w4, #0x41
 16c:	b4048c04 	cbz	x4, 92ec <__bss_size+0x92da>
 170:	00540104 	.inst	0x00540104 ; undefined
 174:	00000001 	udf	#1
 178:	00020200 	.inst	0x00020200 ; undefined
 17c:	f403d804 	.inst	0xf403d804 ; undefined
 180:	9f4c0203 	.inst	0x9f4c0203 ; undefined
 184:	a003f404 	.inst	0xa003f404 ; undefined
 188:	04530104 	umulh	z4.h, p0/m, z4.h, z8.h
 18c:	04a404a0 	sub	z0.s, z5.s, z4.s
 190:	9f047303 	.inst	0x9f047303 ; undefined
 194:	b404a404 	cbz	x4, 9614 <__bss_size+0x9602>
 198:	00530104 	.inst	0x00530104 ; undefined
 19c:	8c040001 	.inst	0x8c040001 ; undefined
 1a0:	0104a404 	.inst	0x0104a404 ; undefined
 1a4:	01000054 	.inst	0x01000054 ; undefined
 1a8:	00000001 	udf	#1
 1ac:	8802e004 	stlxr	w2, w4, [x0]
 1b0:	04500103 	mul	z3.h, p0/m, z3.h, z8.h
 1b4:	038c0388 	.inst	0x038c0388 ; undefined
 1b8:	9f017003 	.inst	0x9f017003 ; undefined
 1bc:	c0038c04 	mov	z4.b, p3/m, za0v.b[w12, 0]
 1c0:	00500103 	.inst	0x00500103 ; undefined
 1c4:	8c040000 	.inst	0x8c040000 ; undefined
 1c8:	0103a003 	.inst	0x0103a003 ; undefined
 1cc:	00000053 	udf	#83
 1d0:	d802d004 	prfm	pldl3keep, 5bd0 <__bss_size+0x5bbe>
 1d4:	00500102 	.inst	0x00500102 ; undefined
 1d8:	01030301 	.inst	0x01030301 ; undefined
 1dc:	00000001 	udf	#1
 1e0:	01030301 	.inst	0x01030301 ; undefined
 1e4:	00000001 	udf	#1
 1e8:	00000000 	udf	#0
 1ec:	03101004 	.inst	0x03101004 ; undefined
 1f0:	049f9608 	.inst	0x049f9608 ; undefined
 1f4:	70031410 	adr	x16, 6477 <__bss_size+0x6465>
 1f8:	14049f7f 	b	127ff4 <__bss_end+0xc6a74>
 1fc:	7e700318 	.inst	0x7e700318 ; undefined
 200:	2c18049f 	stnp	s31, s1, [x4, #192]
 204:	9f7f7003 	.inst	0x9f7f7003 ; undefined
 208:	03303004 	.inst	0x03303004 ; undefined
 20c:	049f9608 	.inst	0x049f9608 ; undefined
 210:	70033430 	adr	x16, 6897 <__bss_size+0x6885>
 214:	34049f7f 	cbz	wzr, 9600 <__bss_size+0x95ee>
 218:	7e700338 	.inst	0x7e700338 ; undefined
 21c:	4038049f 	.inst	0x4038049f ; undefined
 220:	9f7f7003 	.inst	0x9f7f7003 ; undefined
 224:	dc01c804 	.inst	0xdc01c804 ; undefined
 228:	04500101 	mul	z1.h, p0/m, z1.h, z8.h
 22c:	01e401dc 	.inst	0x01e401dc ; undefined
 230:	00007202 	udf	#29186
 234:	00000bff 	udf	#3071
 238:	00080005 	.inst	0x00080005 ; undefined
	...
 244:	f0040000 	adrp	x0, 8003000 <__bss_end+0x7fa1a80>
 248:	01138312 	.inst	0x01138312 ; undefined
 24c:	13830450 	extr	w16, w2, w3, #1
 250:	63011398 	.inst	0x63011398 ; undefined
 254:	d8139804 	prfm	pldl3keep, 27554 <__bss_size+0x27542>
 258:	01a30413 	.inst	0x01a30413 ; undefined
 25c:	01009f50 	.inst	0x01009f50 ; undefined
 260:	00000000 	udf	#0
 264:	00000200 	udf	#512
 268:	13800400 	ror	w0, w0, #1
 26c:	83061383 	.inst	0x83061383 ; undefined
 270:	1c007000 	ldr	s0, 1070 <__bss_size+0x105e>
 274:	1383049f 	extr	wzr, w4, w3, #1
 278:	30021384 	adr	x4, 44e9 <__bss_size+0x44d7>
 27c:	1384049f 	ror	wzr, w4, #1
 280:	31021398 	adds	w24, w28, #0x84
 284:	13a0049f 	.inst	0x13a0049f ; undefined
 288:	830713a4 	.inst	0x830713a4 ; undefined
 28c:	5001a300 	adr	x0, 36ee <__bss_size+0x36dc>
 290:	a4049f1c 	.inst	0xa4049f1c ; undefined
 294:	0913b813 	.inst	0x0913b813 ; undefined
 298:	01a30083 	.inst	0x01a30083 ; undefined
 29c:	01231c50 	.inst	0x01231c50 ; undefined
 2a0:	0000009f 	udf	#159
 2a4:	88040000 	stxr	w4, w0, [x0]
 2a8:	01139f13 	.inst	0x01139f13 ; undefined
 2ac:	13a80452 	.inst	0x13a80452 ; undefined
 2b0:	520113c3 	eor	w3, w30, #0x8000000f
 2b4:	00000000 	udf	#0
 2b8:	04000000 	add	z0.b, p0/m, z0.b, z0.b
 2bc:	0e840d90 	.inst	0x0e840d90 ; undefined
 2c0:	84045001 	ld1b	{z1.s}, p4/z, [x0, z4.s, uxtw]
 2c4:	0412e00e 	msb	z14.b, p0/m, z18.b, z0.b
 2c8:	9f5001a3 	.inst	0x9f5001a3 ; undefined
 2cc:	f012e004 	adrp	x4, 25c03000 <__bss_end+0x25ba1a80>
 2d0:	00500112 	.inst	0x00500112 ; undefined
 2d4:	00000001 	udf	#1
 2d8:	c4040002 	ld1sb	{z2.d}, p0/z, [x0, z4.d, uxtw]
 2dc:	010e880d 	.inst	0x010e880d ; undefined
 2e0:	0e880454 	.inst	0x0e880454 ; undefined
 2e4:	73030e8c 	.inst	0x73030e8c ; undefined
 2e8:	e0049f01 	ld1b	{za0v.b[w12, 1]}, p7/z, [x24, x4]
 2ec:	0212f012 	.inst	0x0212f012 ; undefined
 2f0:	03009f30 	.inst	0x03009f30 ; undefined
 2f4:	00000000 	udf	#0
 2f8:	04000400 	add	z0.b, p1/m, z0.b, z0.b
 2fc:	0e9c0dc4 	.inst	0x0e9c0dc4 ; undefined
 300:	24474004 	cmpge	p4.h, p0/z, z0.h, z7.d
 304:	10f8049f 	adr	xzr, ffffffffffff0394 <__bss_end+0xfffffffffff8ee14>
 308:	710c10fc 	subs	w28, w7, #0x304
 30c:	24200800 	cmphs	p0.b, p2/z, z0.b, #0
 310:	77262008 	.inst	0x77262008 ; undefined
 314:	049f2200 	.inst	0x049f2200 ; undefined
 318:	118010fc 	.inst	0x118010fc ; undefined
 31c:	e0045701 	ld1b	{za0h.b[w14, 1]}, p5/z, [x24, x4]
 320:	0412f012 	msb	z18.b, p4/m, z18.b, z0.b
 324:	9f244740 	.inst	0x9f244740 ; undefined
	...
 330:	04000000 	add	z0.b, p0/m, z0.b, z0.b
 334:	10dc10a4 	adr	x4, fffffffffffb8548 <__bss_end+0xfffffffffff56fc8>
 338:	dc045601 	.inst	0xdc045601 ; undefined
 33c:	0410fc10 	msb	z16.b, p7/m, z16.b, z0.b
 340:	9f00ee77 	.inst	0x9f00ee77 ; undefined
 344:	84118004 	ldnt1sb	{z4.s}, p0/z, [z0.s, x17]
 348:	04560111 	.inst	0x04560111 ; undefined
 34c:	11b01184 	.inst	0x11b01184 ; undefined
 350:	00ee7704 	.inst	0x00ee7704 ; undefined
 354:	128c049f 	mov	wzr, #0xffff9fdb            	// #-24613
 358:	5601129b 	.inst	0x5601129b ; undefined
 35c:	00000200 	udf	#512
 360:	00000000 	udf	#0
 364:	0e9c0400 	.inst	0x0e9c0400 ; undefined
 368:	30020eb4 	adr	x20, 453d <__bss_size+0x452b>
 36c:	0edc049f 	fminnm	v31.4h, v4.4h, v28.4h
 370:	52010f98 	eor	w24, w28, #0x80000007
 374:	b00fbc04 	adrp	x4, 1f781000 <__bss_end+0x1f71fa80>
 378:	04520111 	smulh	z17.h, p0/m, z17.h, z8.h
 37c:	129b128c 	mov	w12, #0xffff276b            	// #-55445
 380:	03005201 	.inst	0x03005201 ; undefined
	...
 390:	04000000 	add	z0.b, p0/m, z0.b, z0.b
 394:	0eb40e9c 	sqadd	v28.2s, v20.2s, v20.2s
 398:	049f3002 	.inst	0x049f3002 ; undefined
 39c:	0ecc0eb4 	fmls	v20.4h, v21.4h, v12.4h
 3a0:	88045101 	stxr	w4, w1, [x8]
 3a4:	010fac0f 	.inst	0x010fac0f ; undefined
 3a8:	0fd80451 	.inst	0x0fd80451 ; undefined
 3ac:	51011098 	sub	w24, w4, #0x44
 3b0:	9c109804 	ldr	q4, 216b0 <__bss_size+0x2169e>
 3b4:	00710610 	.inst	0x00710610 ; undefined
 3b8:	9f220070 	.inst	0x9f220070 ; undefined
 3bc:	f8109c04 	str	x4, [x0, #-247]!
 3c0:	04510110 	.inst	0x04510110 ; undefined
 3c4:	11b01180 	.inst	0x11b01180 ; undefined
 3c8:	8c045101 	.inst	0x8c045101 ; undefined
 3cc:	01129b12 	.inst	0x01129b12 ; undefined
 3d0:	00070051 	.inst	0x00070051 ; undefined
 3d4:	c4040008 	ld1sb	{z8.d}, p0/z, [x0, z4.d, uxtw]
 3d8:	0312e00d 	.inst	0x0312e00d ; undefined
 3dc:	049f3608 	.inst	0x049f3608 ; undefined
 3e0:	12f012e0 	.inst	0x12f012e0 ; undefined
 3e4:	9f360803 	.inst	0x9f360803 ; undefined
 3e8:	09000800 	.inst	0x09000800 ; undefined
 3ec:	0dc40400 	ld1	{v0.b}[1], [x0], x4
 3f0:	080312e0 	stxrb	w3, w0, [x23]
 3f4:	e0049f5e 	.inst	0xe0049f5e ; undefined
 3f8:	0312f012 	.inst	0x0312f012 ; undefined
 3fc:	009f5e08 	.inst	0x009f5e08 ; undefined
 400:	9c040005 	ldr	q5, 8400 <__bss_size+0x83ee>
 404:	020eb40e 	.inst	0x020eb40e ; undefined
 408:	00009f30 	udf	#40752
 40c:	11900400 	.inst	0x11900400 ; undefined
 410:	300211b0 	adr	x16, 4645 <__bss_size+0x4633>
 414:	0000009f 	udf	#159
 418:	00000000 	udf	#0
 41c:	d811c004 	prfm	pldl3keep, 23c1c <__bss_size+0x23c0a>
 420:	9f3a0211 	.inst	0x9f3a0211 ; undefined
 424:	f411d804 	.inst	0xf411d804 ; undefined
 428:	04500111 	mul	z17.h, p0/m, z17.h, z8.h
 42c:	12c012bc 	.inst	0x12c012bc ; undefined
 430:	009f3a02 	.inst	0x009f3a02 ; undefined
	...
 440:	d011c004 	adrp	x4, 23802000 <__bss_end+0x237a0a80>
 444:	00740611 	.inst	0x00740611 ; undefined
 448:	9f1aff08 	.inst	0x9f1aff08 ; undefined
 44c:	d811d004 	prfm	pldl3keep, 23e4c <__bss_size+0x23e3a>
 450:	09740611 	.inst	0x09740611 ; undefined
 454:	9f1aff08 	.inst	0x9f1aff08 ; undefined
 458:	e011d804 	ld1b	{za0v.b[w14, 4]}, p6/z, [x0, x17]
 45c:	04530111 	umulh	z17.h, p0/m, z17.h, z8.h
 460:	11e811e0 	.inst	0x11e811e0 ; undefined
 464:	0809740b 	stxrb	w9, w11, [x0]
 468:	00701aff 	.inst	0x00701aff ; undefined
 46c:	9f1c3a22 	.inst	0x9f1c3a22 ; undefined
 470:	f411e804 	.inst	0xf411e804 ; undefined
 474:	04530111 	umulh	z17.h, p0/m, z17.h, z8.h
 478:	12c012bc 	.inst	0x12c012bc ; undefined
 47c:	08007406 	stxrb	w0, w6, [x0]
 480:	009f1aff 	.inst	0x009f1aff ; undefined
 484:	02000102 	.inst	0x02000102 ; undefined
 488:	c40d9004 	ldnt1sb	{z4.d}, p4/z, [z0.d, x13]
 48c:	0450010d 	mul	z13.h, p0/m, z13.h, z8.h
 490:	12e012e0 	.inst	0x12e012e0 ; undefined
 494:	04005001 	mla	z1.b, p4/m, z0.b, z0.b
 498:	00000000 	udf	#0
 49c:	00010000 	.inst	0x00010000 ; undefined
 4a0:	0d900402 	st1	{v2.b}[1], [x0], x16
 4a4:	30020dac 	adr	x12, 4659 <__bss_size+0x4647>
 4a8:	0db4049f 	st2	{v31.b, v0.b}[1], [x4], x20
 4ac:	53010db8 	ubfx	w24, w13, #1, #3
 4b0:	bc0db804 	.inst	0xbc0db804 ; undefined
 4b4:	0451010d 	.inst	0x0451010d ; undefined
 4b8:	0dc40dbc 	ld1	{v28.b}[3], [x13], x4
 4bc:	e0045401 	ld1b	{za0h.b[w14, 1]}, p5/z, [x0, x4]
 4c0:	0212e012 	.inst	0x0212e012 ; undefined
 4c4:	01009f30 	.inst	0x01009f30 ; undefined
 4c8:	01000000 	.inst	0x01000000 ; undefined
 4cc:	0dd00400 	ld1	{v0.b}[1], [x0], x16
 4d0:	74030e88 	.inst	0x74030e88 ; undefined
 4d4:	88049f7c 	stlxr	w4, w28, [x27]
 4d8:	030e8c0e 	.inst	0x030e8c0e ; undefined
 4dc:	049f7d73 	mls	z19.s, p7/m, z11.s, z31.s
 4e0:	12f012ec 	.inst	0x12f012ec ; undefined
 4e4:	9ffc0903 	.inst	0x9ffc0903 ; undefined
 4e8:	01000100 	.inst	0x01000100 ; undefined
 4ec:	0dd00400 	ld1	{v0.b}[1], [x0], x16
 4f0:	34020e9c 	cbz	w28, 46c0 <__bss_size+0x46ae>
 4f4:	12ec049f 	.inst	0x12ec049f ; undefined
 4f8:	340212f0 	cbz	w16, 4754 <__bss_size+0x4742>
 4fc:	0001009f 	.inst	0x0001009f ; undefined
 500:	d0040001 	adrp	x1, 8002000 <__bss_end+0x7fa0a80>
 504:	010e9c0d 	.inst	0x010e9c0d ; undefined
 508:	12ec0463 	.inst	0x12ec0463 ; undefined
 50c:	630112f0 	.inst	0x630112f0 ; undefined
 510:	00000100 	udf	#256
 514:	04000100 	add	z0.b, p0/m, z0.b, z8.b
 518:	0e840dd0 	.inst	0x0e840dd0 ; undefined
 51c:	84045001 	ld1b	{z1.s}, p4/z, [x0, z4.s, uxtw]
 520:	040e9c0e 	.inst	0x040e9c0e ; undefined
 524:	9f5001a3 	.inst	0x9f5001a3 ; undefined
 528:	f012ec04 	adrp	x4, 25d83000 <__bss_end+0x25d21a80>
 52c:	00500112 	.inst	0x00500112 ; undefined
 530:	e0040000 	ld1b	{za0h.b[w12, 0]}, p0/z, [x0, x4]
 534:	010dec0d 	.inst	0x010dec0d ; undefined
 538:	00010051 	.inst	0x00010051 ; undefined
 53c:	03000000 	.inst	0x03000000 ; undefined
 540:	00000003 	udf	#3
 544:	a4040000 	ld1rqb	{z0.b}, p0/z, [x0, x4]
 548:	0a10bc10 	.inst	0x0a10bc10 ; undefined
 54c:	06137003 	.inst	0x06137003 ; undefined
 550:	00000000 	udf	#0
 554:	bc049f00 	str	s0, [x24, #73]!
 558:	0d10c410 	.inst	0x0d10c410 ; undefined
 55c:	71030070 	subs	w16, w3, #0xc0
 560:	00000613 	udf	#1555
 564:	22000000 	.inst	0x22000000 ; undefined
 568:	10c4049f 	adr	xzr, fffffffffff885f8 <__bss_end+0xfffffffffff27078>
 56c:	700d10cc 	adr	x12, 1a787 <__bss_size+0x1a775>
 570:	13700300 	.inst	0x13700300 ; undefined
 574:	00000006 	udf	#6
 578:	9f220000 	.inst	0x9f220000 ; undefined
 57c:	d410cc04 	.inst	0xd410cc04 ; undefined
 580:	00700d10 	.inst	0x00700d10 ; undefined
 584:	06137103 	.inst	0x06137103 ; undefined
 588:	00000000 	udf	#0
 58c:	049f2200 	.inst	0x049f2200 ; undefined
 590:	11841180 	.inst	0x11841180 ; undefined
 594:	1370030a 	.inst	0x1370030a ; undefined
 598:	00000006 	udf	#6
 59c:	049f0000 	.inst	0x049f0000 ; undefined
 5a0:	1290128c 	mov	w12, #0xffff7f6b            	// #-32917
 5a4:	0300700d 	.inst	0x0300700d ; undefined
 5a8:	00061370 	.inst	0x00061370 ; undefined
 5ac:	00000000 	udf	#0
 5b0:	01009f22 	.inst	0x01009f22 ; undefined
 5b4:	04000000 	add	z0.b, p0/m, z0.b, z0.b
 5b8:	10bc10a4 	adr	x4, fffffffffff787cc <__bss_end+0xfffffffffff1724c>
 5bc:	80045601 	.inst	0x80045601 ; undefined
 5c0:	01118411 	.inst	0x01118411 ; undefined
 5c4:	00000056 	udf	#86
 5c8:	f410dc04 	.inst	0xf410dc04 ; undefined
 5cc:	00500110 	.inst	0x00500110 ; undefined
 5d0:	02000000 	.inst	0x02000000 ; undefined
 5d4:	dc040002 	.inst	0xdc040002 ; undefined
 5d8:	0310e010 	.inst	0x0310e010 ; undefined
 5dc:	049f0176 	.inst	0x049f0176 ; undefined
 5e0:	10e410e0 	adr	x0, fffffffffffc87fc <__bss_end+0xfffffffffff6727c>
 5e4:	e4045601 	st1b	{z1.b}, p5, [x16, x4]
 5e8:	0310f410 	.inst	0x0310f410 ; undefined
 5ec:	009f0176 	.inst	0x009f0176 ; undefined
	...
 5f8:	fc0ce004 	stur	d4, [x0, #206]
 5fc:	0450010c 	mul	z12.h, p0/m, z12.h, z8.h
 600:	0d880cfc 	st1	{v28.b}[3], [x7], x8
 604:	5001a304 	adr	x4, 3a66 <__bss_size+0x3a54>
 608:	0d88049f 	st1	{v31.b}[1], [x4], x8
 60c:	50010d8c 	adr	x12, 27be <__bss_size+0x27ac>
 610:	900d8c04 	adrp	x4, 1b180000 <__bss_end+0x1b11ea80>
 614:	01a3040d 	.inst	0x01a3040d ; undefined
 618:	04009f50 	asr	z16.h, p7/m, z16.h, #6
 61c:	01010101 	.inst	0x01010101 ; undefined
 620:	0ce00400 	.inst	0x0ce00400 ; undefined
 624:	30020cec 	adr	x12, 47c1 <__bss_size+0x47af>
 628:	0cec049f 	.inst	0x0cec049f ; undefined
 62c:	31020cf8 	adds	w24, w7, #0x83
 630:	0cf8049f 	.inst	0x0cf8049f ; undefined
 634:	32020d88 	orr	w8, w12, #0xc0000003
 638:	0000009f 	udf	#159
	...
 644:	f0040000 	adrp	x0, 8003000 <__bss_end+0x7fa1a80>
 648:	0107a406 	.inst	0x0107a406 ; undefined
 64c:	07a40450 	.inst	0x07a40450 ; undefined
 650:	69010c84 	stgp	x4, x3, [x4, #32]
 654:	8c0c8404 	.inst	0x8c0c8404 ; undefined
 658:	01a3040c 	.inst	0x01a3040c ; undefined
 65c:	8c049f50 	.inst	0x8c049f50 ; undefined
 660:	010ca40c 	.inst	0x010ca40c ; undefined
 664:	0ca40469 	.inst	0x0ca40469 ; undefined
 668:	a3040cac 	.inst	0xa3040cac ; undefined
 66c:	049f5001 	mla	z1.s, p4/m, z0.s, z31.s
 670:	0ce00cac 	.inst	0x0ce00cac ; undefined
 674:	00006901 	udf	#26881
	...
 680:	04000000 	add	z0.b, p0/m, z0.b, z0.b
 684:	07a406f0 	.inst	0x07a406f0 ; undefined
 688:	a4045101 	ld1b	{z1.b}, p4/z, [x8, x4]
 68c:	010c8007 	.inst	0x010c8007 ; undefined
 690:	0c800468 	st4	{v8.4h-v11.4h}, [x3], x0
 694:	a3040c8c 	.inst	0xa3040c8c ; undefined
 698:	049f5101 	mla	z1.s, p4/m, z8.s, z31.s
 69c:	0ca00c8c 	.inst	0x0ca00c8c ; undefined
 6a0:	a0046801 	.inst	0xa0046801 ; undefined
 6a4:	040cac0c 	.inst	0x040cac0c ; undefined
 6a8:	9f5101a3 	.inst	0x9f5101a3 ; undefined
 6ac:	e00cac04 	ld1b	{za0v.b[w13, 4]}, p3/z, [x0, x12]
 6b0:	0068010c 	.inst	0x0068010c ; undefined
 6b4:	00000002 	udf	#2
 6b8:	00000000 	udf	#0
 6bc:	f0040000 	adrp	x0, 8003000 <__bss_end+0x7fa1a80>
 6c0:	0407a406 	.inst	0x0407a406 ; undefined
 6c4:	9f244740 	.inst	0x9f244740 ; undefined
 6c8:	bc0ab804 	.inst	0xbc0ab804 ; undefined
 6cc:	00730c0a 	.inst	0x00730c0a ; undefined
 6d0:	08242008 	.inst	0x08242008 ; undefined
 6d4:	00862620 	.inst	0x00862620 ; undefined
 6d8:	bc049f22 	str	s2, [x25, #73]!
 6dc:	010ac00a 	.inst	0x010ac00a ; undefined
 6e0:	0ae40466 	bic	w6, w3, w4, ror #1
 6e4:	730c0ae8 	.inst	0x730c0ae8 ; undefined
 6e8:	24200800 	cmphs	p0.b, p2/z, z0.b, #0
 6ec:	86262008 	.inst	0x86262008 ; undefined
 6f0:	049f2200 	.inst	0x049f2200 ; undefined
 6f4:	0aec0ae8 	bic	w8, w23, w12, ror #2
 6f8:	00006601 	udf	#26113
	...
 708:	04000000 	add	z0.b, p0/m, z0.b, z0.b
 70c:	0a9c09ac 	and	w12, w13, w28, asr #2
 710:	9c046a01 	ldr	q1, 9450 <__bss_size+0x943e>
 714:	040abc0a 	.inst	0x040abc0a ; undefined
 718:	9f00ee86 	.inst	0x9f00ee86 ; undefined
 71c:	ec0ac004 	.inst	0xec0ac004 ; undefined
 720:	046a010a 	add	z10.h, z8.h, z10.h
 724:	0b980aec 	add	w12, w23, w24, asr #2
 728:	00ee8604 	.inst	0x00ee8604 ; undefined
 72c:	0b98049f 	add	wzr, w4, w24, asr #1
 730:	71040b9c 	subs	w28, w28, #0x102
 734:	049f00ed 	.inst	0x049f00ed ; undefined
 738:	0ca40c8c 	.inst	0x0ca40c8c ; undefined
 73c:	a4046a01 	ldff1b	{z1.b}, p2/z, [x16, x4]
 740:	030cac0c 	.inst	0x030cac0c ; undefined
 744:	049f7f71 	mls	z17.s, p7/m, z27.s, z31.s
 748:	0cb80cac 	.inst	0x0cb80cac ; undefined
 74c:	02006a01 	.inst	0x02006a01 ; undefined
	...
 758:	07a40400 	.inst	0x07a40400 ; undefined
 75c:	300207bc 	adr	x28, 4851 <__bss_size+0x483f>
 760:	07e4049f 	.inst	0x07e4049f ; undefined
 764:	640108a0 	.inst	0x640108a0 ; undefined
 768:	f808c404 	str	x4, [x0], #140
 76c:	0464010b 	add	z11.h, z8.h, z4.h
 770:	0c980c8c 	.inst	0x0c980c8c ; undefined
 774:	ac046401 	stnp	q1, q25, [x0, #128]
 778:	010ce00c 	.inst	0x010ce00c ; undefined
 77c:	00030064 	.inst	0x00030064 ; undefined
	...
 788:	bc07a404 	str	s4, [x0], #122
 78c:	9f300207 	.inst	0x9f300207 ; undefined
 790:	d407bc04 	.inst	0xd407bc04 ; undefined
 794:	04530107 	umulh	z7.h, p0/m, z7.h, z8.h
 798:	08b40890 	.inst	0x08b40890 ; undefined
 79c:	e0045301 	ld1b	{za0h.b[w14, 1]}, p4/z, [x24, x4]
 7a0:	0108ec08 	.inst	0x0108ec08 ; undefined
 7a4:	08ec0453 	.inst	0x08ec0453 ; undefined
 7a8:	630109a0 	.inst	0x630109a0 ; undefined
 7ac:	04000500 	add	z0.b, p1/m, z0.b, z8.b
 7b0:	07bc07a4 	.inst	0x07bc07a4 ; undefined
 7b4:	009f3002 	.inst	0x009f3002 ; undefined
 7b8:	fc040000 	stur	d0, [x0, #64]
 7bc:	020b9c0a 	.inst	0x020b9c0a ; undefined
 7c0:	00009f30 	udf	#40752
 7c4:	00000000 	udf	#0
 7c8:	0bb00400 	.inst	0x0bb00400 ; undefined
 7cc:	3a020bc8 	.inst	0x3a020bc8 ; undefined
 7d0:	0bc8049f 	.inst	0x0bc8049f ; undefined
 7d4:	50010be4 	adr	x4, 2952 <__bss_size+0x2940>
 7d8:	bc0cb804 	.inst	0xbc0cb804 ; undefined
 7dc:	9f3a020c 	.inst	0x9f3a020c ; undefined
	...
 7ec:	0bb00400 	.inst	0x0bb00400 ; undefined
 7f0:	74060bc0 	.inst	0x74060bc0 ; undefined
 7f4:	1aff0800 	.inst	0x1aff0800 ; undefined
 7f8:	0bc0049f 	.inst	0x0bc0049f ; undefined
 7fc:	74060bc8 	.inst	0x74060bc8 ; undefined
 800:	1aff0809 	.inst	0x1aff0809 ; undefined
 804:	0bc8049f 	.inst	0x0bc8049f ; undefined
 808:	53010bd0 	ubfx	w16, w30, #1, #2
 80c:	d80bd004 	prfm	pldl3keep, 1820c <__bss_size+0x181fa>
 810:	09740b0b 	.inst	0x09740b0b ; undefined
 814:	701aff08 	adr	x8, 367f7 <__bss_size+0x367e5>
 818:	1c3a2200 	ldr	s0, 74c58 <__bss_end+0x136d8>
 81c:	0bd8049f 	.inst	0x0bd8049f ; undefined
 820:	53010be4 	ubfx	w4, wzr, #1, #2
 824:	bc0cb804 	.inst	0xbc0cb804 ; undefined
 828:	0074060c 	.inst	0x0074060c ; undefined
 82c:	9f1aff08 	.inst	0x9f1aff08 ; undefined
 830:	00000000 	udf	#0
 834:	00000303 	udf	#771
 838:	04000001 	add	z1.b, p0/m, z1.b, z0.b
 83c:	0a8009f8 	and	w24, w15, w0, asr #2
 840:	0300720d 	.inst	0x0300720d ; undefined
 844:	00061381 	.inst	0x00061381 ; undefined
 848:	00000000 	udf	#0
 84c:	80049f22 	.inst	0x80049f22 ; undefined
 850:	0d0a880a 	.inst	0x0d0a880a ; undefined
 854:	80030072 	.inst	0x80030072 ; undefined
 858:	00000613 	udf	#1555
 85c:	22000000 	.inst	0x22000000 ; undefined
 860:	0a88049f 	and	wzr, w4, w8, asr #1
 864:	720d0a90 	ands	w16, w20, #0x380000
 868:	13810300 	extr	w0, w24, w1, #0
 86c:	00000006 	udf	#6
 870:	9f220000 	.inst	0x9f220000 ; undefined
 874:	c00ac004 	.inst	0xc00ac004 ; undefined
 878:	80030a0a 	.inst	0x80030a0a ; undefined
 87c:	00000613 	udf	#1555
 880:	9f000000 	.inst	0x9f000000 ; undefined
 884:	b00cac04 	adrp	x4, 19581000 <__bss_end+0x1951fa80>
 888:	00720d0c 	.inst	0x00720d0c ; undefined
 88c:	06138003 	.inst	0x06138003 ; undefined
 890:	00000000 	udf	#0
 894:	009f2200 	.inst	0x009f2200 ; undefined
 898:	c0040100 	.inst	0xc0040100 ; undefined
 89c:	010ac00a 	.inst	0x010ac00a ; undefined
 8a0:	0001006a 	.inst	0x0001006a ; undefined
 8a4:	03000000 	.inst	0x03000000 ; undefined
 8a8:	00000003 	udf	#3
 8ac:	cc09ac04 	.inst	0xcc09ac04 ; undefined
 8b0:	70030a09 	adr	x9, 69f3 <__bss_size+0x69e1>
 8b4:	00000613 	udf	#1555
 8b8:	9f000000 	.inst	0x9f000000 ; undefined
 8bc:	d409cc04 	.inst	0xd409cc04 ; undefined
 8c0:	00720d09 	.inst	0x00720d09 ; undefined
 8c4:	06137103 	.inst	0x06137103 ; undefined
 8c8:	00000000 	udf	#0
 8cc:	049f2200 	.inst	0x049f2200 ; undefined
 8d0:	09dc09d4 	.inst	0x09dc09d4 ; undefined
 8d4:	0300720d 	.inst	0x0300720d ; undefined
 8d8:	00061370 	.inst	0x00061370 ; undefined
 8dc:	00000000 	udf	#0
 8e0:	dc049f22 	.inst	0xdc049f22 ; undefined
 8e4:	0d09e409 	.inst	0x0d09e409 ; undefined
 8e8:	71030072 	subs	w18, w3, #0xc0
 8ec:	00000613 	udf	#1555
 8f0:	22000000 	.inst	0x22000000 ; undefined
 8f4:	0c8c049f 	st4	{v31.4h, v0.4h, v1.4h, v2.4h}, [x4], x12
 8f8:	720d0c94 	ands	w20, w4, #0x780000
 8fc:	13700300 	.inst	0x13700300 ; undefined
 900:	00000006 	udf	#6
 904:	9f220000 	.inst	0x9f220000 ; undefined
 908:	04000100 	add	z0.b, p0/m, z0.b, z8.b
 90c:	09cc09ac 	.inst	0x09cc09ac ; undefined
 910:	00006a01 	udf	#27137
 914:	04000100 	add	z0.b, p0/m, z0.b, z8.b
 918:	0ab40a9c 	bic	w28, w20, w20, asr #2
 91c:	d8045201 	prfm	pldl1strm, 935c <__bss_size+0x934a>
 920:	010ae00a 	.inst	0x010ae00a ; undefined
 924:	00000069 	udf	#105
 928:	00020200 	.inst	0x00020200 ; undefined
 92c:	9c040001 	ldr	q1, 892c <__bss_size+0x891a>
 930:	030aa00a 	.inst	0x030aa00a ; undefined
 934:	049f018a 	.inst	0x049f018a ; undefined
 938:	0aa40aa0 	bic	w0, w21, w4, asr #2
 93c:	a4046a01 	ldff1b	{z1.b}, p2/z, [x16, x4]
 940:	030ab40a 	.inst	0x030ab40a ; undefined
 944:	049f018a 	.inst	0x049f018a ; undefined
 948:	0ae00ad8 	bic	w24, w22, w0, ror #2
 94c:	04006a01 	mls	z1.b, p2/m, z16.b, z0.b
 950:	00000000 	udf	#0
 954:	04000101 	add	z1.b, p0/m, z1.b, z8.b
 958:	01e801e0 	.inst	0x01e801e0 ; undefined
 95c:	049f3002 	.inst	0x049f3002 ; undefined
 960:	02d001e8 	.inst	0x02d001e8 ; undefined
 964:	d0045501 	adrp	x1, 8aa2000 <__bss_end+0x8a40a80>
 968:	0302e002 	.inst	0x0302e002 ; undefined
 96c:	049f7f75 	mls	z21.s, p7/m, z27.s, z31.s
 970:	02e802e0 	.inst	0x02e802e0 ; undefined
 974:	00005501 	udf	#21761
 978:	02b80400 	.inst	0x02b80400 ; undefined
 97c:	570102e4 	.inst	0x570102e4 ; undefined
 980:	02010100 	.inst	0x02010100 ; undefined
 984:	01e80400 	.inst	0x01e80400 ; undefined
 988:	50010288 	adr	x8, 29da <__bss_size+0x29c8>
 98c:	e402e004 	st1b	{z4.b}, p0, [x0, #2, mul vl]
 990:	00500102 	.inst	0x00500102 ; undefined
 994:	00000003 	udf	#3
 998:	01000000 	.inst	0x01000000 ; undefined
 99c:	e8040004 	.inst	0xe8040004 ; undefined
 9a0:	0201f401 	.inst	0x0201f401 ; undefined
 9a4:	f4049f30 	.inst	0xf4049f30 ; undefined
 9a8:	0301fc01 	.inst	0x0301fc01 ; undefined
 9ac:	049f7f71 	mls	z17.s, p7/m, z27.s, z31.s
 9b0:	028001fc 	.inst	0x028001fc ; undefined
 9b4:	80045101 	.inst	0x80045101 ; undefined
 9b8:	01028802 	.inst	0x01028802 ; undefined
 9bc:	02e00454 	.inst	0x02e00454 ; undefined
 9c0:	300202e4 	adr	x4, 4a1d <__bss_size+0x4a0b>
 9c4:	0000009f 	udf	#159
 9c8:	01000000 	.inst	0x01000000 ; undefined
 9cc:	9c029804 	ldr	q4, 5ccc <__bss_size+0x5cba>
 9d0:	7f710302 	.inst	0x7f710302 ; undefined
 9d4:	029c049f 	.inst	0x029c049f ; undefined
 9d8:	510102a0 	sub	w0, w21, #0x40
 9dc:	a802a004 	stnp	x4, x8, [x0, #40]
 9e0:	00540102 	.inst	0x00540102 ; undefined
 9e4:	b8040101 	stur	w1, [x8, #64]
 9e8:	0102c802 	.inst	0x0102c802 ; undefined
 9ec:	04020050 	.inst	0x04020050 ; undefined
 9f0:	00000004 	udf	#4
 9f4:	b8040100 	stur	w0, [x8, #64]
 9f8:	0202b802 	.inst	0x0202b802 ; undefined
 9fc:	b8049f30 	str	w16, [x25, #73]!
 a00:	0302bc02 	.inst	0x0302bc02 ; undefined
 a04:	049f7f71 	mls	z17.s, p7/m, z27.s, z31.s
 a08:	02c002bc 	.inst	0x02c002bc ; undefined
 a0c:	c0045101 	.inst	0xc0045101 ; undefined
 a10:	0102c802 	.inst	0x0102c802 ; undefined
 a14:	00000054 	udf	#84
	...
 a20:	9803f404 	ldrsw	x4, 88a0 <__bss_size+0x888e>
 a24:	40900205 	.inst	0x40900205 ; undefined
 a28:	c4059804 	ldnt1sb	{z4.d}, p6/z, [z0.d, x5]
 a2c:	03a30606 	.inst	0x03a30606 ; undefined
 a30:	9f2e40a5 	.inst	0x9f2e40a5 ; undefined
 a34:	dc06c404 	.inst	0xdc06c404 ; undefined
 a38:	40900206 	.inst	0x40900206 ; undefined
 a3c:	e806dc04 	.inst	0xe806dc04 ; undefined
 a40:	03a30606 	.inst	0x03a30606 ; undefined
 a44:	9f2e40a5 	.inst	0x9f2e40a5 ; undefined
 a48:	f006e804 	adrp	x4, dd03000 <__bss_end+0xdca1a80>
 a4c:	40900206 	.inst	0x40900206 ; undefined
	...
 a58:	04000000 	add	z0.b, p0/m, z0.b, z0.b
 a5c:	05d803f4 	mov	z20.d, p8/z, #31
 a60:	d8045001 	prfm	pldl1strm, 9460 <__bss_size+0x944e>
 a64:	0406c405 	mad	z5.b, p1/m, z6.b, z0.b
 a68:	9f5001a3 	.inst	0x9f5001a3 ; undefined
 a6c:	e006c404 	ld1b	{za0v.b[w14, 4]}, p1/z, [x0, x6]
 a70:	04500106 	mul	z6.h, p0/m, z6.h, z8.h
 a74:	06e806e0 	.inst	0x06e806e0 ; undefined
 a78:	5001a304 	adr	x4, 3eda <__bss_size+0x3ec8>
 a7c:	06e8049f 	.inst	0x06e8049f ; undefined
 a80:	500106f0 	adr	x16, 2b5e <__bss_size+0x2b4c>
	...
 a8c:	03f40400 	.inst	0x03f40400 ; undefined
 a90:	5101049c 	sub	w28, w4, #0x41
 a94:	e8049c04 	.inst	0xe8049c04 ; undefined
 a98:	04580106 	orr	z6.h, p0/m, z6.h, z8.h
 a9c:	06ec06e8 	.inst	0x06ec06e8 ; undefined
 aa0:	ec045101 	.inst	0xec045101 ; undefined
 aa4:	0106f006 	.inst	0x0106f006 ; undefined
 aa8:	00000058 	udf	#88
 aac:	f003f804 	adrp	x4, 7f03000 <__bss_end+0x7ea1a80>
 ab0:	00590106 	.inst	0x00590106 ; undefined
 ab4:	01000001 	.inst	0x01000001 ; undefined
 ab8:	00000000 	udf	#0
 abc:	9803f804 	ldrsw	x4, 89bc <__bss_size+0x89aa>
 ac0:	40a50b05 	.inst	0x40a50b05 ; undefined
 ac4:	a800792e 	stnp	x14, x30, [x9]
 ac8:	1c2ea835 	ldr	s21, 5dfcc <__bss_size+0x5dfba>
 acc:	0598049f 	mov	z31.s, p8/z, #36
 ad0:	a30d05c0 	.inst	0xa30d05c0 ; undefined
 ad4:	2e40a503 	.inst	0x2e40a503 ; undefined
 ad8:	35a80079 	cbnz	w25, fffffffffff50ae4 <__bss_end+0xffffffffffeef564>
 adc:	9f1c2ea8 	.inst	0x9f1c2ea8 ; undefined
 ae0:	dc06c404 	.inst	0xdc06c404 ; undefined
 ae4:	40a50b06 	.inst	0x40a50b06 ; undefined
 ae8:	a800792e 	stnp	x14, x30, [x9]
 aec:	1c2ea835 	ldr	s21, 5dff0 <__bss_size+0x5dfde>
 af0:	06e8049f 	.inst	0x06e8049f ; undefined
 af4:	a50b06f0 	ld1rqw	{z16.s}, p1/z, [x23, x11, lsl #2]
 af8:	00792e40 	.inst	0x00792e40 ; undefined
 afc:	2ea835a8 	cmhi	v8.2s, v13.2s, v8.2s
 b00:	01009f1c 	.inst	0x01009f1c ; undefined
 b04:	04000100 	add	z0.b, p0/m, z0.b, z8.b
 b08:	06c404fc 	.inst	0x06c404fc ; undefined
 b0c:	049f3002 	.inst	0x049f3002 ; undefined
 b10:	06e806d0 	.inst	0x06e806d0 ; undefined
 b14:	009f3002 	.inst	0x009f3002 ; undefined
 b18:	00000002 	udf	#2
 b1c:	d803f804 	prfm	pldl3keep, 8a1c <__bss_size+0x8a0a>
 b20:	9f300204 	.inst	0x9f300204 ; undefined
 b24:	f006e804 	adrp	x4, dd03000 <__bss_end+0xdca1a80>
 b28:	9f300206 	.inst	0x9f300206 ; undefined
 b2c:	00000200 	udf	#512
 b30:	03f80400 	.inst	0x03f80400 ; undefined
 b34:	500104d8 	adr	x24, 2bce <__bss_size+0x2bbc>
 b38:	f006e804 	adrp	x4, dd03000 <__bss_end+0xdca1a80>
 b3c:	00500106 	.inst	0x00500106 ; undefined
 b40:	00000002 	udf	#2
 b44:	00000001 	udf	#1
 b48:	9c03f804 	ldr	q4, 8a48 <__bss_size+0x8a36>
 b4c:	04590104 	eor	z4.h, p0/m, z4.h, z8.h
 b50:	04bc049c 	sub	z28.s, z4.s, z28.s
 b54:	c4045401 	ld1b	{z1.d}, p5/z, [x0, z4.d, uxtw]
 b58:	0104d004 	.inst	0x0104d004 ; undefined
 b5c:	06e80454 	.inst	0x06e80454 ; undefined
 b60:	590106f0 	.inst	0x590106f0 ; undefined
 b64:	00000300 	udf	#768
 b68:	00000000 	udf	#0
 b6c:	04000000 	add	z0.b, p0/m, z0.b, z0.b
 b70:	049c03f8 	.inst	0x049c03f8 ; undefined
 b74:	049f3002 	.inst	0x049f3002 ; undefined
 b78:	04a8049c 	sub	z28.s, z4.s, z8.s
 b7c:	9f7f7503 	.inst	0x9f7f7503 ; undefined
 b80:	c804a804 	stlxr	w4, x4, [x0]
 b84:	04550104 	.inst	0x04550104 ; undefined
 b88:	04d004c8 	mul	z8.d, p1/m, z8.d, z6.d
 b8c:	e8045101 	.inst	0xe8045101 ; undefined
 b90:	0206f006 	.inst	0x0206f006 ; undefined
 b94:	00009f30 	udf	#40752
 b98:	01010000 	.inst	0x01010000 ; undefined
 b9c:	04010000 	sub	z0.b, p0/m, z0.b, z0.b
 ba0:	04e804d8 	sub	z24.d, z6.d, z8.d
 ba4:	049f3002 	.inst	0x049f3002 ; undefined
 ba8:	04e804e8 	sub	z8.d, z7.d, z8.d
 bac:	9f7f7203 	.inst	0x9f7f7203 ; undefined
 bb0:	f404e804 	.inst	0xf404e804 ; undefined
 bb4:	04520104 	smulh	z4.h, p0/m, z4.h, z8.h
 bb8:	06d006c4 	.inst	0x06d006c4 ; undefined
 bbc:	009f3002 	.inst	0x009f3002 ; undefined
 bc0:	00000002 	udf	#2
 bc4:	98040100 	ldrsw	x0, 8be4 <__bss_size+0x8bd2>
 bc8:	0105a405 	.inst	0x0105a405 ; undefined
 bcc:	05a40458 	zip2	z24.q, z2.q, z4.q
 bd0:	520105b0 	eor	w16, w13, #0x80000001
 bd4:	b405b004 	cbz	x4, c1d4 <__bss_size+0xc1c2>
 bd8:	01720305 	.inst	0x01720305 ; undefined
 bdc:	0102009f 	.inst	0x0102009f ; undefined
 be0:	c0059804 	.inst	0xc0059804 ; undefined
 be4:	9f3a0205 	.inst	0x9f3a0205 ; undefined
 be8:	00000400 	udf	#1024
 bec:	04000000 	add	z0.b, p0/m, z0.b, z0.b
 bf0:	05a40598 	zip2	z24.q, z12.q, z4.q
 bf4:	049f3102 	.inst	0x049f3102 ; undefined
 bf8:	05ac05a4 	zip2	z4.q, z13.q, z12.q
 bfc:	b4045101 	cbz	x1, 961c <__bss_size+0x960a>
 c00:	0105c005 	.inst	0x0105c005 ; undefined
 c04:	00000051 	udf	#81
 c08:	cc040000 	.inst	0xcc040000 ; undefined
 c0c:	0106c405 	.inst	0x0106c405 ; undefined
 c10:	06dc0458 	.inst	0x06dc0458 ; undefined
 c14:	580106e8 	ldr	x8, 2cf0 <__bss_size+0x2cde>
 c18:	00000000 	udf	#0
 c1c:	04000000 	add	z0.b, p0/m, z0.b, z0.b
 c20:	06c305cc 	.inst	0x06c305cc ; undefined
 c24:	c3045701 	.inst	0xc3045701 ; undefined
 c28:	0106c406 	.inst	0x0106c406 ; undefined
 c2c:	06dc0450 	.inst	0x06dc0450 ; undefined
 c30:	570106e8 	.inst	0x570106e8 ; undefined
 c34:	01000000 	.inst	0x01000000 ; undefined
 c38:	04000000 	add	z0.b, p0/m, z0.b, z0.b
 c3c:	05fc05cc 	.inst	0x05fc05cc ; undefined
 c40:	84045401 	ld1b	{z1.s}, p5/z, [x0, z4.s, uxtw]
 c44:	0106c306 	.inst	0x0106c306 ; undefined
 c48:	06dc0454 	.inst	0x06dc0454 ; undefined
 c4c:	540106e8 	b.hi	2d28 <__bss_size+0x2d16>  // b.pmore
 c50:	00000100 	udf	#256
 c54:	01010000 	.inst	0x01010000 ; undefined
 c58:	00000101 	udf	#257
 c5c:	05cc0400 	.inst	0x05cc0400 ; undefined
 c60:	300205e0 	adr	x0, 4d1d <__bss_size+0x4d0b>
 c64:	05e0049f 	.inst	0x05e0049f ; undefined
 c68:	760305e8 	.inst	0x760305e8 ; undefined
 c6c:	e8049f7f 	.inst	0xe8049f7f ; undefined
 c70:	01068405 	.inst	0x01068405 ; undefined
 c74:	06840456 	.inst	0x06840456 ; undefined
 c78:	5101069c 	sub	w28, w20, #0x41
 c7c:	a8069c04 	stnp	x4, x7, [x0, #104]
 c80:	01710306 	.inst	0x01710306 ; undefined
 c84:	06dc049f 	.inst	0x06dc049f ; undefined
 c88:	300206e8 	adr	x8, 4d65 <__bss_size+0x4d53>
 c8c:	0000009f 	udf	#159
 c90:	00040000 	.inst	0x00040000 ; undefined
 c94:	04500108 	mul	z8.h, p0/m, z8.h, z8.h
 c98:	52012008 	eor	w8, w0, #0x800000ff
 c9c:	01010000 	.inst	0x01010000 ; undefined
 ca0:	04000000 	add	z0.b, p0/m, z0.b, z0.b
 ca4:	51011400 	sub	w0, w0, #0x45
 ca8:	03181404 	.inst	0x03181404 ; undefined
 cac:	049f7f71 	mls	z17.s, p7/m, z27.s, z31.s
 cb0:	51012018 	sub	w24, w0, #0x48
 cb4:	00000200 	udf	#512
 cb8:	10000400 	adr	x0, d38 <__bss_size+0xd26>
 cbc:	049f3102 	.inst	0x049f3102 ; undefined
 cc0:	50011c10 	adr	x16, 3042 <__bss_size+0x3030>
 cc4:	00000000 	udf	#0
 cc8:	02020000 	.inst	0x02020000 ; undefined
 ccc:	2c200400 	stnp	s0, s1, [x0, #-256]
 cd0:	2c045001 	stnp	s1, s20, [x0, #32]
 cd4:	01700330 	.inst	0x01700330 ; undefined
 cd8:	3430049f 	cbz	wzr, 60d68 <cat+0x68>
 cdc:	34045001 	cbz	w1, 96dc <__bss_size+0x96ca>
 ce0:	01700348 	.inst	0x01700348 ; undefined
 ce4:	0000009f 	udf	#159
 ce8:	20040000 	.inst	0x20040000 ; undefined
 cec:	0451013c 	.inst	0x0451013c ; undefined
 cf0:	51015c3c 	sub	w28, w1, #0x57
	...
 cfc:	70600400 	adr	x0, c0d7f <__bss_end+0x5f7ff>
 d00:	70045001 	adr	x1, 9703 <__bss_size+0x96f1>
 d04:	73030184 	.inst	0x73030184 ; undefined
 d08:	84049f01 	ldnt1sb	{z1.s}, p7/z, [z24.s, x4]
 d0c:	01018801 	.inst	0x01018801 ; undefined
 d10:	01880450 	.inst	0x01880450 ; undefined
 d14:	a304018c 	.inst	0xa304018c ; undefined
 d18:	009f5001 	.inst	0x009f5001 ; undefined
 d1c:	00000002 	udf	#2
 d20:	00000000 	udf	#0
 d24:	60040000 	.inst	0x60040000 ; undefined
 d28:	9f300270 	.inst	0x9f300270 ; undefined
 d2c:	03747004 	.inst	0x03747004 ; undefined
 d30:	049f7f71 	mls	z17.s, p7/m, z27.s, z31.s
 d34:	51017874 	sub	w20, w3, #0x5e
 d38:	01847804 	.inst	0x01847804 ; undefined
 d3c:	84045001 	ld1b	{z1.s}, p4/z, [x0, z4.s, uxtw]
 d40:	02018c01 	.inst	0x02018c01 ; undefined
 d44:	00009f30 	udf	#40752
 d48:	00000000 	udf	#0
 d4c:	01900400 	.inst	0x01900400 ; undefined
 d50:	520101ac 	eor	w12, w13, #0x80000000
 d54:	cc01ac04 	.inst	0xcc01ac04 ; undefined
 d58:	01a30401 	.inst	0x01a30401 ; undefined
 d5c:	cc049f52 	.inst	0xcc049f52 ; undefined
 d60:	0101d801 	.inst	0x0101d801 ; undefined
 d64:	00000052 	udf	#82
 d68:	90040000 	adrp	x0, 8000000 <__bss_end+0x7f9ea80>
 d6c:	01019c01 	.inst	0x01019c01 ; undefined
 d70:	019c0453 	.inst	0x019c0453 ; undefined
 d74:	a30401d8 	.inst	0xa30401d8 ; undefined
 d78:	009f5301 	.inst	0x009f5301 ; undefined
 d7c:	00010100 	.inst	0x00010100 ; undefined
 d80:	98040000 	ldrsw	x0, 8d80 <__bss_size+0x8d6e>
 d84:	0101b801 	.inst	0x0101b801 ; undefined
 d88:	01b80452 	.inst	0x01b80452 ; undefined
 d8c:	720301bc 	ands	w28, w13, #0x20000000
 d90:	cc049f01 	.inst	0xcc049f01 ; undefined
 d94:	0101d401 	.inst	0x0101d401 ; undefined
 d98:	00000052 	udf	#82
 d9c:	00010000 	.inst	0x00010000 ; undefined
 da0:	f0040000 	adrp	x0, 8003000 <__bss_end+0x7fa1a80>
 da4:	0102f802 	.inst	0x0102f802 ; undefined
 da8:	02f80450 	.inst	0x02f80450 ; undefined
 dac:	550103ac 	.inst	0x550103ac ; undefined
 db0:	eb03b404 	subs	x4, x0, x3, lsl #45
 db4:	04550103 	.inst	0x04550103 ; undefined
 db8:	03f403ec 	.inst	0x03f403ec ; undefined
 dbc:	00005501 	udf	#21761
 dc0:	04000000 	add	z0.b, p0/m, z0.b, z0.b
 dc4:	038402f0 	.inst	0x038402f0 ; undefined
 dc8:	84045101 	ld1b	{z1.s}, p4/z, [x8, z4.s, uxtw]
 dcc:	0103f403 	.inst	0x0103f403 ; undefined
 dd0:	00000050 	udf	#80
 dd4:	00000000 	udf	#0
 dd8:	eb02f004 	subs	x4, x0, x2, lsl #60
 ddc:	04520103 	smulh	z3.h, p0/m, z3.h, z8.h
 de0:	03ec03eb 	.inst	0x03ec03eb ; undefined
 de4:	5201a304 	eor	w4, w24, #0x80ff80ff
 de8:	03ec049f 	.inst	0x03ec049f ; undefined
 dec:	520103f4 	eor	w20, wzr, #0x80000000
 df0:	00000200 	udf	#512
 df4:	00000000 	udf	#0
 df8:	01010000 	.inst	0x01010000 ; undefined
 dfc:	04000000 	add	z0.b, p0/m, z0.b, z0.b
 e00:	038c02f0 	.inst	0x038c02f0 ; undefined
 e04:	049f3002 	.inst	0x049f3002 ; undefined
 e08:	0398038c 	.inst	0x0398038c ; undefined
 e0c:	9f7f7703 	.inst	0x9f7f7703 ; undefined
 e10:	b8039804 	sttr	w4, [x0, #57]
 e14:	04570103 	.inst	0x04570103 ; undefined
 e18:	03d003b8 	.inst	0x03d003b8 ; undefined
 e1c:	d0045601 	adrp	x1, 8ac2000 <__bss_end+0x8a60a80>
 e20:	0103d003 	.inst	0x0103d003 ; undefined
 e24:	03d00453 	.inst	0x03d00453 ; undefined
 e28:	730303d8 	.inst	0x730303d8 ; undefined
 e2c:	ec049f01 	.inst	0xec049f01 ; undefined
 e30:	0203f403 	.inst	0x0203f403 ; undefined
 e34:	Address 0x0000000000000e34 is out of bounds.


Disassembly of section .debug_rnglists:

0000000000000000 <.debug_rnglists>:
   0:	00000039 	udf	#57
   4:	00080005 	.inst	0x00080005 ; undefined
   8:	00000000 	udf	#0
   c:	06011405 	.inst	0x06011405 ; undefined
  10:	00000000 	udf	#0
  14:	04000400 	add	z0.b, p1/m, z0.b, z0.b
  18:	04100c04 	mul	z4.b, p3/m, z4.b, z0.b
  1c:	28042018 	stnp	w24, w8, [x0, #32]
  20:	98540438 	ldrsw	x24, a80a4 <__bss_end+0x46b24>
  24:	50070002 	adr	x2, e026 <__bss_size+0xe014>
  28:	00000600 	udf	#1536
  2c:	b0000000 	adrp	x0, 1000 <__bss_size+0xfee>
  30:	01000701 	.inst	0x01000701 ; undefined
  34:	00000006 	udf	#6
  38:	02b00000 	.inst	0x02b00000 ; undefined
  3c:	00003200 	udf	#12800
  40:	08000500 	stxrb	w0, w0, [x8]
  44:	00000000 	udf	#0
  48:	01940400 	.inst	0x01940400 ; undefined
  4c:	9c040198 	ldr	q24, 807c <__bss_size+0x806a>
  50:	0401a001 	.inst	0x0401a001 ; undefined
  54:	01a801a4 	.inst	0x01a801a4 ; undefined
  58:	f801b004 	stur	x4, [x0, #27]
  5c:	a4040001 	ld1rqb	{z1.b}, p0/z, [x0, x4]
  60:	0402a802 	.inst	0x0402a802 ; undefined
  64:	02b002ac 	.inst	0x02b002ac ; undefined
  68:	b802b404 	str	w4, [x0], #43
  6c:	02c40402 	.inst	0x02c40402 ; undefined
  70:	36000390 	tbz	w16, #0, e0 <__bss_size+0xce>
  74:	05000000 	orr	z0.s, z0.s, #0x1
  78:	00000800 	udf	#2048
  7c:	04000000 	add	z0.b, p0/m, z0.b, z0.b
  80:	18041410 	ldr	w16, 8300 <__bss_size+0x82ee>
  84:	2420041c 	cmphi	p12.b, p1/z, z0.b, #0
  88:	00302804 	.inst	0x00302804 ; NYI
  8c:	04181404 	orr	z4.b, p5/m, z4.b, z0.b
  90:	3004201c 	adr	x28, 8491 <__bss_size+0x847f>
  94:	38340430 	.inst	0x38340430 ; undefined
  98:	44400400 	.inst	0x44400400 ; undefined
  9c:	044c4804 	mla	z4.h, p2/m, z0.h, z12.h
  a0:	04005850 	mla	z16.b, p6/m, z2.b, z0.b
  a4:	4c044844 	.inst	0x4c044844 ; undefined
  a8:	5c580450 	ldr	d16, b0130 <__bss_end+0x4ebb0>
  ac:	00002800 	udf	#10240
  b0:	08000500 	stxrb	w0, w0, [x8]
  b4:	00000000 	udf	#0
  b8:	02e80400 	.inst	0x02e80400 ; undefined
  bc:	ac040380 	stnp	q0, q0, [x28, #128]
  c0:	0003c003 	.inst	0x0003c003 ; undefined
  c4:	e003d804 	ld1b	{za0v.b[w14, 4]}, p6/z, [x0, x3]
  c8:	03ec0403 	.inst	0x03ec0403 ; undefined
  cc:	8c0403f8 	.inst	0x8c0403f8 ; undefined
  d0:	04049c04 	.inst	0x04049c04 ; undefined
  d4:	04a404a0 	sub	z0.s, z5.s, z4.s
  d8:	00017900 	.inst	0x00017900 ; undefined
  dc:	08000500 	stxrb	w0, w0, [x8]
  e0:	00000000 	udf	#0
  e4:	01980400 	.inst	0x01980400 ; undefined
  e8:	cc0401c8 	.inst	0xcc0401c8 ; undefined
  ec:	0001d801 	.inst	0x0001d801 ; undefined
  f0:	e401e004 	st1b	{z4.b}, p0, [x0, #1, mul vl]
  f4:	01e80401 	.inst	0x01e80401 ; undefined
  f8:	e0040288 	ld1b	{za0h.b[w12, 8]}, p0/z, [x20, x4]
  fc:	0002e402 	.inst	0x0002e402 ; undefined
 100:	f803f804 	sttr	x4, [x0, #63]
 104:	04840403 	.inst	0x04840403 ; undefined
 108:	e80404d8 	.inst	0xe80404d8 ; undefined
 10c:	0006f006 	.inst	0x0006f006 ; undefined
 110:	fc04d804 	.inst	0xfc04d804 ; undefined
 114:	06c40404 	.inst	0x06c40404 ; undefined
 118:	cc0406c8 	.inst	0xcc0406c8 ; undefined
 11c:	0006d006 	.inst	0x0006d006 ; undefined
 120:	b8059804 	sttr	w4, [x0, #89]
 124:	05c00405 	dupm	z5.h, #0x1
 128:	040005c0 	add	z0.b, p1/m, z0.b, z14.b
 12c:	06bc05cc 	.inst	0x06bc05cc ; undefined
 130:	c406c004 	ldnt1b	{z4.d}, p0/z, [z0.d, x6]
 134:	06e00406 	.inst	0x06e00406 ; undefined
 138:	040006e8 	add	z8.b, p1/m, z8.b, z23.b
 13c:	078406fc 	.inst	0x078406fc ; undefined
 140:	d80ac804 	prfm	pldl3keep, 15a40 <__bss_size+0x15a2e>
 144:	8804000a 	stxr	w4, w10, [x0]
 148:	04078c07 	.inst	0x04078c07 ; undefined
 14c:	07940790 	.inst	0x07940790 ; undefined
 150:	ec09e804 	.inst	0xec09e804 ; undefined
 154:	09f80409 	.inst	0x09f80409 ; undefined
 158:	c0040a90 	.inst	0xc0040a90 ; undefined
 15c:	040ac00a 	mad	z10.b, p0/m, z10.b, z0.b
 160:	0cb00cac 	.inst	0x0cb00cac ; undefined
 164:	07a80400 	.inst	0x07a80400 ; undefined
 168:	bc0407b0 	str	s16, [x29], #64
 16c:	0008e807 	.inst	0x0008e807 ; undefined
 170:	a809a404 	stnp	x4, x9, [x0, #152]
 174:	09ac0409 	.inst	0x09ac0409 ; undefined
 178:	ec0409e8 	.inst	0xec0409e8 ; undefined
 17c:	0409f809 	msb	z9.b, p6/m, z9.b, z0.b
 180:	0a9c0a94 	and	w20, w20, w28, asr #2
 184:	900c8c04 	adrp	x4, 19180000 <__bss_end+0x1911ea80>
 188:	9c04000c 	ldr	q12, 8188 <__bss_size+0x8176>
 18c:	040ab40a 	.inst	0x040ab40a ; undefined
 190:	0ae00ad8 	bic	w24, w22, w0, ror #2
 194:	ec0aec04 	.inst	0xec0aec04 ; undefined
 198:	fc04000a 	stur	d10, [x0, #64]
 19c:	040bf00a 	msb	z10.b, p4/m, z11.b, z0.b
 1a0:	0ce00cb8 	.inst	0x0ce00cb8 ; undefined
 1a4:	0b840400 	add	w0, w0, w4, asr #1
 1a8:	b8040be4 	sttr	w4, [sp, #64]
 1ac:	040ccc0c 	mad	z12.b, p3/m, z12.b, z0.b
 1b0:	0cd40cd0 	.inst	0x0cd40cd0 ; undefined
 1b4:	0bb00400 	.inst	0x0bb00400 ; undefined
 1b8:	b4040bb0 	cbz	x16, 832c <__bss_size+0x831a>
 1bc:	040be40b 	msb	z11.b, p1/m, z11.b, z0.b
 1c0:	0cc80cb8 	.inst	0x0cc80cb8 ; undefined
 1c4:	0ce00400 	.inst	0x0ce00400 ; undefined
 1c8:	88040d84 	stxr	w4, w4, [x12]
 1cc:	000d8c0d 	.inst	0x000d8c0d ; undefined
 1d0:	900d9004 	adrp	x4, 1b200000 <__bss_end+0x1b19ea80>
 1d4:	0d9c040d 	st1	{v13.b}[1], [x0], x28
 1d8:	e0040dc4 	ld1b	{za0h.b[w12, 4]}, p3/z, [x14, x4]
 1dc:	0012e012 	.inst	0x0012e012 ; undefined
 1e0:	8c0dd004 	.inst	0x8c0dd004 ; undefined
 1e4:	0e94040e 	.inst	0x0e94040e ; undefined
 1e8:	ec040e98 	.inst	0xec040e98 ; undefined
 1ec:	0012f012 	.inst	0x0012f012 ; undefined
 1f0:	940e8c04 	bl	3a3200 <__bss_end+0x341c80>
 1f4:	109c040e 	adr	x14, fffffffffff38274 <__bss_end+0xffffffffffed6cf4>
 1f8:	a40410a0 	ld1rqb	{z0.b}, p4/z, [x5, x4]
 1fc:	0410dc10 	mad	z16.b, p7/m, z16.b, z0.b
 200:	11881180 	.inst	0x11881180 ; undefined
 204:	90128c04 	adrp	x4, 25180000 <__bss_end+0x2511ea80>
 208:	a0040012 	.inst	0xa0040012 ; undefined
 20c:	040ea80e 	.inst	0x040ea80e ; undefined
 210:	0fe00eb4 	.inst	0x0fe00eb4 ; undefined
 214:	10dc0400 	adr	x0, fffffffffffb8294 <__bss_end+0xfffffffffff56d14>
 218:	880410f4 	stxr	w4, w20, [x7]
 21c:	00119011 	.inst	0x00119011 ; undefined
 220:	80119004 	.inst	0x80119004 ; undefined
 224:	12bc0412 	mov	w18, #0x1fdfffff            	// #534773759
 228:	040012e0 	add	z0.b, p4/m, z0.b, z23.b
 22c:	11f41198 	.inst	0x11f41198 ; undefined
 230:	cc12bc04 	.inst	0xcc12bc04 ; undefined
 234:	12d00412 	.inst	0x12d00412 ; undefined
 238:	040012d4 	add	z20.b, p4/m, z20.b, z22.b
 23c:	11c011c0 	.inst	0x11c011c0 ; undefined
 240:	f411c404 	.inst	0xf411c404 ; undefined
 244:	12bc0411 	mov	w17, #0x1fdfffff            	// #534773759
 248:	040012c8 	add	z8.b, p4/m, z8.b, z22.b
 24c:	13a01380 	.inst	0x13a01380 ; undefined
 250:	c413a004 	.inst	0xc413a004 ; undefined
 254:	Address 0x0000000000000254 is out of bounds.

