
build/bootloader.elf:     file format elf64-littleaarch64


Disassembly of section .text:

0000000000060000 <_start>:
   60000:	d53800a1 	mrs	x1, mpidr_el1
   60004:	92400421 	and	x1, x1, #0x3
   60008:	b4000061 	cbz	x1, 60014 <_start+0x14>
   6000c:	d503205f 	wfe
   60010:	17ffffff 	b	6000c <_start+0xc>
   60014:	58000161 	ldr	x1, 60040 <_start+0x40>
   60018:	9100003f 	mov	sp, x1
   6001c:	58000161 	ldr	x1, 60048 <_start+0x48>
   60020:	180000e2 	ldr	w2, 6003c <_start+0x3c>
   60024:	34000082 	cbz	w2, 60034 <_start+0x34>
   60028:	f800843f 	str	xzr, [x1], #8
   6002c:	51000442 	sub	w2, w2, #0x1
   60030:	35ffffa2 	cbnz	w2, 60024 <_start+0x24>
   60034:	94000033 	bl	60100 <main>
   60038:	17fffff5 	b	6000c <_start+0xc>
   6003c:	00000012 	udf	#18
   60040:	00060000 	.inst	0x00060000 ; undefined
   60044:	00000000 	udf	#0
   60048:	000614f0 	.inst	0x000614f0 ; undefined
   6004c:	00000000 	udf	#0

0000000000060050 <loadimg>:
   60050:	a9bc7bfd 	stp	x29, x30, [sp, #-64]!
   60054:	b0000000 	adrp	x0, 61000 <shell+0x20>
   60058:	91018000 	add	x0, x0, #0x60
   6005c:	910003fd 	mov	x29, sp
   60060:	a90153f3 	stp	x19, x20, [sp, #16]
   60064:	52800013 	mov	w19, #0x0                   	// #0
   60068:	f90013f5 	str	x21, [sp, #32]
   6006c:	94000149 	bl	60590 <uart_puts>
   60070:	14000005 	b	60084 <loadimg+0x34>
   60074:	3940fff3 	ldrb	w19, [sp, #63]
   60078:	12001e73 	and	w19, w19, #0xff
   6007c:	5100c273 	sub	w19, w19, #0x30
   60080:	0b010673 	add	w19, w19, w1, lsl #1
   60084:	94000134 	bl	60554 <uart_getc>
   60088:	3900ffe0 	strb	w0, [sp, #63]
   6008c:	0b130a61 	add	w1, w19, w19, lsl #2
   60090:	3940ffe0 	ldrb	w0, [sp, #63]
   60094:	72001c1f 	tst	w0, #0xff
   60098:	54fffee1 	b.ne	60074 <loadimg+0x24>  // b.any
   6009c:	11420275 	add	w21, w19, #0x80, lsl #12
   600a0:	d2a00114 	mov	x20, #0x80000               	// #524288
   600a4:	7100027f 	cmp	w19, #0x0
   600a8:	5400012d 	b.le	600cc <loadimg+0x7c>
   600ac:	d503201f 	nop
   600b0:	94000129 	bl	60554 <uart_getc>
   600b4:	3900ffe0 	strb	w0, [sp, #63]
   600b8:	3940ffe0 	ldrb	w0, [sp, #63]
   600bc:	12001c00 	and	w0, w0, #0xff
   600c0:	38001680 	strb	w0, [x20], #1
   600c4:	eb15029f 	cmp	x20, x21
   600c8:	54ffff41 	b.ne	600b0 <loadimg+0x60>  // b.any
   600cc:	5284e200 	mov	w0, #0x2710                	// #10000
   600d0:	d503201f 	nop
   600d4:	71000400 	subs	w0, w0, #0x1
   600d8:	54ffffc1 	b.ne	600d0 <loadimg+0x80>  // b.any
   600dc:	b0000000 	adrp	x0, 61000 <shell+0x20>
   600e0:	9101c000 	add	x0, x0, #0x70
   600e4:	9400012b 	bl	60590 <uart_puts>
   600e8:	a94153f3 	ldp	x19, x20, [sp, #16]
   600ec:	d2a00100 	mov	x0, #0x80000               	// #524288
   600f0:	f94013f5 	ldr	x21, [sp, #32]
   600f4:	aa0003f0 	mov	x16, x0
   600f8:	a8c47bfd 	ldp	x29, x30, [sp], #64
   600fc:	d61f0200 	br	x16

0000000000060100 <main>:
   60100:	a9b87bfd 	stp	x29, x30, [sp, #-128]!
   60104:	910003fd 	mov	x29, sp
   60108:	a90153f3 	stp	x19, x20, [sp, #16]
   6010c:	b0000014 	adrp	x20, 61000 <shell+0x20>
   60110:	9101a3f3 	add	x19, sp, #0x68
   60114:	910a0294 	add	x20, x20, #0x280
   60118:	a9025bf5 	stp	x21, x22, [sp, #32]
   6011c:	b0000015 	adrp	x21, 61000 <shell+0x20>
   60120:	9109e2b5 	add	x21, x21, #0x278
   60124:	a9046bf9 	stp	x25, x26, [sp, #64]
   60128:	b0000019 	adrp	x25, 61000 <shell+0x20>
   6012c:	5290d41a 	mov	w26, #0x86a0                	// #34464
   60130:	910ba339 	add	x25, x25, #0x2e8
   60134:	a90573fb 	stp	x27, x28, [sp, #80]
   60138:	b000001b 	adrp	x27, 61000 <shell+0x20>
   6013c:	910c637b 	add	x27, x27, #0x318
   60140:	b0000016 	adrp	x22, 61000 <shell+0x20>
   60144:	b000001c 	adrp	x28, 61000 <shell+0x20>
   60148:	72a0003a 	movk	w26, #0x1, lsl #16
   6014c:	a90363f7 	stp	x23, x24, [sp, #48]
   60150:	b0000018 	adrp	x24, 61000 <shell+0x20>
   60154:	b0000017 	adrp	x23, 61000 <shell+0x20>
   60158:	940000b6 	bl	60430 <uart_init>
   6015c:	b0000000 	adrp	x0, 61000 <shell+0x20>
   60160:	91022000 	add	x0, x0, #0x88
   60164:	9400010b 	bl	60590 <uart_puts>
   60168:	aa1503e0 	mov	x0, x21
   6016c:	94000109 	bl	60590 <uart_puts>
   60170:	aa1303e0 	mov	x0, x19
   60174:	9400039b 	bl	60fe0 <shell>
   60178:	aa1403e1 	mov	x1, x20
   6017c:	aa1303e0 	mov	x0, x19
   60180:	94000144 	bl	60690 <strcmp>
   60184:	2a0003e1 	mov	w1, w0
   60188:	910a22c0 	add	x0, x22, #0x288
   6018c:	350000e1 	cbnz	w1, 601a8 <main+0xa8>
   60190:	94000100 	bl	60590 <uart_puts>
   60194:	910ac300 	add	x0, x24, #0x2b0
   60198:	940000fe 	bl	60590 <uart_puts>
   6019c:	910b42e0 	add	x0, x23, #0x2d0
   601a0:	940000fc 	bl	60590 <uart_puts>
   601a4:	17fffff1 	b	60168 <main+0x68>
   601a8:	aa1903e1 	mov	x1, x25
   601ac:	aa1303e0 	mov	x0, x19
   601b0:	94000138 	bl	60690 <strcmp>
   601b4:	2a0003e1 	mov	w1, w0
   601b8:	2a1a03e0 	mov	w0, w26
   601bc:	350001a1 	cbnz	w1, 601f0 <main+0xf0>
   601c0:	94000088 	bl	603e0 <reset>
   601c4:	910bc380 	add	x0, x28, #0x2f0
   601c8:	940000f2 	bl	60590 <uart_puts>
   601cc:	aa1303e0 	mov	x0, x19
   601d0:	94000384 	bl	60fe0 <shell>
   601d4:	b0000000 	adrp	x0, 61000 <shell+0x20>
   601d8:	910c4001 	add	x1, x0, #0x310
   601dc:	aa1303e0 	mov	x0, x19
   601e0:	9400012c 	bl	60690 <strcmp>
   601e4:	35fffc20 	cbnz	w0, 60168 <main+0x68>
   601e8:	9400008a 	bl	60410 <cancel_reset>
   601ec:	17ffffdf 	b	60168 <main+0x68>
   601f0:	aa1b03e1 	mov	x1, x27
   601f4:	aa1303e0 	mov	x0, x19
   601f8:	94000126 	bl	60690 <strcmp>
   601fc:	2a0003e1 	mov	w1, w0
   60200:	b0000000 	adrp	x0, 61000 <shell+0x20>
   60204:	910c8000 	add	x0, x0, #0x320
   60208:	35000061 	cbnz	w1, 60214 <main+0x114>
   6020c:	97ffff91 	bl	60050 <loadimg>
   60210:	17ffffd6 	b	60168 <main+0x68>
   60214:	940000df 	bl	60590 <uart_puts>
   60218:	aa1303e0 	mov	x0, x19
   6021c:	940000dd 	bl	60590 <uart_puts>
   60220:	b0000000 	adrp	x0, 61000 <shell+0x20>
   60224:	910ca000 	add	x0, x0, #0x328
   60228:	940000da 	bl	60590 <uart_puts>
   6022c:	17ffffcf 	b	60168 <main+0x68>

0000000000060230 <mailbox_call>:
   60230:	b0000004 	adrp	x4, 61000 <shell+0x20>
   60234:	9113c082 	add	x2, x4, #0x4f0
   60238:	d2971301 	mov	x1, #0xb898                	// #47256
   6023c:	321d0042 	orr	w2, w2, #0x8
   60240:	f2a7e001 	movk	x1, #0x3f00, lsl #16
   60244:	d503201f 	nop
   60248:	d503201f 	nop
   6024c:	b9400020 	ldr	w0, [x1]
   60250:	37ffffc0 	tbnz	w0, #31, 60248 <mailbox_call+0x18>
   60254:	d2971400 	mov	x0, #0xb8a0                	// #47264
   60258:	d2971301 	mov	x1, #0xb898                	// #47256
   6025c:	f2a7e000 	movk	x0, #0x3f00, lsl #16
   60260:	d2971003 	mov	x3, #0xb880                	// #47232
   60264:	f2a7e001 	movk	x1, #0x3f00, lsl #16
   60268:	f2a7e003 	movk	x3, #0x3f00, lsl #16
   6026c:	b9000002 	str	w2, [x0]
   60270:	d503201f 	nop
   60274:	b9400020 	ldr	w0, [x1]
   60278:	37f7ffc0 	tbnz	w0, #30, 60270 <mailbox_call+0x40>
   6027c:	b9400060 	ldr	w0, [x3]
   60280:	6b02001f 	cmp	w0, w2
   60284:	54ffff61 	b.ne	60270 <mailbox_call+0x40>  // b.any
   60288:	9113c084 	add	x4, x4, #0x4f0
   6028c:	52b00000 	mov	w0, #0x80000000            	// #-2147483648
   60290:	b9400481 	ldr	w1, [x4, #4]
   60294:	6b00003f 	cmp	w1, w0
   60298:	1a9f17e0 	cset	w0, eq  // eq = none
   6029c:	d65f03c0 	ret

00000000000602a0 <get_board_revision>:
   602a0:	b0000004 	adrp	x4, 61000 <shell+0x20>
   602a4:	9113c080 	add	x0, x4, #0x4f0
   602a8:	52800382 	mov	w2, #0x1c                  	// #28
   602ac:	52800041 	mov	w1, #0x2                   	// #2
   602b0:	b904f082 	str	w2, [x4, #1264]
   602b4:	72a00021 	movk	w1, #0x1, lsl #16
   602b8:	b900041f 	str	wzr, [x0, #4]
   602bc:	52800083 	mov	w3, #0x4                   	// #4
   602c0:	b9000801 	str	w1, [x0, #8]
   602c4:	321d0002 	orr	w2, w0, #0x8
   602c8:	b9000c03 	str	w3, [x0, #12]
   602cc:	d2971301 	mov	x1, #0xb898                	// #47256
   602d0:	b900101f 	str	wzr, [x0, #16]
   602d4:	f2a7e001 	movk	x1, #0x3f00, lsl #16
   602d8:	b900141f 	str	wzr, [x0, #20]
   602dc:	b900181f 	str	wzr, [x0, #24]
   602e0:	d503201f 	nop
   602e4:	b9400020 	ldr	w0, [x1]
   602e8:	37ffffc0 	tbnz	w0, #31, 602e0 <get_board_revision+0x40>
   602ec:	d2971400 	mov	x0, #0xb8a0                	// #47264
   602f0:	d2971301 	mov	x1, #0xb898                	// #47256
   602f4:	f2a7e000 	movk	x0, #0x3f00, lsl #16
   602f8:	d2971003 	mov	x3, #0xb880                	// #47232
   602fc:	f2a7e001 	movk	x1, #0x3f00, lsl #16
   60300:	f2a7e003 	movk	x3, #0x3f00, lsl #16
   60304:	b9000002 	str	w2, [x0]
   60308:	d503201f 	nop
   6030c:	b9400020 	ldr	w0, [x1]
   60310:	37f7ffc0 	tbnz	w0, #30, 60308 <get_board_revision+0x68>
   60314:	b9400060 	ldr	w0, [x3]
   60318:	6b00005f 	cmp	w2, w0
   6031c:	54ffff61 	b.ne	60308 <get_board_revision+0x68>  // b.any
   60320:	9113c084 	add	x4, x4, #0x4f0
   60324:	b9400480 	ldr	w0, [x4, #4]
   60328:	d65f03c0 	ret
   6032c:	d503201f 	nop

0000000000060330 <get_arm_mem>:
   60330:	b0000004 	adrp	x4, 61000 <shell+0x20>
   60334:	9113c080 	add	x0, x4, #0x4f0
   60338:	52800402 	mov	w2, #0x20                  	// #32
   6033c:	528000a1 	mov	w1, #0x5                   	// #5
   60340:	b904f082 	str	w2, [x4, #1264]
   60344:	72a00021 	movk	w1, #0x1, lsl #16
   60348:	b900041f 	str	wzr, [x0, #4]
   6034c:	52800103 	mov	w3, #0x8                   	// #8
   60350:	b9000801 	str	w1, [x0, #8]
   60354:	2a030002 	orr	w2, w0, w3
   60358:	b9000c03 	str	w3, [x0, #12]
   6035c:	d2971301 	mov	x1, #0xb898                	// #47256
   60360:	b900101f 	str	wzr, [x0, #16]
   60364:	f2a7e001 	movk	x1, #0x3f00, lsl #16
   60368:	b900141f 	str	wzr, [x0, #20]
   6036c:	b900181f 	str	wzr, [x0, #24]
   60370:	b9001c1f 	str	wzr, [x0, #28]
   60374:	d503201f 	nop
   60378:	d503201f 	nop
   6037c:	b9400020 	ldr	w0, [x1]
   60380:	37ffffc0 	tbnz	w0, #31, 60378 <get_arm_mem+0x48>
   60384:	d2971400 	mov	x0, #0xb8a0                	// #47264
   60388:	d2971301 	mov	x1, #0xb898                	// #47256
   6038c:	f2a7e000 	movk	x0, #0x3f00, lsl #16
   60390:	d2971003 	mov	x3, #0xb880                	// #47232
   60394:	f2a7e001 	movk	x1, #0x3f00, lsl #16
   60398:	f2a7e003 	movk	x3, #0x3f00, lsl #16
   6039c:	b9000002 	str	w2, [x0]
   603a0:	d503201f 	nop
   603a4:	b9400020 	ldr	w0, [x1]
   603a8:	37f7ffc0 	tbnz	w0, #30, 603a0 <get_arm_mem+0x70>
   603ac:	b9400060 	ldr	w0, [x3]
   603b0:	6b00005f 	cmp	w2, w0
   603b4:	54ffff61 	b.ne	603a0 <get_arm_mem+0x70>  // b.any
   603b8:	9113c084 	add	x4, x4, #0x4f0
   603bc:	b9400480 	ldr	w0, [x4, #4]
   603c0:	d65f03c0 	ret
	...

00000000000603d0 <set>:
   603d0:	2a0003e0 	mov	w0, w0
   603d4:	b9000001 	str	w1, [x0]
   603d8:	d65f03c0 	ret
   603dc:	d503201f 	nop

00000000000603e0 <reset>:
   603e0:	d2800382 	mov	x2, #0x1c                  	// #28
   603e4:	d2800481 	mov	x1, #0x24                  	// #36
   603e8:	f2a7e202 	movk	x2, #0x3f10, lsl #16
   603ec:	f2a7e201 	movk	x1, #0x3f10, lsl #16
   603f0:	52800403 	mov	w3, #0x20                  	// #32
   603f4:	52ab4004 	mov	w4, #0x5a000000            	// #1509949440
   603f8:	72ab4003 	movk	w3, #0x5a00, lsl #16
   603fc:	b9000043 	str	w3, [x2]
   60400:	2a040000 	orr	w0, w0, w4
   60404:	b9000020 	str	w0, [x1]
   60408:	d65f03c0 	ret
   6040c:	d503201f 	nop

0000000000060410 <cancel_reset>:
   60410:	d2800382 	mov	x2, #0x1c                  	// #28
   60414:	d2800481 	mov	x1, #0x24                  	// #36
   60418:	f2a7e202 	movk	x2, #0x3f10, lsl #16
   6041c:	f2a7e201 	movk	x1, #0x3f10, lsl #16
   60420:	52ab4000 	mov	w0, #0x5a000000            	// #1509949440
   60424:	b9000040 	str	w0, [x2]
   60428:	b9000020 	str	w0, [x1]
   6042c:	d65f03c0 	ret

0000000000060430 <uart_init>:
   60430:	d2801281 	mov	x1, #0x94                  	// #148
   60434:	528012c0 	mov	w0, #0x96                  	// #150
   60438:	f2a7e401 	movk	x1, #0x3f20, lsl #16
   6043c:	b900003f 	str	wzr, [x1]
   60440:	d503201f 	nop
   60444:	71000400 	subs	w0, w0, #0x1
   60448:	54ffffc1 	b.ne	60440 <uart_init+0x10>  // b.any
   6044c:	d2801301 	mov	x1, #0x98                  	// #152
   60450:	52980002 	mov	w2, #0xc000                	// #49152
   60454:	f2a7e401 	movk	x1, #0x3f20, lsl #16
   60458:	528012c0 	mov	w0, #0x96                  	// #150
   6045c:	b9000022 	str	w2, [x1]
   60460:	d503201f 	nop
   60464:	71000400 	subs	w0, w0, #0x1
   60468:	54ffffc1 	b.ne	60460 <uart_init+0x30>  // b.any
   6046c:	d2801300 	mov	x0, #0x98                  	// #152
   60470:	d28a0081 	mov	x1, #0x5004                	// #20484
   60474:	f2a7e400 	movk	x0, #0x3f20, lsl #16
   60478:	f2a7e421 	movk	x1, #0x3f21, lsl #16
   6047c:	d28a0c03 	mov	x3, #0x5060                	// #20576
   60480:	d28a0982 	mov	x2, #0x504c                	// #20556
   60484:	b900001f 	str	wzr, [x0]
   60488:	f2a7e423 	movk	x3, #0x3f21, lsl #16
   6048c:	f2a7e422 	movk	x2, #0x3f21, lsl #16
   60490:	d28a0a05 	mov	x5, #0x5050                	// #20560
   60494:	b9400020 	ldr	w0, [x1]
   60498:	f2a7e425 	movk	x5, #0x3f21, lsl #16
   6049c:	d28a0889 	mov	x9, #0x5044                	// #20548
   604a0:	52800064 	mov	w4, #0x3                   	// #3
   604a4:	32000000 	orr	w0, w0, #0x1
   604a8:	b9000020 	str	w0, [x1]
   604ac:	b900007f 	str	wzr, [x3]
   604b0:	f2a7e429 	movk	x9, #0x3f21, lsl #16
   604b4:	d28a0907 	mov	x7, #0x5048                	// #20552
   604b8:	b9000044 	str	w4, [x2]
   604bc:	f2a7e427 	movk	x7, #0x3f21, lsl #16
   604c0:	d28a0d06 	mov	x6, #0x5068                	// #20584
   604c4:	b90000bf 	str	wzr, [x5]
   604c8:	f2a7e426 	movk	x6, #0x3f21, lsl #16
   604cc:	b900013f 	str	wzr, [x9]
   604d0:	528000c8 	mov	w8, #0x6                   	// #6
   604d4:	b90000e8 	str	w8, [x7]
   604d8:	528021c0 	mov	w0, #0x10e                 	// #270
   604dc:	d2800082 	mov	x2, #0x4                   	// #4
   604e0:	b90000c0 	str	w0, [x6]
   604e4:	f2a7e402 	movk	x2, #0x3f20, lsl #16
   604e8:	b9000064 	str	w4, [x3]
   604ec:	91014021 	add	x1, x1, #0x50
   604f0:	52840005 	mov	w5, #0x2000                	// #8192
   604f4:	b9400040 	ldr	w0, [x2]
   604f8:	72a00025 	movk	w5, #0x1, lsl #16
   604fc:	120e6400 	and	w0, w0, #0xfffc0fff
   60500:	2a050000 	orr	w0, w0, w5
   60504:	b9000040 	str	w0, [x2]
   60508:	b9400020 	ldr	w0, [x1]
   6050c:	360000c0 	tbz	w0, #0, 60524 <uart_init+0xf4>
   60510:	d28a0802 	mov	x2, #0x5040                	// #20544
   60514:	f2a7e422 	movk	x2, #0x3f21, lsl #16
   60518:	b9400040 	ldr	w0, [x2]
   6051c:	b9400020 	ldr	w0, [x1]
   60520:	3707ffc0 	tbnz	w0, #0, 60518 <uart_init+0xe8>
   60524:	d65f03c0 	ret
   60528:	d503201f 	nop
   6052c:	d503201f 	nop

0000000000060530 <uart_send>:
   60530:	d28a0a82 	mov	x2, #0x5054                	// #20564
   60534:	f2a7e422 	movk	x2, #0x3f21, lsl #16
   60538:	d503201f 	nop
   6053c:	b9400041 	ldr	w1, [x2]
   60540:	362fffc1 	tbz	w1, #5, 60538 <uart_send+0x8>
   60544:	d28a0801 	mov	x1, #0x5040                	// #20544
   60548:	f2a7e421 	movk	x1, #0x3f21, lsl #16
   6054c:	b9000020 	str	w0, [x1]
   60550:	d65f03c0 	ret

0000000000060554 <uart_getc>:
   60554:	d28a0a81 	mov	x1, #0x5054                	// #20564
   60558:	f2a7e421 	movk	x1, #0x3f21, lsl #16
   6055c:	d503201f 	nop
   60560:	d503201f 	nop
   60564:	b9400020 	ldr	w0, [x1]
   60568:	3607ffc0 	tbz	w0, #0, 60560 <uart_getc+0xc>
   6056c:	d28a0800 	mov	x0, #0x5040                	// #20544
   60570:	52800141 	mov	w1, #0xa                   	// #10
   60574:	f2a7e420 	movk	x0, #0x3f21, lsl #16
   60578:	b9400000 	ldr	w0, [x0]
   6057c:	12001c00 	and	w0, w0, #0xff
   60580:	7100341f 	cmp	w0, #0xd
   60584:	1a811000 	csel	w0, w0, w1, ne  // ne = any
   60588:	d65f03c0 	ret
   6058c:	d503201f 	nop

0000000000060590 <uart_puts>:
   60590:	39400001 	ldrb	w1, [x0]
   60594:	34000221 	cbz	w1, 605d8 <uart_puts+0x48>
   60598:	d28a0a82 	mov	x2, #0x5054                	// #20564
   6059c:	d28a0804 	mov	x4, #0x5040                	// #20544
   605a0:	f2a7e422 	movk	x2, #0x3f21, lsl #16
   605a4:	f2a7e424 	movk	x4, #0x3f21, lsl #16
   605a8:	528001a5 	mov	w5, #0xd                   	// #13
   605ac:	d503201f 	nop
   605b0:	7100283f 	cmp	w1, #0xa
   605b4:	54000140 	b.eq	605dc <uart_puts+0x4c>  // b.none
   605b8:	38401403 	ldrb	w3, [x0], #1
   605bc:	d503201f 	nop
   605c0:	d503201f 	nop
   605c4:	b9400041 	ldr	w1, [x2]
   605c8:	362fffc1 	tbz	w1, #5, 605c0 <uart_puts+0x30>
   605cc:	b9000083 	str	w3, [x4]
   605d0:	39400001 	ldrb	w1, [x0]
   605d4:	35fffee1 	cbnz	w1, 605b0 <uart_puts+0x20>
   605d8:	d65f03c0 	ret
   605dc:	d503201f 	nop
   605e0:	b9400041 	ldr	w1, [x2]
   605e4:	362fffc1 	tbz	w1, #5, 605dc <uart_puts+0x4c>
   605e8:	b9000085 	str	w5, [x4]
   605ec:	17fffff3 	b	605b8 <uart_puts+0x28>

00000000000605f0 <uart_hex>:
   605f0:	a9bf7bfd 	stp	x29, x30, [sp, #-16]!
   605f4:	b0000001 	adrp	x1, 61000 <shell+0x20>
   605f8:	2a0003e6 	mov	w6, w0
   605fc:	910003fd 	mov	x29, sp
   60600:	910da020 	add	x0, x1, #0x368
   60604:	97ffffe3 	bl	60590 <uart_puts>
   60608:	d28a0a82 	mov	x2, #0x5054                	// #20564
   6060c:	d28a0800 	mov	x0, #0x5040                	// #20544
   60610:	52800383 	mov	w3, #0x1c                  	// #28
   60614:	52800ae7 	mov	w7, #0x57                  	// #87
   60618:	52800605 	mov	w5, #0x30                  	// #48
   6061c:	f2a7e422 	movk	x2, #0x3f21, lsl #16
   60620:	f2a7e420 	movk	x0, #0x3f21, lsl #16
   60624:	d503201f 	nop
   60628:	1ac324c1 	lsr	w1, w6, w3
   6062c:	12000c21 	and	w1, w1, #0xf
   60630:	7100243f 	cmp	w1, #0x9
   60634:	1a8580e4 	csel	w4, w7, w5, hi  // hi = pmore
   60638:	0b010084 	add	w4, w4, w1
   6063c:	d503201f 	nop
   60640:	d503201f 	nop
   60644:	b9400041 	ldr	w1, [x2]
   60648:	362fffc1 	tbz	w1, #5, 60640 <uart_hex+0x50>
   6064c:	51001063 	sub	w3, w3, #0x4
   60650:	b9000004 	str	w4, [x0]
   60654:	3100107f 	cmn	w3, #0x4
   60658:	54fffe81 	b.ne	60628 <uart_hex+0x38>  // b.any
   6065c:	a8c17bfd 	ldp	x29, x30, [sp], #16
   60660:	d65f03c0 	ret
	...

0000000000060670 <pow>:
   60670:	2a0003e2 	mov	w2, w0
   60674:	52800020 	mov	w0, #0x1                   	// #1
   60678:	7100003f 	cmp	w1, #0x0
   6067c:	5400008d 	b.le	6068c <pow+0x1c>
   60680:	1b027c00 	mul	w0, w0, w2
   60684:	71000421 	subs	w1, w1, #0x1
   60688:	54ffffc1 	b.ne	60680 <pow+0x10>  // b.any
   6068c:	d65f03c0 	ret

0000000000060690 <strcmp>:
   60690:	39400002 	ldrb	w2, [x0]
   60694:	35000082 	cbnz	w2, 606a4 <strcmp+0x14>
   60698:	14000009 	b	606bc <strcmp+0x2c>
   6069c:	38401c02 	ldrb	w2, [x0, #1]!
   606a0:	340000e2 	cbz	w2, 606bc <strcmp+0x2c>
   606a4:	39400023 	ldrb	w3, [x1]
   606a8:	91000421 	add	x1, x1, #0x1
   606ac:	6b02007f 	cmp	w3, w2
   606b0:	54ffff60 	b.eq	6069c <strcmp+0xc>  // b.none
   606b4:	52800020 	mov	w0, #0x1                   	// #1
   606b8:	d65f03c0 	ret
   606bc:	39400020 	ldrb	w0, [x1]
   606c0:	7100001f 	cmp	w0, #0x0
   606c4:	1a9f07e0 	cset	w0, ne  // ne = any
   606c8:	d65f03c0 	ret
   606cc:	d503201f 	nop

00000000000606d0 <strlen>:
   606d0:	39400001 	ldrb	w1, [x0]
   606d4:	34000101 	cbz	w1, 606f4 <strlen+0x24>
   606d8:	d1000403 	sub	x3, x0, #0x1
   606dc:	d2800021 	mov	x1, #0x1                   	// #1
   606e0:	2a0103e0 	mov	w0, w1
   606e4:	91000421 	add	x1, x1, #0x1
   606e8:	38616862 	ldrb	w2, [x3, x1]
   606ec:	35ffffa2 	cbnz	w2, 606e0 <strlen+0x10>
   606f0:	d65f03c0 	ret
   606f4:	52800000 	mov	w0, #0x0                   	// #0
   606f8:	d65f03c0 	ret
   606fc:	d503201f 	nop

0000000000060700 <substr>:
   60700:	6b03005f 	cmp	w2, w3
   60704:	540001ac 	b.gt	60738 <substr+0x38>
   60708:	0b030043 	add	w3, w2, w3
   6070c:	6b03005f 	cmp	w2, w3
   60710:	5400016a 	b.ge	6073c <substr+0x3c>  // b.tcont
   60714:	93407c42 	sxtw	x2, w2
   60718:	cb020025 	sub	x5, x1, x2
   6071c:	d503201f 	nop
   60720:	38626804 	ldrb	w4, [x0, x2]
   60724:	382268a4 	strb	w4, [x5, x2]
   60728:	91000442 	add	x2, x2, #0x1
   6072c:	6b02007f 	cmp	w3, w2
   60730:	54ffff8c 	b.gt	60720 <substr+0x20>
   60734:	3823c83f 	strb	wzr, [x1, w3, sxtw]
   60738:	d65f03c0 	ret
   6073c:	2a0203e3 	mov	w3, w2
   60740:	3823c83f 	strb	wzr, [x1, w3, sxtw]
   60744:	17fffffd 	b	60738 <substr+0x38>
   60748:	d503201f 	nop
   6074c:	d503201f 	nop

0000000000060750 <reverse>:
   60750:	aa0003e2 	mov	x2, x0
   60754:	52800005 	mov	w5, #0x0                   	// #0
   60758:	385ff446 	ldrb	w6, [x2], #-1
   6075c:	340003c6 	cbz	w6, 607d4 <reverse+0x84>
   60760:	d2800021 	mov	x1, #0x1                   	// #1
   60764:	d503201f 	nop
   60768:	2a0103e4 	mov	w4, w1
   6076c:	91000421 	add	x1, x1, #0x1
   60770:	38616843 	ldrb	w3, [x2, x1]
   60774:	35ffffa3 	cbnz	w3, 60768 <reverse+0x18>
   60778:	6b8404bf 	cmp	w5, w4, asr #1
   6077c:	540002ca 	b.ge	607d4 <reverse+0x84>  // b.tcont
   60780:	d2800021 	mov	x1, #0x1                   	// #1
   60784:	d503201f 	nop
   60788:	2a0103e4 	mov	w4, w1
   6078c:	91000421 	add	x1, x1, #0x1
   60790:	38616843 	ldrb	w3, [x2, x1]
   60794:	35ffffa3 	cbnz	w3, 60788 <reverse+0x38>
   60798:	4b050084 	sub	w4, w4, w5
   6079c:	d2800021 	mov	x1, #0x1                   	// #1
   607a0:	8b24c004 	add	x4, x0, w4, sxtw
   607a4:	385ff087 	ldurb	w7, [x4, #-1]
   607a8:	2a0103e4 	mov	w4, w1
   607ac:	91000421 	add	x1, x1, #0x1
   607b0:	38616843 	ldrb	w3, [x2, x1]
   607b4:	35ffffa3 	cbnz	w3, 607a8 <reverse+0x58>
   607b8:	4b050084 	sub	w4, w4, w5
   607bc:	110004a5 	add	w5, w5, #0x1
   607c0:	8b24c004 	add	x4, x0, w4, sxtw
   607c4:	381ff086 	sturb	w6, [x4, #-1]
   607c8:	2a0703e6 	mov	w6, w7
   607cc:	39000007 	strb	w7, [x0]
   607d0:	35fffc86 	cbnz	w6, 60760 <reverse+0x10>
   607d4:	d65f03c0 	ret
   607d8:	d503201f 	nop
   607dc:	d503201f 	nop

00000000000607e0 <itoa>:
   607e0:	2a0003e5 	mov	w5, w0
   607e4:	aa0103e0 	mov	x0, x1
   607e8:	340003a5 	cbz	w5, 6085c <itoa+0x7c>
   607ec:	d1000428 	sub	x8, x1, #0x1
   607f0:	528ccce1 	mov	w1, #0x6667                	// #26215
   607f4:	d2800027 	mov	x7, #0x1                   	// #1
   607f8:	72acccc1 	movk	w1, #0x6666, lsl #16
   607fc:	d503201f 	nop
   60800:	9b217ca3 	smull	x3, w5, w1
   60804:	2a0703e6 	mov	w6, w7
   60808:	9362fc63 	asr	x3, x3, #34
   6080c:	4b857c63 	sub	w3, w3, w5, asr #31
   60810:	0b030864 	add	w4, w3, w3, lsl #2
   60814:	4b0404a4 	sub	w4, w5, w4, lsl #1
   60818:	2a0303e5 	mov	w5, w3
   6081c:	1100c083 	add	w3, w4, #0x30
   60820:	38276903 	strb	w3, [x8, x7]
   60824:	910004e7 	add	x7, x7, #0x1
   60828:	35fffec5 	cbnz	w5, 60800 <itoa+0x20>
   6082c:	8b26c001 	add	x1, x0, w6, sxtw
   60830:	6b06005f 	cmp	w2, w6
   60834:	5400010d 	b.le	60854 <itoa+0x74>
   60838:	93407cc3 	sxtw	x3, w6
   6083c:	52800601 	mov	w1, #0x30                  	// #48
   60840:	38236801 	strb	w1, [x0, x3]
   60844:	91000463 	add	x3, x3, #0x1
   60848:	6b03005f 	cmp	w2, w3
   6084c:	54ffffac 	b.gt	60840 <itoa+0x60>
   60850:	8b22c001 	add	x1, x0, w2, sxtw
   60854:	3900003f 	strb	wzr, [x1]
   60858:	17ffffbe 	b	60750 <reverse>
   6085c:	52800006 	mov	w6, #0x0                   	// #0
   60860:	17fffff4 	b	60830 <itoa+0x50>

0000000000060864 <ftoa>:
   60864:	1e380009 	fcvtzs	w9, s0
   60868:	a9bf7bfd 	stp	x29, x30, [sp, #-16]!
   6086c:	2a0103e8 	mov	w8, w1
   60870:	910003fd 	mov	x29, sp
   60874:	34000b29 	cbz	w9, 609d8 <ftoa+0x174>
   60878:	528ccce7 	mov	w7, #0x6667                	// #26215
   6087c:	2a0903e4 	mov	w4, w9
   60880:	d1000406 	sub	x6, x0, #0x1
   60884:	d2800025 	mov	x5, #0x1                   	// #1
   60888:	72acccc7 	movk	w7, #0x6666, lsl #16
   6088c:	d503201f 	nop
   60890:	9b277c82 	smull	x2, w4, w7
   60894:	2a0503e1 	mov	w1, w5
   60898:	9362fc42 	asr	x2, x2, #34
   6089c:	4b847c42 	sub	w2, w2, w4, asr #31
   608a0:	0b020843 	add	w3, w2, w2, lsl #2
   608a4:	4b030483 	sub	w3, w4, w3, lsl #1
   608a8:	2a0203e4 	mov	w4, w2
   608ac:	1100c062 	add	w2, w3, #0x30
   608b0:	382568c2 	strb	w2, [x6, x5]
   608b4:	910004a5 	add	x5, x5, #0x1
   608b8:	35fffec4 	cbnz	w4, 60890 <ftoa+0x2c>
   608bc:	8b21c001 	add	x1, x0, w1, sxtw
   608c0:	3900003f 	strb	wzr, [x1]
   608c4:	97ffffa3 	bl	60750 <reverse>
   608c8:	39400001 	ldrb	w1, [x0]
   608cc:	34000741 	cbz	w1, 609b4 <ftoa+0x150>
   608d0:	d1000406 	sub	x6, x0, #0x1
   608d4:	d2800022 	mov	x2, #0x1                   	// #1
   608d8:	8b020004 	add	x4, x0, x2
   608dc:	aa0203e3 	mov	x3, x2
   608e0:	91000442 	add	x2, x2, #0x1
   608e4:	386268c1 	ldrb	w1, [x6, x2]
   608e8:	35ffff81 	cbnz	w1, 608d8 <ftoa+0x74>
   608ec:	7100011f 	cmp	w8, #0x0
   608f0:	340006a8 	cbz	w8, 609c4 <ftoa+0x160>
   608f4:	d503201f 	nop
   608f8:	1e220121 	scvtf	s1, w9
   608fc:	528005c1 	mov	w1, #0x2e                  	// #46
   60900:	39000081 	strb	w1, [x4]
   60904:	1e213800 	fsub	s0, s0, s1
   60908:	5400014d 	b.le	60930 <ftoa+0xcc>
   6090c:	2a0803e2 	mov	w2, w8
   60910:	52800021 	mov	w1, #0x1                   	// #1
   60914:	d503201f 	nop
   60918:	0b010821 	add	w1, w1, w1, lsl #2
   6091c:	71000442 	subs	w2, w2, #0x1
   60920:	531f7821 	lsl	w1, w1, #1
   60924:	54ffffa1 	b.ne	60918 <ftoa+0xb4>  // b.any
   60928:	1e220021 	scvtf	s1, w1
   6092c:	1e210800 	fmul	s0, s0, s1
   60930:	1e380004 	fcvtzs	w4, s0
   60934:	91000467 	add	x7, x3, #0x1
   60938:	8b070007 	add	x7, x0, x7
   6093c:	34000484 	cbz	w4, 609cc <ftoa+0x168>
   60940:	8b030002 	add	x2, x0, x3
   60944:	528ccce0 	mov	w0, #0x6667                	// #26215
   60948:	d2800026 	mov	x6, #0x1                   	// #1
   6094c:	72acccc0 	movk	w0, #0x6666, lsl #16
   60950:	9b207c83 	smull	x3, w4, w0
   60954:	93407cc1 	sxtw	x1, w6
   60958:	9362fc63 	asr	x3, x3, #34
   6095c:	4b847c63 	sub	w3, w3, w4, asr #31
   60960:	0b030865 	add	w5, w3, w3, lsl #2
   60964:	4b050485 	sub	w5, w4, w5, lsl #1
   60968:	2a0303e4 	mov	w4, w3
   6096c:	1100c0a3 	add	w3, w5, #0x30
   60970:	38266843 	strb	w3, [x2, x6]
   60974:	910004c6 	add	x6, x6, #0x1
   60978:	35fffec4 	cbnz	w4, 60950 <ftoa+0xec>
   6097c:	8b21c0e0 	add	x0, x7, w1, sxtw
   60980:	6b01011f 	cmp	w8, w1
   60984:	5400010d 	b.le	609a4 <ftoa+0x140>
   60988:	52800600 	mov	w0, #0x30                  	// #48
   6098c:	d503201f 	nop
   60990:	382168e0 	strb	w0, [x7, x1]
   60994:	91000421 	add	x1, x1, #0x1
   60998:	6b01011f 	cmp	w8, w1
   6099c:	54ffffac 	b.gt	60990 <ftoa+0x12c>
   609a0:	8b28c0e0 	add	x0, x7, w8, sxtw
   609a4:	3900001f 	strb	wzr, [x0]
   609a8:	aa0703e0 	mov	x0, x7
   609ac:	a8c17bfd 	ldp	x29, x30, [sp], #16
   609b0:	17ffff68 	b	60750 <reverse>
   609b4:	aa0003e4 	mov	x4, x0
   609b8:	7100011f 	cmp	w8, #0x0
   609bc:	d2800003 	mov	x3, #0x0                   	// #0
   609c0:	35fff9c8 	cbnz	w8, 608f8 <ftoa+0x94>
   609c4:	a8c17bfd 	ldp	x29, x30, [sp], #16
   609c8:	d65f03c0 	ret
   609cc:	aa0703e0 	mov	x0, x7
   609d0:	d2800001 	mov	x1, #0x0                   	// #0
   609d4:	17ffffeb 	b	60980 <ftoa+0x11c>
   609d8:	aa0003e1 	mov	x1, x0
   609dc:	17ffffb9 	b	608c0 <ftoa+0x5c>

00000000000609e0 <ls>:
   609e0:	a9bb7bfd 	stp	x29, x30, [sp, #-80]!
   609e4:	910003fd 	mov	x29, sp
   609e8:	a9025bf5 	stp	x21, x22, [sp, #32]
   609ec:	b0000015 	adrp	x21, 61000 <shell+0x20>
   609f0:	910e62b5 	add	x21, x21, #0x398
   609f4:	a90363f7 	stp	x23, x24, [sp, #48]
   609f8:	b0000017 	adrp	x23, 61000 <shell+0x20>
   609fc:	2a0103f8 	mov	w24, w1
   60a00:	910e02f7 	add	x23, x23, #0x380
   60a04:	a9046bf9 	stp	x25, x26, [sp, #64]
   60a08:	aa0003f9 	mov	x25, x0
   60a0c:	d2a10016 	mov	x22, #0x8000000             	// #134217728
   60a10:	a90153f3 	stp	x19, x20, [sp, #16]
   60a14:	d503201f 	nop
   60a18:	9100dac2 	add	x2, x22, #0x36
   60a1c:	9100fac5 	add	x5, x22, #0x3e
   60a20:	52800003 	mov	w3, #0x0                   	// #0
   60a24:	52800014 	mov	w20, #0x0                   	// #0
   60a28:	14000018 	b	60a88 <ls+0xa8>
   60a2c:	39400040 	ldrb	w0, [x2]
   60a30:	12001c00 	and	w0, w0, #0xff
   60a34:	7101181f 	cmp	w0, #0x46
   60a38:	54000328 	b.hi	60a9c <ls+0xbc>  // b.pmore
   60a3c:	39400040 	ldrb	w0, [x2]
   60a40:	531c6c63 	lsl	w3, w3, #4
   60a44:	3940a044 	ldrb	w4, [x2, #40]
   60a48:	0b200280 	add	w0, w20, w0, uxtb
   60a4c:	12001c84 	and	w4, w4, #0xff
   60a50:	5100dc14 	sub	w20, w0, #0x37
   60a54:	9100a040 	add	x0, x2, #0x28
   60a58:	7101009f 	cmp	w4, #0x40
   60a5c:	54000329 	b.ls	60ac0 <ls+0xe0>  // b.plast
   60a60:	3940a041 	ldrb	w1, [x2, #40]
   60a64:	12001c21 	and	w1, w1, #0xff
   60a68:	7101183f 	cmp	w1, #0x46
   60a6c:	540002a8 	b.hi	60ac0 <ls+0xe0>  // b.pmore
   60a70:	39400000 	ldrb	w0, [x0]
   60a74:	91000442 	add	x2, x2, #0x1
   60a78:	0b200060 	add	w0, w3, w0, uxtb
   60a7c:	5100dc03 	sub	w3, w0, #0x37
   60a80:	eb05005f 	cmp	x2, x5
   60a84:	540002a0 	b.eq	60ad8 <ls+0xf8>  // b.none
   60a88:	39400044 	ldrb	w4, [x2]
   60a8c:	531c6e94 	lsl	w20, w20, #4
   60a90:	12001c84 	and	w4, w4, #0xff
   60a94:	7101009f 	cmp	w4, #0x40
   60a98:	54fffca8 	b.hi	60a2c <ls+0x4c>  // b.pmore
   60a9c:	39400044 	ldrb	w4, [x2]
   60aa0:	531c6c63 	lsl	w3, w3, #4
   60aa4:	9100a040 	add	x0, x2, #0x28
   60aa8:	0b240294 	add	w20, w20, w4, uxtb
   60aac:	3940a044 	ldrb	w4, [x2, #40]
   60ab0:	5100c294 	sub	w20, w20, #0x30
   60ab4:	12001c84 	and	w4, w4, #0xff
   60ab8:	7101009f 	cmp	w4, #0x40
   60abc:	54fffd28 	b.hi	60a60 <ls+0x80>  // b.pmore
   60ac0:	39400004 	ldrb	w4, [x0]
   60ac4:	91000442 	add	x2, x2, #0x1
   60ac8:	0b240063 	add	w3, w3, w4, uxtb
   60acc:	5100c063 	sub	w3, w3, #0x30
   60ad0:	eb05005f 	cmp	x2, x5
   60ad4:	54fffda1 	b.ne	60a88 <ls+0xa8>  // b.any
   60ad8:	1101b873 	add	w19, w3, #0x6e
   60adc:	72000681 	ands	w1, w20, #0x3
   60ae0:	540000c0 	b.eq	60af8 <ls+0x118>  // b.none
   60ae4:	6b1403e0 	negs	w0, w20
   60ae8:	12000400 	and	w0, w0, #0x3
   60aec:	5a804420 	csneg	w0, w1, w0, mi  // mi = first
   60af0:	4b000280 	sub	w0, w20, w0
   60af4:	11001014 	add	w20, w0, #0x4
   60af8:	72000661 	ands	w1, w19, #0x3
   60afc:	540000c0 	b.eq	60b14 <ls+0x134>  // b.none
   60b00:	6b1303e0 	negs	w0, w19
   60b04:	12000400 	and	w0, w0, #0x3
   60b08:	5a804420 	csneg	w0, w1, w0, mi  // mi = first
   60b0c:	4b000260 	sub	w0, w19, w0
   60b10:	11001013 	add	w19, w0, #0x4
   60b14:	3941bac3 	ldrb	w3, [x22, #110]
   60b18:	9101bada 	add	x26, x22, #0x6e
   60b1c:	340004a3 	cbz	w3, 60bb0 <ls+0x1d0>
   60b20:	b0000000 	adrp	x0, 61000 <shell+0x20>
   60b24:	2a0303e4 	mov	w4, w3
   60b28:	910dc000 	add	x0, x0, #0x370
   60b2c:	9101bec1 	add	x1, x22, #0x6f
   60b30:	d2800002 	mov	x2, #0x0                   	// #0
   60b34:	52800a85 	mov	w5, #0x54                  	// #84
   60b38:	14000005 	b	60b4c <ls+0x16c>
   60b3c:	38626824 	ldrb	w4, [x1, x2]
   60b40:	91000442 	add	x2, x2, #0x1
   60b44:	38626805 	ldrb	w5, [x0, x2]
   60b48:	340009a4 	cbz	w4, 60c7c <ls+0x29c>
   60b4c:	6b0400bf 	cmp	w5, w4
   60b50:	54ffff60 	b.eq	60b3c <ls+0x15c>  // b.none
   60b54:	2a0303e4 	mov	w4, w3
   60b58:	9101bec0 	add	x0, x22, #0x6f
   60b5c:	d2800002 	mov	x2, #0x0                   	// #0
   60b60:	528005c5 	mov	w5, #0x2e                  	// #46
   60b64:	14000005 	b	60b78 <ls+0x198>
   60b68:	38626804 	ldrb	w4, [x0, x2]
   60b6c:	91000442 	add	x2, x2, #0x1
   60b70:	38626ae5 	ldrb	w5, [x23, x2]
   60b74:	34000944 	cbz	w4, 60c9c <ls+0x2bc>
   60b78:	6b0400bf 	cmp	w5, w4
   60b7c:	54ffff60 	b.eq	60b68 <ls+0x188>  // b.none
   60b80:	340001d8 	cbz	w24, 60bb8 <ls+0x1d8>
   60b84:	aa1903e2 	mov	x2, x25
   60b88:	14000003 	b	60b94 <ls+0x1b4>
   60b8c:	38401f43 	ldrb	w3, [x26, #1]!
   60b90:	34000263 	cbz	w3, 60bdc <ls+0x1fc>
   60b94:	39400040 	ldrb	w0, [x2]
   60b98:	91000442 	add	x2, x2, #0x1
   60b9c:	6b03001f 	cmp	w0, w3
   60ba0:	54ffff60 	b.eq	60b8c <ls+0x1ac>  // b.none
   60ba4:	0b130283 	add	w3, w20, w19
   60ba8:	8b23c2d6 	add	x22, x22, w3, sxtw
   60bac:	17ffff9b 	b	60a18 <ls+0x38>
   60bb0:	aa1903e2 	mov	x2, x25
   60bb4:	35000158 	cbnz	w24, 60bdc <ls+0x1fc>
   60bb8:	aa1a03e0 	mov	x0, x26
   60bbc:	97fffe75 	bl	60590 <uart_puts>
   60bc0:	aa1503e0 	mov	x0, x21
   60bc4:	97fffe73 	bl	60590 <uart_puts>
   60bc8:	3941bac3 	ldrb	w3, [x22, #110]
   60bcc:	35fffdc3 	cbnz	w3, 60b84 <ls+0x1a4>
   60bd0:	0b130283 	add	w3, w20, w19
   60bd4:	8b23c2d6 	add	x22, x22, w3, sxtw
   60bd8:	17ffff90 	b	60a18 <ls+0x38>
   60bdc:	39400040 	ldrb	w0, [x2]
   60be0:	7100001f 	cmp	w0, #0x0
   60be4:	7a400b04 	ccmp	w24, #0x0, #0x4, eq  // eq = none
   60be8:	54fffde0 	b.eq	60ba4 <ls+0x1c4>  // b.none
   60bec:	7100029f 	cmp	w20, #0x0
   60bf0:	5400038d 	b.le	60c60 <ls+0x280>
   60bf4:	93407e63 	sxtw	x3, w19
   60bf8:	51000680 	sub	w0, w20, #0x1
   60bfc:	910006c1 	add	x1, x22, #0x1
   60c00:	8b030000 	add	x0, x0, x3
   60c04:	8b0302d6 	add	x22, x22, x3
   60c08:	8b010013 	add	x19, x0, x1
   60c0c:	d503201f 	nop
   60c10:	394002c0 	ldrb	w0, [x22]
   60c14:	12001c00 	and	w0, w0, #0xff
   60c18:	97fffe46 	bl	60530 <uart_send>
   60c1c:	394002c4 	ldrb	w4, [x22]
   60c20:	92401c84 	and	x4, x4, #0xff
   60c24:	39400081 	ldrb	w1, [x4]
   60c28:	34000401 	cbz	w1, 60ca8 <ls+0x2c8>
   60c2c:	d1002484 	sub	x4, x4, #0x9
   60c30:	d2800140 	mov	x0, #0xa                   	// #10
   60c34:	14000003 	b	60c40 <ls+0x260>
   60c38:	39400061 	ldrb	w1, [x3]
   60c3c:	340003a1 	cbz	w1, 60cb0 <ls+0x2d0>
   60c40:	39400002 	ldrb	w2, [x0]
   60c44:	8b040003 	add	x3, x0, x4
   60c48:	91000400 	add	x0, x0, #0x1
   60c4c:	6b01005f 	cmp	w2, w1
   60c50:	54ffff40 	b.eq	60c38 <ls+0x258>  // b.none
   60c54:	910006d6 	add	x22, x22, #0x1
   60c58:	eb16027f 	cmp	x19, x22
   60c5c:	54fffda1 	b.ne	60c10 <ls+0x230>  // b.any
   60c60:	52800020 	mov	w0, #0x1                   	// #1
   60c64:	a94153f3 	ldp	x19, x20, [sp, #16]
   60c68:	a9425bf5 	ldp	x21, x22, [sp, #32]
   60c6c:	a94363f7 	ldp	x23, x24, [sp, #48]
   60c70:	a9446bf9 	ldp	x25, x26, [sp, #64]
   60c74:	a8c57bfd 	ldp	x29, x30, [sp], #80
   60c78:	d65f03c0 	ret
   60c7c:	35fff6c5 	cbnz	w5, 60b54 <ls+0x174>
   60c80:	52800000 	mov	w0, #0x0                   	// #0
   60c84:	a94153f3 	ldp	x19, x20, [sp, #16]
   60c88:	a9425bf5 	ldp	x21, x22, [sp, #32]
   60c8c:	a94363f7 	ldp	x23, x24, [sp, #48]
   60c90:	a9446bf9 	ldp	x25, x26, [sp, #64]
   60c94:	a8c57bfd 	ldp	x29, x30, [sp], #80
   60c98:	d65f03c0 	ret
   60c9c:	34fff745 	cbz	w5, 60b84 <ls+0x1a4>
   60ca0:	35fff738 	cbnz	w24, 60b84 <ls+0x1a4>
   60ca4:	17ffffc5 	b	60bb8 <ls+0x1d8>
   60ca8:	d2800140 	mov	x0, #0xa                   	// #10
   60cac:	d503201f 	nop
   60cb0:	39400000 	ldrb	w0, [x0]
   60cb4:	35fffd00 	cbnz	w0, 60c54 <ls+0x274>
   60cb8:	528001a0 	mov	w0, #0xd                   	// #13
   60cbc:	910006d6 	add	x22, x22, #0x1
   60cc0:	97fffe1c 	bl	60530 <uart_send>
   60cc4:	eb16027f 	cmp	x19, x22
   60cc8:	54fffa41 	b.ne	60c10 <ls+0x230>  // b.any
   60ccc:	17ffffe5 	b	60c60 <ls+0x280>

0000000000060cd0 <checkcat>:
   60cd0:	39400001 	ldrb	w1, [x0]
   60cd4:	71018c3f 	cmp	w1, #0x63
   60cd8:	54000101 	b.ne	60cf8 <checkcat+0x28>  // b.any
   60cdc:	39400401 	ldrb	w1, [x0, #1]
   60ce0:	7101843f 	cmp	w1, #0x61
   60ce4:	540000a1 	b.ne	60cf8 <checkcat+0x28>  // b.any
   60ce8:	39400800 	ldrb	w0, [x0, #2]
   60cec:	7101d01f 	cmp	w0, #0x74
   60cf0:	1a9f17e0 	cset	w0, eq  // eq = none
   60cf4:	d65f03c0 	ret
   60cf8:	52800000 	mov	w0, #0x0                   	// #0
   60cfc:	d65f03c0 	ret

0000000000060d00 <cat>:
   60d00:	a9bc7bfd 	stp	x29, x30, [sp, #-64]!
   60d04:	910003fd 	mov	x29, sp
   60d08:	a90153f3 	stp	x19, x20, [sp, #16]
   60d0c:	39400001 	ldrb	w1, [x0]
   60d10:	34001601 	cbz	w1, 60fd0 <cat+0x2d0>
   60d14:	d1000405 	sub	x5, x0, #0x1
   60d18:	d2800021 	mov	x1, #0x1                   	// #1
   60d1c:	d503201f 	nop
   60d20:	51000423 	sub	w3, w1, #0x1
   60d24:	2a0103e4 	mov	w4, w1
   60d28:	91000421 	add	x1, x1, #0x1
   60d2c:	386168a2 	ldrb	w2, [x5, x1]
   60d30:	35ffff82 	cbnz	w2, 60d20 <cat+0x20>
   60d34:	a902ffff 	stp	xzr, xzr, [sp, #40]
   60d38:	9100a3f3 	add	x19, sp, #0x28
   60d3c:	b9003bff 	str	wzr, [sp, #56]
   60d40:	71001c9f 	cmp	w4, #0x7
   60d44:	540001cd 	b.le	60d7c <cat+0x7c>
   60d48:	d2800081 	mov	x1, #0x4                   	// #4
   60d4c:	d503201f 	nop
   60d50:	8b010265 	add	x5, x19, x1
   60d54:	38616806 	ldrb	w6, [x0, x1]
   60d58:	91000421 	add	x1, x1, #0x1
   60d5c:	51000422 	sub	w2, w1, #0x1
   60d60:	381fc0a6 	sturb	w6, [x5, #-4]
   60d64:	6b03005f 	cmp	w2, w3
   60d68:	54ffff4b 	b.lt	60d50 <cat+0x50>  // b.tstop
   60d6c:	71000c7f 	cmp	w3, #0x3
   60d70:	528000a0 	mov	w0, #0x5                   	// #5
   60d74:	1a80c084 	csel	w4, w4, w0, gt
   60d78:	3824ca7f 	strb	wzr, [x19, w4, sxtw]
   60d7c:	b0000008 	adrp	x8, 61000 <shell+0x20>
   60d80:	910dc108 	add	x8, x8, #0x370
   60d84:	d2a10007 	mov	x7, #0x8000000             	// #134217728
   60d88:	52800089 	mov	w9, #0x4                   	// #4
   60d8c:	d503201f 	nop
   60d90:	9100d8e0 	add	x0, x7, #0x36
   60d94:	9100f8e5 	add	x5, x7, #0x3e
   60d98:	52800001 	mov	w1, #0x0                   	// #0
   60d9c:	52800002 	mov	w2, #0x0                   	// #0
   60da0:	14000018 	b	60e00 <cat+0x100>
   60da4:	39400003 	ldrb	w3, [x0]
   60da8:	12001c63 	and	w3, w3, #0xff
   60dac:	7101187f 	cmp	w3, #0x46
   60db0:	54000328 	b.hi	60e14 <cat+0x114>  // b.pmore
   60db4:	39400003 	ldrb	w3, [x0]
   60db8:	531c6c21 	lsl	w1, w1, #4
   60dbc:	9100a004 	add	x4, x0, #0x28
   60dc0:	0b230042 	add	w2, w2, w3, uxtb
   60dc4:	3940a003 	ldrb	w3, [x0, #40]
   60dc8:	5100dc42 	sub	w2, w2, #0x37
   60dcc:	12001c63 	and	w3, w3, #0xff
   60dd0:	7101007f 	cmp	w3, #0x40
   60dd4:	54000329 	b.ls	60e38 <cat+0x138>  // b.plast
   60dd8:	3940a003 	ldrb	w3, [x0, #40]
   60ddc:	12001c63 	and	w3, w3, #0xff
   60de0:	7101187f 	cmp	w3, #0x46
   60de4:	540002a8 	b.hi	60e38 <cat+0x138>  // b.pmore
   60de8:	39400083 	ldrb	w3, [x4]
   60dec:	91000400 	add	x0, x0, #0x1
   60df0:	0b230021 	add	w1, w1, w3, uxtb
   60df4:	5100dc21 	sub	w1, w1, #0x37
   60df8:	eb05001f 	cmp	x0, x5
   60dfc:	540002a0 	b.eq	60e50 <cat+0x150>  // b.none
   60e00:	39400003 	ldrb	w3, [x0]
   60e04:	531c6c42 	lsl	w2, w2, #4
   60e08:	12001c63 	and	w3, w3, #0xff
   60e0c:	7101007f 	cmp	w3, #0x40
   60e10:	54fffca8 	b.hi	60da4 <cat+0xa4>  // b.pmore
   60e14:	39400003 	ldrb	w3, [x0]
   60e18:	531c6c21 	lsl	w1, w1, #4
   60e1c:	9100a004 	add	x4, x0, #0x28
   60e20:	0b230042 	add	w2, w2, w3, uxtb
   60e24:	3940a003 	ldrb	w3, [x0, #40]
   60e28:	5100c042 	sub	w2, w2, #0x30
   60e2c:	12001c63 	and	w3, w3, #0xff
   60e30:	7101007f 	cmp	w3, #0x40
   60e34:	54fffd28 	b.hi	60dd8 <cat+0xd8>  // b.pmore
   60e38:	39400083 	ldrb	w3, [x4]
   60e3c:	91000400 	add	x0, x0, #0x1
   60e40:	0b230021 	add	w1, w1, w3, uxtb
   60e44:	5100c021 	sub	w1, w1, #0x30
   60e48:	eb05001f 	cmp	x0, x5
   60e4c:	54fffda1 	b.ne	60e00 <cat+0x100>  // b.any
   60e50:	1101b821 	add	w1, w1, #0x6e
   60e54:	72000443 	ands	w3, w2, #0x3
   60e58:	540000c0 	b.eq	60e70 <cat+0x170>  // b.none
   60e5c:	6b0203e0 	negs	w0, w2
   60e60:	12000400 	and	w0, w0, #0x3
   60e64:	5a804460 	csneg	w0, w3, w0, mi  // mi = first
   60e68:	4b000120 	sub	w0, w9, w0
   60e6c:	0b000042 	add	w2, w2, w0
   60e70:	72000423 	ands	w3, w1, #0x3
   60e74:	540000c0 	b.eq	60e8c <cat+0x18c>  // b.none
   60e78:	6b0103e0 	negs	w0, w1
   60e7c:	12000400 	and	w0, w0, #0x3
   60e80:	5a804460 	csneg	w0, w3, w0, mi  // mi = first
   60e84:	4b000120 	sub	w0, w9, w0
   60e88:	0b000021 	add	w1, w1, w0
   60e8c:	3941b8e3 	ldrb	w3, [x7, #110]
   60e90:	9101b8e6 	add	x6, x7, #0x6e
   60e94:	340002e3 	cbz	w3, 60ef0 <cat+0x1f0>
   60e98:	2a0303e4 	mov	w4, w3
   60e9c:	9101bcea 	add	x10, x7, #0x6f
   60ea0:	d2800000 	mov	x0, #0x0                   	// #0
   60ea4:	52800a85 	mov	w5, #0x54                  	// #84
   60ea8:	14000005 	b	60ebc <cat+0x1bc>
   60eac:	38606944 	ldrb	w4, [x10, x0]
   60eb0:	91000400 	add	x0, x0, #0x1
   60eb4:	38606905 	ldrb	w5, [x8, x0]
   60eb8:	34000624 	cbz	w4, 60f7c <cat+0x27c>
   60ebc:	6b0400bf 	cmp	w5, w4
   60ec0:	54ffff60 	b.eq	60eac <cat+0x1ac>  // b.none
   60ec4:	aa1303e0 	mov	x0, x19
   60ec8:	14000003 	b	60ed4 <cat+0x1d4>
   60ecc:	38401cc3 	ldrb	w3, [x6, #1]!
   60ed0:	34000143 	cbz	w3, 60ef8 <cat+0x1f8>
   60ed4:	39400004 	ldrb	w4, [x0]
   60ed8:	91000400 	add	x0, x0, #0x1
   60edc:	6b03009f 	cmp	w4, w3
   60ee0:	54ffff60 	b.eq	60ecc <cat+0x1cc>  // b.none
   60ee4:	0b010041 	add	w1, w2, w1
   60ee8:	8b21c0e7 	add	x7, x7, w1, sxtw
   60eec:	17ffffa9 	b	60d90 <cat+0x90>
   60ef0:	aa1303e0 	mov	x0, x19
   60ef4:	d503201f 	nop
   60ef8:	39400000 	ldrb	w0, [x0]
   60efc:	35ffff40 	cbnz	w0, 60ee4 <cat+0x1e4>
   60f00:	7100005f 	cmp	w2, #0x0
   60f04:	5400036d 	b.le	60f70 <cat+0x270>
   60f08:	93407c21 	sxtw	x1, w1
   60f0c:	51000453 	sub	w19, w2, #0x1
   60f10:	8b010273 	add	x19, x19, x1
   60f14:	910004e0 	add	x0, x7, #0x1
   60f18:	8b0100f4 	add	x20, x7, x1
   60f1c:	8b000273 	add	x19, x19, x0
   60f20:	39400280 	ldrb	w0, [x20]
   60f24:	12001c00 	and	w0, w0, #0xff
   60f28:	97fffd82 	bl	60530 <uart_send>
   60f2c:	39400284 	ldrb	w4, [x20]
   60f30:	92401c84 	and	x4, x4, #0xff
   60f34:	39400081 	ldrb	w1, [x4]
   60f38:	340003a1 	cbz	w1, 60fac <cat+0x2ac>
   60f3c:	d1002484 	sub	x4, x4, #0x9
   60f40:	d2800140 	mov	x0, #0xa                   	// #10
   60f44:	14000003 	b	60f50 <cat+0x250>
   60f48:	39400061 	ldrb	w1, [x3]
   60f4c:	34000321 	cbz	w1, 60fb0 <cat+0x2b0>
   60f50:	39400002 	ldrb	w2, [x0]
   60f54:	8b040003 	add	x3, x0, x4
   60f58:	91000400 	add	x0, x0, #0x1
   60f5c:	6b01005f 	cmp	w2, w1
   60f60:	54ffff40 	b.eq	60f48 <cat+0x248>  // b.none
   60f64:	91000694 	add	x20, x20, #0x1
   60f68:	eb14027f 	cmp	x19, x20
   60f6c:	54fffda1 	b.ne	60f20 <cat+0x220>  // b.any
   60f70:	a94153f3 	ldp	x19, x20, [sp, #16]
   60f74:	a8c47bfd 	ldp	x29, x30, [sp], #64
   60f78:	d65f03c0 	ret
   60f7c:	35fffa45 	cbnz	w5, 60ec4 <cat+0x1c4>
   60f80:	b0000000 	adrp	x0, 61000 <shell+0x20>
   60f84:	910c8000 	add	x0, x0, #0x320
   60f88:	97fffd82 	bl	60590 <uart_puts>
   60f8c:	aa1303e0 	mov	x0, x19
   60f90:	97fffd80 	bl	60590 <uart_puts>
   60f94:	b0000000 	adrp	x0, 61000 <shell+0x20>
   60f98:	910e2000 	add	x0, x0, #0x388
   60f9c:	97fffd7d 	bl	60590 <uart_puts>
   60fa0:	a94153f3 	ldp	x19, x20, [sp, #16]
   60fa4:	a8c47bfd 	ldp	x29, x30, [sp], #64
   60fa8:	d65f03c0 	ret
   60fac:	d2800140 	mov	x0, #0xa                   	// #10
   60fb0:	39400000 	ldrb	w0, [x0]
   60fb4:	35fffd80 	cbnz	w0, 60f64 <cat+0x264>
   60fb8:	528001a0 	mov	w0, #0xd                   	// #13
   60fbc:	91000694 	add	x20, x20, #0x1
   60fc0:	97fffd5c 	bl	60530 <uart_send>
   60fc4:	eb14027f 	cmp	x19, x20
   60fc8:	54fffac1 	b.ne	60f20 <cat+0x220>  // b.any
   60fcc:	17ffffe9 	b	60f70 <cat+0x270>
   60fd0:	9100a3f3 	add	x19, sp, #0x28
   60fd4:	a902ffff 	stp	xzr, xzr, [sp, #40]
   60fd8:	b9003bff 	str	wzr, [sp, #56]
   60fdc:	17ffff68 	b	60d7c <cat+0x7c>

0000000000060fe0 <shell>:
   60fe0:	a9be7bfd 	stp	x29, x30, [sp, #-32]!
   60fe4:	910003fd 	mov	x29, sp
   60fe8:	f9000bf3 	str	x19, [sp, #16]
   60fec:	aa0003f3 	mov	x19, x0
   60ff0:	97fffd59 	bl	60554 <uart_getc>
   60ff4:	12001c02 	and	w2, w0, #0xff
   60ff8:	2a0003e1 	mov	w1, w0
   60ffc:	2a0203e0 	mov	w0, w2
   61000:	7100285f 	cmp	w2, #0xa
   61004:	54000120 	b.eq	61028 <shell+0x48>  // b.none
   61008:	38001662 	strb	w2, [x19], #1
   6100c:	97fffd49 	bl	60530 <uart_send>
   61010:	97fffd51 	bl	60554 <uart_getc>
   61014:	12001c02 	and	w2, w0, #0xff
   61018:	2a0003e1 	mov	w1, w0
   6101c:	2a0203e0 	mov	w0, w2
   61020:	7100285f 	cmp	w2, #0xa
   61024:	54ffff21 	b.ne	61008 <shell+0x28>  // b.any
   61028:	3900027f 	strb	wzr, [x19]
   6102c:	12001c20 	and	w0, w1, #0xff
   61030:	97fffd40 	bl	60530 <uart_send>
   61034:	f9400bf3 	ldr	x19, [sp, #16]
   61038:	90000000 	adrp	x0, 61000 <shell+0x20>
   6103c:	a8c27bfd 	ldp	x29, x30, [sp], #32
   61040:	910e8000 	add	x0, x0, #0x3a0
   61044:	17fffd53 	b	60590 <uart_puts>
   61048:	d503201f 	nop
   6104c:	d503201f 	nop

0000000000061050 <print_welcome>:
   61050:	90000000 	adrp	x0, 61000 <shell+0x20>
   61054:	910ea000 	add	x0, x0, #0x3a8
   61058:	17fffd4e 	b	60590 <uart_puts>
