
build/kernel8.elf:     file format elf64-littleaarch64


Disassembly of section .text:

0000000000080000 <InputBufferOverflowMessage>:
   80000:	a9be7bfd 	stp	x29, x30, [sp, #-32]!
   80004:	910003fd 	mov	x29, sp
   80008:	f9000fe0 	str	x0, [sp, #24]
   8000c:	90000000 	adrp	x0, 80000 <InputBufferOverflowMessage>
   80010:	91300000 	add	x0, x0, #0xc00
   80014:	940002e4 	bl	80ba4 <uart_puts>
   80018:	f9400fe0 	ldr	x0, [sp, #24]
   8001c:	940002e2 	bl	80ba4 <uart_puts>
   80020:	90000000 	adrp	x0, 80000 <InputBufferOverflowMessage>
   80024:	91306000 	add	x0, x0, #0xc18
   80028:	940002df 	bl	80ba4 <uart_puts>
   8002c:	90000000 	adrp	x0, 80000 <InputBufferOverflowMessage>
   80030:	9130e000 	add	x0, x0, #0xc38
   80034:	940002dc 	bl	80ba4 <uart_puts>
   80038:	d503201f 	nop
   8003c:	a8c27bfd 	ldp	x29, x30, [sp], #32
   80040:	d65f03c0 	ret

0000000000080044 <CommandHelp>:
   80044:	a9bf7bfd 	stp	x29, x30, [sp, #-16]!
   80048:	910003fd 	mov	x29, sp
   8004c:	90000000 	adrp	x0, 80000 <InputBufferOverflowMessage>
   80050:	91318000 	add	x0, x0, #0xc60
   80054:	940002d4 	bl	80ba4 <uart_puts>
   80058:	90000000 	adrp	x0, 80000 <InputBufferOverflowMessage>
   8005c:	9131a000 	add	x0, x0, #0xc68
   80060:	940002d1 	bl	80ba4 <uart_puts>
   80064:	90000000 	adrp	x0, 80000 <InputBufferOverflowMessage>
   80068:	9131e000 	add	x0, x0, #0xc78
   8006c:	940002ce 	bl	80ba4 <uart_puts>
   80070:	90000000 	adrp	x0, 80000 <InputBufferOverflowMessage>
   80074:	91326000 	add	x0, x0, #0xc98
   80078:	940002cb 	bl	80ba4 <uart_puts>
   8007c:	90000000 	adrp	x0, 80000 <InputBufferOverflowMessage>
   80080:	9132e000 	add	x0, x0, #0xcb8
   80084:	940002c8 	bl	80ba4 <uart_puts>
   80088:	90000000 	adrp	x0, 80000 <InputBufferOverflowMessage>
   8008c:	91318000 	add	x0, x0, #0xc60
   80090:	940002c5 	bl	80ba4 <uart_puts>
   80094:	d503201f 	nop
   80098:	a8c17bfd 	ldp	x29, x30, [sp], #16
   8009c:	d65f03c0 	ret

00000000000800a0 <CommandHello>:
   800a0:	a9bf7bfd 	stp	x29, x30, [sp, #-16]!
   800a4:	910003fd 	mov	x29, sp
   800a8:	90000000 	adrp	x0, 80000 <InputBufferOverflowMessage>
   800ac:	91338000 	add	x0, x0, #0xce0
   800b0:	940002bd 	bl	80ba4 <uart_puts>
   800b4:	d503201f 	nop
   800b8:	a8c17bfd 	ldp	x29, x30, [sp], #16
   800bc:	d65f03c0 	ret

00000000000800c0 <CommandTimestamp>:
   800c0:	a9bc7bfd 	stp	x29, x30, [sp, #-64]!
   800c4:	910003fd 	mov	x29, sp
   800c8:	d53be001 	mrs	x1, cntfrq_el0
   800cc:	d53be020 	mrs	x0, cntpct_el0
   800d0:	f9001fe1 	str	x1, [sp, #56]
   800d4:	f9001be0 	str	x0, [sp, #48]
   800d8:	f9401be0 	ldr	x0, [sp, #48]
   800dc:	9e230001 	ucvtf	s1, x0
   800e0:	f9401fe0 	ldr	x0, [sp, #56]
   800e4:	9e230000 	ucvtf	s0, x0
   800e8:	1e201820 	fdiv	s0, s1, s0
   800ec:	910063e0 	add	x0, sp, #0x18
   800f0:	528000c1 	mov	w1, #0x6                   	// #6
   800f4:	940001e3 	bl	80880 <ftoa>
   800f8:	52800b60 	mov	w0, #0x5b                  	// #91
   800fc:	94000286 	bl	80b14 <uart_send>
   80100:	910063e0 	add	x0, sp, #0x18
   80104:	940002a8 	bl	80ba4 <uart_puts>
   80108:	90000000 	adrp	x0, 80000 <InputBufferOverflowMessage>
   8010c:	9133c000 	add	x0, x0, #0xcf0
   80110:	940002a5 	bl	80ba4 <uart_puts>
   80114:	d503201f 	nop
   80118:	a8c47bfd 	ldp	x29, x30, [sp], #64
   8011c:	d65f03c0 	ret

0000000000080120 <CommandNotFound>:
   80120:	a9be7bfd 	stp	x29, x30, [sp, #-32]!
   80124:	910003fd 	mov	x29, sp
   80128:	f9000fe0 	str	x0, [sp, #24]
   8012c:	90000000 	adrp	x0, 80000 <InputBufferOverflowMessage>
   80130:	9133e000 	add	x0, x0, #0xcf8
   80134:	9400029c 	bl	80ba4 <uart_puts>
   80138:	f9400fe0 	ldr	x0, [sp, #24]
   8013c:	9400029a 	bl	80ba4 <uart_puts>
   80140:	90000000 	adrp	x0, 80000 <InputBufferOverflowMessage>
   80144:	91342000 	add	x0, x0, #0xd08
   80148:	94000297 	bl	80ba4 <uart_puts>
   8014c:	d503201f 	nop
   80150:	a8c27bfd 	ldp	x29, x30, [sp], #32
   80154:	d65f03c0 	ret

0000000000080158 <CommandReboot>:
   80158:	a9bf7bfd 	stp	x29, x30, [sp, #-16]!
   8015c:	910003fd 	mov	x29, sp
   80160:	5290d400 	mov	w0, #0x86a0                	// #34464
   80164:	72a00020 	movk	w0, #0x1, lsl #16
   80168:	9400005b 	bl	802d4 <reset>
   8016c:	d503201f 	nop
   80170:	a8c17bfd 	ldp	x29, x30, [sp], #16
   80174:	d65f03c0 	ret

0000000000080178 <main>:
   80178:	a9bf7bfd 	stp	x29, x30, [sp, #-16]!
   8017c:	910003fd 	mov	x29, sp
   80180:	9400021f 	bl	809fc <uart_init>
   80184:	94000004 	bl	80194 <print_welcome>
   80188:	d503201f 	nop
   8018c:	a8c17bfd 	ldp	x29, x30, [sp], #16
   80190:	d65f03c0 	ret

0000000000080194 <print_welcome>:
   80194:	a9be7bfd 	stp	x29, x30, [sp, #-32]!
   80198:	910003fd 	mov	x29, sp
   8019c:	90000000 	adrp	x0, 80000 <InputBufferOverflowMessage>
   801a0:	91348000 	add	x0, x0, #0xd20
   801a4:	f9000fe0 	str	x0, [sp, #24]
   801a8:	f9400fe0 	ldr	x0, [sp, #24]
   801ac:	9400027e 	bl	80ba4 <uart_puts>
   801b0:	d503201f 	nop
   801b4:	a8c27bfd 	ldp	x29, x30, [sp], #32
   801b8:	d65f03c0 	ret

00000000000801bc <pow>:
   801bc:	d10083ff 	sub	sp, sp, #0x20
   801c0:	b9000fe0 	str	w0, [sp, #12]
   801c4:	b9000be1 	str	w1, [sp, #8]
   801c8:	52800020 	mov	w0, #0x1                   	// #1
   801cc:	b9001fe0 	str	w0, [sp, #28]
   801d0:	14000008 	b	801f0 <pow+0x34>
   801d4:	b9401fe1 	ldr	w1, [sp, #28]
   801d8:	b9400fe0 	ldr	w0, [sp, #12]
   801dc:	1b007c20 	mul	w0, w1, w0
   801e0:	b9001fe0 	str	w0, [sp, #28]
   801e4:	b9400be0 	ldr	w0, [sp, #8]
   801e8:	51000400 	sub	w0, w0, #0x1
   801ec:	b9000be0 	str	w0, [sp, #8]
   801f0:	b9400be0 	ldr	w0, [sp, #8]
   801f4:	7100001f 	cmp	w0, #0x0
   801f8:	54fffeec 	b.gt	801d4 <pow+0x18>
   801fc:	b9401fe0 	ldr	w0, [sp, #28]
   80200:	910083ff 	add	sp, sp, #0x20
   80204:	d65f03c0 	ret

0000000000080208 <mbox_call>:
   80208:	d10083ff 	sub	sp, sp, #0x20
   8020c:	39003fe0 	strb	w0, [sp, #15]
   80210:	39403fe0 	ldrb	w0, [sp, #15]
   80214:	12000c01 	and	w1, w0, #0xf
   80218:	b0000000 	adrp	x0, 81000 <uart_puts+0x45c>
   8021c:	9106c000 	add	x0, x0, #0x1b0
   80220:	121c6c00 	and	w0, w0, #0xfffffff0
   80224:	2a000020 	orr	w0, w1, w0
   80228:	b9001fe0 	str	w0, [sp, #28]
   8022c:	d503201f 	nop
   80230:	d2971300 	mov	x0, #0xb898                	// #47256
   80234:	f2a7e000 	movk	x0, #0x3f00, lsl #16
   80238:	b9400000 	ldr	w0, [x0]
   8023c:	7100001f 	cmp	w0, #0x0
   80240:	54ffff6b 	b.lt	8022c <mbox_call+0x24>  // b.tstop
   80244:	d2971400 	mov	x0, #0xb8a0                	// #47264
   80248:	f2a7e000 	movk	x0, #0x3f00, lsl #16
   8024c:	b9401fe1 	ldr	w1, [sp, #28]
   80250:	b9000001 	str	w1, [x0]
   80254:	d503201f 	nop
   80258:	d2971300 	mov	x0, #0xb898                	// #47256
   8025c:	f2a7e000 	movk	x0, #0x3f00, lsl #16
   80260:	b9400000 	ldr	w0, [x0]
   80264:	12020000 	and	w0, w0, #0x40000000
   80268:	7100001f 	cmp	w0, #0x0
   8026c:	54ffff41 	b.ne	80254 <mbox_call+0x4c>  // b.any
   80270:	d2971000 	mov	x0, #0xb880                	// #47232
   80274:	f2a7e000 	movk	x0, #0x3f00, lsl #16
   80278:	b9400000 	ldr	w0, [x0]
   8027c:	b9401fe1 	ldr	w1, [sp, #28]
   80280:	6b00003f 	cmp	w1, w0
   80284:	54fffe81 	b.ne	80254 <mbox_call+0x4c>  // b.any
   80288:	b0000000 	adrp	x0, 81000 <uart_puts+0x45c>
   8028c:	9106c000 	add	x0, x0, #0x1b0
   80290:	b9400401 	ldr	w1, [x0, #4]
   80294:	52b00000 	mov	w0, #0x80000000            	// #-2147483648
   80298:	6b00003f 	cmp	w1, w0
   8029c:	1a9f17e0 	cset	w0, eq  // eq = none
   802a0:	12001c00 	and	w0, w0, #0xff
   802a4:	910083ff 	add	sp, sp, #0x20
   802a8:	d65f03c0 	ret

00000000000802ac <set>:
   802ac:	d10043ff 	sub	sp, sp, #0x10
   802b0:	b9000fe0 	str	w0, [sp, #12]
   802b4:	b9000be1 	str	w1, [sp, #8]
   802b8:	b9400fe0 	ldr	w0, [sp, #12]
   802bc:	aa0003e1 	mov	x1, x0
   802c0:	b9400be0 	ldr	w0, [sp, #8]
   802c4:	b9000020 	str	w0, [x1]
   802c8:	d503201f 	nop
   802cc:	910043ff 	add	sp, sp, #0x10
   802d0:	d65f03c0 	ret

00000000000802d4 <reset>:
   802d4:	a9be7bfd 	stp	x29, x30, [sp, #-32]!
   802d8:	910003fd 	mov	x29, sp
   802dc:	b9001fe0 	str	w0, [sp, #28]
   802e0:	52800401 	mov	w1, #0x20                  	// #32
   802e4:	72ab4001 	movk	w1, #0x5a00, lsl #16
   802e8:	52800380 	mov	w0, #0x1c                  	// #28
   802ec:	72a7e200 	movk	w0, #0x3f10, lsl #16
   802f0:	97ffffef 	bl	802ac <set>
   802f4:	b9401fe1 	ldr	w1, [sp, #28]
   802f8:	52ab4000 	mov	w0, #0x5a000000            	// #1509949440
   802fc:	2a000020 	orr	w0, w1, w0
   80300:	2a0003e1 	mov	w1, w0
   80304:	52800480 	mov	w0, #0x24                  	// #36
   80308:	72a7e200 	movk	w0, #0x3f10, lsl #16
   8030c:	97ffffe8 	bl	802ac <set>
   80310:	d503201f 	nop
   80314:	a8c27bfd 	ldp	x29, x30, [sp], #32
   80318:	d65f03c0 	ret

000000000008031c <cancel_reset>:
   8031c:	a9bf7bfd 	stp	x29, x30, [sp, #-16]!
   80320:	910003fd 	mov	x29, sp
   80324:	52ab4001 	mov	w1, #0x5a000000            	// #1509949440
   80328:	52800380 	mov	w0, #0x1c                  	// #28
   8032c:	72a7e200 	movk	w0, #0x3f10, lsl #16
   80330:	97ffffdf 	bl	802ac <set>
   80334:	52ab4001 	mov	w1, #0x5a000000            	// #1509949440
   80338:	52800480 	mov	w0, #0x24                  	// #36
   8033c:	72a7e200 	movk	w0, #0x3f10, lsl #16
   80340:	97ffffdb 	bl	802ac <set>
   80344:	d503201f 	nop
   80348:	a8c17bfd 	ldp	x29, x30, [sp], #16
   8034c:	d65f03c0 	ret

0000000000080350 <ShellStart>:
   80350:	a9b67bfd 	stp	x29, x30, [sp, #-160]!
   80354:	910003fd 	mov	x29, sp
   80358:	b90097ff 	str	wzr, [sp, #148]
   8035c:	910043e0 	add	x0, sp, #0x10
   80360:	52801002 	mov	w2, #0x80                  	// #128
   80364:	52800001 	mov	w1, #0x0                   	// #0
   80368:	940000de 	bl	806e0 <strset>
   8036c:	90000000 	adrp	x0, 80000 <InputBufferOverflowMessage>
   80370:	9139a000 	add	x0, x0, #0xe68
   80374:	9400020c 	bl	80ba4 <uart_puts>
   80378:	940001f7 	bl	80b54 <uart_getc>
   8037c:	39027fe0 	strb	w0, [sp, #159]
   80380:	39427fe0 	ldrb	w0, [sp, #159]
   80384:	9400007d 	bl	80578 <Parse>
   80388:	b9009be0 	str	w0, [sp, #152]
   8038c:	910253e1 	add	x1, sp, #0x94
   80390:	910043e0 	add	x0, sp, #0x10
   80394:	aa0103e3 	mov	x3, x1
   80398:	aa0003e2 	mov	x2, x0
   8039c:	39427fe1 	ldrb	w1, [sp, #159]
   803a0:	b9409be0 	ldr	w0, [sp, #152]
   803a4:	94000002 	bl	803ac <CommandController>
   803a8:	17fffff4 	b	80378 <ShellStart+0x28>

00000000000803ac <CommandController>:
   803ac:	a9bd7bfd 	stp	x29, x30, [sp, #-48]!
   803b0:	910003fd 	mov	x29, sp
   803b4:	b9002fe0 	str	w0, [sp, #44]
   803b8:	3900afe1 	strb	w1, [sp, #43]
   803bc:	f90013e2 	str	x2, [sp, #32]
   803c0:	f9000fe3 	str	x3, [sp, #24]
   803c4:	b9402fe0 	ldr	w0, [sp, #44]
   803c8:	3100041f 	cmn	w0, #0x1
   803cc:	54000d00 	b.eq	8056c <CommandController+0x1c0>  // b.none
   803d0:	b9402fe0 	ldr	w0, [sp, #44]
   803d4:	7100201f 	cmp	w0, #0x8
   803d8:	54000221 	b.ne	8041c <CommandController+0x70>  // b.any
   803dc:	f9400fe0 	ldr	x0, [sp, #24]
   803e0:	b9400000 	ldr	w0, [x0]
   803e4:	7100001f 	cmp	w0, #0x0
   803e8:	540000cd 	b.le	80400 <CommandController+0x54>
   803ec:	f9400fe0 	ldr	x0, [sp, #24]
   803f0:	b9400000 	ldr	w0, [x0]
   803f4:	51000401 	sub	w1, w0, #0x1
   803f8:	f9400fe0 	ldr	x0, [sp, #24]
   803fc:	b9000001 	str	w1, [x0]
   80400:	3940afe0 	ldrb	w0, [sp, #43]
   80404:	940001c4 	bl	80b14 <uart_send>
   80408:	52800400 	mov	w0, #0x20                  	// #32
   8040c:	940001c2 	bl	80b14 <uart_send>
   80410:	3940afe0 	ldrb	w0, [sp, #43]
   80414:	940001c0 	bl	80b14 <uart_send>
   80418:	14000056 	b	80570 <CommandController+0x1c4>
   8041c:	b9402fe0 	ldr	w0, [sp, #44]
   80420:	710fa41f 	cmp	w0, #0x3e9
   80424:	54000781 	b.ne	80514 <CommandController+0x168>  // b.any
   80428:	3940afe0 	ldrb	w0, [sp, #43]
   8042c:	940001ba 	bl	80b14 <uart_send>
   80430:	f9400fe0 	ldr	x0, [sp, #24]
   80434:	b9400000 	ldr	w0, [x0]
   80438:	7102001f 	cmp	w0, #0x80
   8043c:	54000081 	b.ne	8044c <CommandController+0xa0>  // b.any
   80440:	f94013e0 	ldr	x0, [sp, #32]
   80444:	97fffeef 	bl	80000 <InputBufferOverflowMessage>
   80448:	14000029 	b	804ec <CommandController+0x140>
   8044c:	f9400fe0 	ldr	x0, [sp, #24]
   80450:	b9400000 	ldr	w0, [x0]
   80454:	93407c00 	sxtw	x0, w0
   80458:	f94013e1 	ldr	x1, [sp, #32]
   8045c:	8b000020 	add	x0, x1, x0
   80460:	3900001f 	strb	wzr, [x0]
   80464:	90000000 	adrp	x0, 80000 <InputBufferOverflowMessage>
   80468:	9139c001 	add	x1, x0, #0xe70
   8046c:	f94013e0 	ldr	x0, [sp, #32]
   80470:	9400006c 	bl	80620 <strcmp>
   80474:	7100001f 	cmp	w0, #0x0
   80478:	54000061 	b.ne	80484 <CommandController+0xd8>  // b.any
   8047c:	97fffef2 	bl	80044 <CommandHelp>
   80480:	1400001b 	b	804ec <CommandController+0x140>
   80484:	90000000 	adrp	x0, 80000 <InputBufferOverflowMessage>
   80488:	9139e001 	add	x1, x0, #0xe78
   8048c:	f94013e0 	ldr	x0, [sp, #32]
   80490:	94000064 	bl	80620 <strcmp>
   80494:	7100001f 	cmp	w0, #0x0
   80498:	54000061 	b.ne	804a4 <CommandController+0xf8>  // b.any
   8049c:	97ffff01 	bl	800a0 <CommandHello>
   804a0:	14000013 	b	804ec <CommandController+0x140>
   804a4:	90000000 	adrp	x0, 80000 <InputBufferOverflowMessage>
   804a8:	913a0001 	add	x1, x0, #0xe80
   804ac:	f94013e0 	ldr	x0, [sp, #32]
   804b0:	9400005c 	bl	80620 <strcmp>
   804b4:	7100001f 	cmp	w0, #0x0
   804b8:	54000061 	b.ne	804c4 <CommandController+0x118>  // b.any
   804bc:	97ffff01 	bl	800c0 <CommandTimestamp>
   804c0:	1400000b 	b	804ec <CommandController+0x140>
   804c4:	90000000 	adrp	x0, 80000 <InputBufferOverflowMessage>
   804c8:	913a4001 	add	x1, x0, #0xe90
   804cc:	f94013e0 	ldr	x0, [sp, #32]
   804d0:	94000054 	bl	80620 <strcmp>
   804d4:	7100001f 	cmp	w0, #0x0
   804d8:	54000061 	b.ne	804e4 <CommandController+0x138>  // b.any
   804dc:	97ffff1f 	bl	80158 <CommandReboot>
   804e0:	14000003 	b	804ec <CommandController+0x140>
   804e4:	f94013e0 	ldr	x0, [sp, #32]
   804e8:	97ffff0e 	bl	80120 <CommandNotFound>
   804ec:	f9400fe0 	ldr	x0, [sp, #24]
   804f0:	b900001f 	str	wzr, [x0]
   804f4:	52801002 	mov	w2, #0x80                  	// #128
   804f8:	52800001 	mov	w1, #0x0                   	// #0
   804fc:	f94013e0 	ldr	x0, [sp, #32]
   80500:	94000078 	bl	806e0 <strset>
   80504:	90000000 	adrp	x0, 80000 <InputBufferOverflowMessage>
   80508:	9139a000 	add	x0, x0, #0xe68
   8050c:	940001a6 	bl	80ba4 <uart_puts>
   80510:	14000018 	b	80570 <CommandController+0x1c4>
   80514:	b9402fe0 	ldr	w0, [sp, #44]
   80518:	710fa01f 	cmp	w0, #0x3e8
   8051c:	540002a1 	b.ne	80570 <CommandController+0x1c4>  // b.any
   80520:	3940afe0 	ldrb	w0, [sp, #43]
   80524:	9400017c 	bl	80b14 <uart_send>
   80528:	f9400fe0 	ldr	x0, [sp, #24]
   8052c:	b9400000 	ldr	w0, [x0]
   80530:	7101fc1f 	cmp	w0, #0x7f
   80534:	540001ec 	b.gt	80570 <CommandController+0x1c4>
   80538:	f9400fe0 	ldr	x0, [sp, #24]
   8053c:	b9400000 	ldr	w0, [x0]
   80540:	93407c00 	sxtw	x0, w0
   80544:	f94013e1 	ldr	x1, [sp, #32]
   80548:	8b000020 	add	x0, x1, x0
   8054c:	3940afe1 	ldrb	w1, [sp, #43]
   80550:	39000001 	strb	w1, [x0]
   80554:	f9400fe0 	ldr	x0, [sp, #24]
   80558:	b9400000 	ldr	w0, [x0]
   8055c:	11000401 	add	w1, w0, #0x1
   80560:	f9400fe0 	ldr	x0, [sp, #24]
   80564:	b9000001 	str	w1, [x0]
   80568:	14000002 	b	80570 <CommandController+0x1c4>
   8056c:	d503201f 	nop
   80570:	a8c37bfd 	ldp	x29, x30, [sp], #48
   80574:	d65f03c0 	ret

0000000000080578 <Parse>:
   80578:	d10043ff 	sub	sp, sp, #0x10
   8057c:	39003fe0 	strb	w0, [sp, #15]
   80580:	39c03fe0 	ldrsb	w0, [sp, #15]
   80584:	7100001f 	cmp	w0, #0x0
   80588:	5400006a 	b.ge	80594 <Parse+0x1c>  // b.tcont
   8058c:	12800000 	mov	w0, #0xffffffff            	// #-1
   80590:	1400000f 	b	805cc <Parse+0x54>
   80594:	39403fe0 	ldrb	w0, [sp, #15]
   80598:	7100201f 	cmp	w0, #0x8
   8059c:	54000061 	b.ne	805a8 <Parse+0x30>  // b.any
   805a0:	52800100 	mov	w0, #0x8                   	// #8
   805a4:	1400000a 	b	805cc <Parse+0x54>
   805a8:	39403fe0 	ldrb	w0, [sp, #15]
   805ac:	7100281f 	cmp	w0, #0xa
   805b0:	54000080 	b.eq	805c0 <Parse+0x48>  // b.none
   805b4:	39403fe0 	ldrb	w0, [sp, #15]
   805b8:	7100341f 	cmp	w0, #0xd
   805bc:	54000061 	b.ne	805c8 <Parse+0x50>  // b.any
   805c0:	52807d20 	mov	w0, #0x3e9                 	// #1001
   805c4:	14000002 	b	805cc <Parse+0x54>
   805c8:	52807d00 	mov	w0, #0x3e8                 	// #1000
   805cc:	910043ff 	add	sp, sp, #0x10
   805d0:	d65f03c0 	ret
   805d4:	00000000 	udf	#0

00000000000805d8 <_start>:
   805d8:	58000180 	ldr	x0, 80608 <memzero+0x20>
   805dc:	580001a1 	ldr	x1, 80610 <memzero+0x28>
   805e0:	eb000021 	subs	x1, x1, x0
   805e4:	54000089 	b.ls	805f4 <memzero+0xc>  // b.plast

00000000000805e8 <memzero>:
   805e8:	f800841f 	str	xzr, [x0], #8
   805ec:	f1002021 	subs	x1, x1, #0x8
   805f0:	54ffffcc 	b.gt	805e8 <memzero>
   805f4:	58000120 	ldr	x0, 80618 <memzero+0x30>
   805f8:	9100001f 	mov	sp, x0
   805fc:	97fffedf 	bl	80178 <main>
   80600:	14000000 	b	80600 <memzero+0x18>
   80604:	00000000 	udf	#0
   80608:	000811b0 	.inst	0x000811b0 ; undefined
   8060c:	00000000 	udf	#0
   80610:	00081240 	.inst	0x00081240 ; undefined
   80614:	00000000 	udf	#0
   80618:	00082240 	.inst	0x00082240 ; undefined
   8061c:	00000000 	udf	#0

0000000000080620 <strcmp>:
   80620:	a9bd7bfd 	stp	x29, x30, [sp, #-48]!
   80624:	910003fd 	mov	x29, sp
   80628:	f9000fe0 	str	x0, [sp, #24]
   8062c:	f9000be1 	str	x1, [sp, #16]
   80630:	b9002fff 	str	wzr, [sp, #44]
   80634:	14000019 	b	80698 <strcmp+0x78>
   80638:	b9802fe0 	ldrsw	x0, [sp, #44]
   8063c:	f9400fe1 	ldr	x1, [sp, #24]
   80640:	8b000020 	add	x0, x1, x0
   80644:	39400001 	ldrb	w1, [x0]
   80648:	b9802fe0 	ldrsw	x0, [sp, #44]
   8064c:	f9400be2 	ldr	x2, [sp, #16]
   80650:	8b000040 	add	x0, x2, x0
   80654:	39400000 	ldrb	w0, [x0]
   80658:	6b00003f 	cmp	w1, w0
   8065c:	54000180 	b.eq	8068c <strcmp+0x6c>  // b.none
   80660:	b9802fe0 	ldrsw	x0, [sp, #44]
   80664:	f9400fe1 	ldr	x1, [sp, #24]
   80668:	8b000020 	add	x0, x1, x0
   8066c:	39400000 	ldrb	w0, [x0]
   80670:	2a0003e2 	mov	w2, w0
   80674:	b9802fe0 	ldrsw	x0, [sp, #44]
   80678:	f9400be1 	ldr	x1, [sp, #16]
   8067c:	8b000020 	add	x0, x1, x0
   80680:	39400000 	ldrb	w0, [x0]
   80684:	4b000040 	sub	w0, w2, w0
   80688:	14000014 	b	806d8 <strcmp+0xb8>
   8068c:	b9402fe0 	ldr	w0, [sp, #44]
   80690:	11000400 	add	w0, w0, #0x1
   80694:	b9002fe0 	str	w0, [sp, #44]
   80698:	f9400fe0 	ldr	x0, [sp, #24]
   8069c:	94000028 	bl	8073c <strlen>
   806a0:	2a0003e1 	mov	w1, w0
   806a4:	b9402fe0 	ldr	w0, [sp, #44]
   806a8:	6b01001f 	cmp	w0, w1
   806ac:	54fffc6b 	b.lt	80638 <strcmp+0x18>  // b.tstop
   806b0:	b9802fe0 	ldrsw	x0, [sp, #44]
   806b4:	f9400fe1 	ldr	x1, [sp, #24]
   806b8:	8b000020 	add	x0, x1, x0
   806bc:	39400000 	ldrb	w0, [x0]
   806c0:	2a0003e2 	mov	w2, w0
   806c4:	b9802fe0 	ldrsw	x0, [sp, #44]
   806c8:	f9400be1 	ldr	x1, [sp, #16]
   806cc:	8b000020 	add	x0, x1, x0
   806d0:	39400000 	ldrb	w0, [x0]
   806d4:	4b000040 	sub	w0, w2, w0
   806d8:	a8c37bfd 	ldp	x29, x30, [sp], #48
   806dc:	d65f03c0 	ret

00000000000806e0 <strset>:
   806e0:	d10083ff 	sub	sp, sp, #0x20
   806e4:	f90007e0 	str	x0, [sp, #8]
   806e8:	b90007e1 	str	w1, [sp, #4]
   806ec:	b90003e2 	str	w2, [sp]
   806f0:	b9001fff 	str	wzr, [sp, #28]
   806f4:	1400000a 	b	8071c <strset+0x3c>
   806f8:	b9801fe0 	ldrsw	x0, [sp, #28]
   806fc:	f94007e1 	ldr	x1, [sp, #8]
   80700:	8b000020 	add	x0, x1, x0
   80704:	b94007e1 	ldr	w1, [sp, #4]
   80708:	12001c21 	and	w1, w1, #0xff
   8070c:	39000001 	strb	w1, [x0]
   80710:	b9401fe0 	ldr	w0, [sp, #28]
   80714:	11000400 	add	w0, w0, #0x1
   80718:	b9001fe0 	str	w0, [sp, #28]
   8071c:	b9401fe1 	ldr	w1, [sp, #28]
   80720:	b94003e0 	ldr	w0, [sp]
   80724:	6b00003f 	cmp	w1, w0
   80728:	54fffe8b 	b.lt	806f8 <strset+0x18>  // b.tstop
   8072c:	d503201f 	nop
   80730:	d503201f 	nop
   80734:	910083ff 	add	sp, sp, #0x20
   80738:	d65f03c0 	ret

000000000008073c <strlen>:
   8073c:	d10083ff 	sub	sp, sp, #0x20
   80740:	f90007e0 	str	x0, [sp, #8]
   80744:	b9001fff 	str	wzr, [sp, #28]
   80748:	b9801fe0 	ldrsw	x0, [sp, #28]
   8074c:	f94007e1 	ldr	x1, [sp, #8]
   80750:	8b000020 	add	x0, x1, x0
   80754:	39400000 	ldrb	w0, [x0]
   80758:	7100001f 	cmp	w0, #0x0
   8075c:	540000a0 	b.eq	80770 <strlen+0x34>  // b.none
   80760:	b9401fe0 	ldr	w0, [sp, #28]
   80764:	11000400 	add	w0, w0, #0x1
   80768:	b9001fe0 	str	w0, [sp, #28]
   8076c:	17fffff7 	b	80748 <strlen+0xc>
   80770:	d503201f 	nop
   80774:	b9401fe0 	ldr	w0, [sp, #28]
   80778:	910083ff 	add	sp, sp, #0x20
   8077c:	d65f03c0 	ret

0000000000080780 <itoa>:
   80780:	a9bd7bfd 	stp	x29, x30, [sp, #-48]!
   80784:	910003fd 	mov	x29, sp
   80788:	b9001fe0 	str	w0, [sp, #28]
   8078c:	f9000be1 	str	x1, [sp, #16]
   80790:	b9001be2 	str	w2, [sp, #24]
   80794:	b9002fff 	str	wzr, [sp, #44]
   80798:	14000021 	b	8081c <itoa+0x9c>
   8079c:	b9401fe1 	ldr	w1, [sp, #28]
   807a0:	528ccce0 	mov	w0, #0x6667                	// #26215
   807a4:	72acccc0 	movk	w0, #0x6666, lsl #16
   807a8:	9b207c20 	smull	x0, w1, w0
   807ac:	d360fc00 	lsr	x0, x0, #32
   807b0:	13027c02 	asr	w2, w0, #2
   807b4:	131f7c20 	asr	w0, w1, #31
   807b8:	4b000042 	sub	w2, w2, w0
   807bc:	2a0203e0 	mov	w0, w2
   807c0:	531e7400 	lsl	w0, w0, #2
   807c4:	0b020000 	add	w0, w0, w2
   807c8:	531f7800 	lsl	w0, w0, #1
   807cc:	4b000022 	sub	w2, w1, w0
   807d0:	12001c41 	and	w1, w2, #0xff
   807d4:	b9402fe0 	ldr	w0, [sp, #44]
   807d8:	11000402 	add	w2, w0, #0x1
   807dc:	b9002fe2 	str	w2, [sp, #44]
   807e0:	93407c00 	sxtw	x0, w0
   807e4:	f9400be2 	ldr	x2, [sp, #16]
   807e8:	8b000040 	add	x0, x2, x0
   807ec:	1100c021 	add	w1, w1, #0x30
   807f0:	12001c21 	and	w1, w1, #0xff
   807f4:	39000001 	strb	w1, [x0]
   807f8:	b9401fe0 	ldr	w0, [sp, #28]
   807fc:	528ccce1 	mov	w1, #0x6667                	// #26215
   80800:	72acccc1 	movk	w1, #0x6666, lsl #16
   80804:	9b217c01 	smull	x1, w0, w1
   80808:	d360fc21 	lsr	x1, x1, #32
   8080c:	13027c21 	asr	w1, w1, #2
   80810:	131f7c00 	asr	w0, w0, #31
   80814:	4b000020 	sub	w0, w1, w0
   80818:	b9001fe0 	str	w0, [sp, #28]
   8081c:	b9401fe0 	ldr	w0, [sp, #28]
   80820:	7100001f 	cmp	w0, #0x0
   80824:	54fffbc1 	b.ne	8079c <itoa+0x1c>  // b.any
   80828:	14000009 	b	8084c <itoa+0xcc>
   8082c:	b9402fe0 	ldr	w0, [sp, #44]
   80830:	11000401 	add	w1, w0, #0x1
   80834:	b9002fe1 	str	w1, [sp, #44]
   80838:	93407c00 	sxtw	x0, w0
   8083c:	f9400be1 	ldr	x1, [sp, #16]
   80840:	8b000020 	add	x0, x1, x0
   80844:	52800601 	mov	w1, #0x30                  	// #48
   80848:	39000001 	strb	w1, [x0]
   8084c:	b9402fe1 	ldr	w1, [sp, #44]
   80850:	b9401be0 	ldr	w0, [sp, #24]
   80854:	6b00003f 	cmp	w1, w0
   80858:	54fffeab 	b.lt	8082c <itoa+0xac>  // b.tstop
   8085c:	b9802fe0 	ldrsw	x0, [sp, #44]
   80860:	f9400be1 	ldr	x1, [sp, #16]
   80864:	8b000020 	add	x0, x1, x0
   80868:	3900001f 	strb	wzr, [x0]
   8086c:	f9400be0 	ldr	x0, [sp, #16]
   80870:	94000034 	bl	80940 <reverse>
   80874:	d503201f 	nop
   80878:	a8c37bfd 	ldp	x29, x30, [sp], #48
   8087c:	d65f03c0 	ret

0000000000080880 <ftoa>:
   80880:	a9bd7bfd 	stp	x29, x30, [sp, #-48]!
   80884:	910003fd 	mov	x29, sp
   80888:	bd001fe0 	str	s0, [sp, #28]
   8088c:	f9000be0 	str	x0, [sp, #16]
   80890:	b9001be1 	str	w1, [sp, #24]
   80894:	bd401fe0 	ldr	s0, [sp, #28]
   80898:	5ea1b800 	fcvtzs	s0, s0
   8089c:	bd002fe0 	str	s0, [sp, #44]
   808a0:	bd402fe0 	ldr	s0, [sp, #44]
   808a4:	5e21d800 	scvtf	s0, s0
   808a8:	bd401fe1 	ldr	s1, [sp, #28]
   808ac:	1e203820 	fsub	s0, s1, s0
   808b0:	bd002be0 	str	s0, [sp, #40]
   808b4:	52800002 	mov	w2, #0x0                   	// #0
   808b8:	f9400be1 	ldr	x1, [sp, #16]
   808bc:	b9402fe0 	ldr	w0, [sp, #44]
   808c0:	97ffffb0 	bl	80780 <itoa>
   808c4:	f9400be0 	ldr	x0, [sp, #16]
   808c8:	97ffff9d 	bl	8073c <strlen>
   808cc:	b90027e0 	str	w0, [sp, #36]
   808d0:	b9401be0 	ldr	w0, [sp, #24]
   808d4:	7100001f 	cmp	w0, #0x0
   808d8:	540002e0 	b.eq	80934 <ftoa+0xb4>  // b.none
   808dc:	b98027e0 	ldrsw	x0, [sp, #36]
   808e0:	f9400be1 	ldr	x1, [sp, #16]
   808e4:	8b000020 	add	x0, x1, x0
   808e8:	528005c1 	mov	w1, #0x2e                  	// #46
   808ec:	39000001 	strb	w1, [x0]
   808f0:	b9401be1 	ldr	w1, [sp, #24]
   808f4:	52800140 	mov	w0, #0xa                   	// #10
   808f8:	97fffe31 	bl	801bc <pow>
   808fc:	1e220000 	scvtf	s0, w0
   80900:	bd402be1 	ldr	s1, [sp, #40]
   80904:	1e200820 	fmul	s0, s1, s0
   80908:	bd002be0 	str	s0, [sp, #40]
   8090c:	bd402be0 	ldr	s0, [sp, #40]
   80910:	1e380003 	fcvtzs	w3, s0
   80914:	b98027e0 	ldrsw	x0, [sp, #36]
   80918:	91000400 	add	x0, x0, #0x1
   8091c:	f9400be1 	ldr	x1, [sp, #16]
   80920:	8b000020 	add	x0, x1, x0
   80924:	b9401be2 	ldr	w2, [sp, #24]
   80928:	aa0003e1 	mov	x1, x0
   8092c:	2a0303e0 	mov	w0, w3
   80930:	97ffff94 	bl	80780 <itoa>
   80934:	d503201f 	nop
   80938:	a8c37bfd 	ldp	x29, x30, [sp], #48
   8093c:	d65f03c0 	ret

0000000000080940 <reverse>:
   80940:	a9bd7bfd 	stp	x29, x30, [sp, #-48]!
   80944:	910003fd 	mov	x29, sp
   80948:	f9000fe0 	str	x0, [sp, #24]
   8094c:	b9002fff 	str	wzr, [sp, #44]
   80950:	1400001e 	b	809c8 <reverse+0x88>
   80954:	f9400fe0 	ldr	x0, [sp, #24]
   80958:	97ffff79 	bl	8073c <strlen>
   8095c:	2a0003e1 	mov	w1, w0
   80960:	b9402fe0 	ldr	w0, [sp, #44]
   80964:	4b000020 	sub	w0, w1, w0
   80968:	93407c00 	sxtw	x0, w0
   8096c:	d1000400 	sub	x0, x0, #0x1
   80970:	f9400fe1 	ldr	x1, [sp, #24]
   80974:	8b000020 	add	x0, x1, x0
   80978:	39400000 	ldrb	w0, [x0]
   8097c:	3900afe0 	strb	w0, [sp, #43]
   80980:	f9400fe0 	ldr	x0, [sp, #24]
   80984:	97ffff6e 	bl	8073c <strlen>
   80988:	2a0003e1 	mov	w1, w0
   8098c:	b9402fe0 	ldr	w0, [sp, #44]
   80990:	4b000020 	sub	w0, w1, w0
   80994:	93407c00 	sxtw	x0, w0
   80998:	d1000400 	sub	x0, x0, #0x1
   8099c:	f9400fe1 	ldr	x1, [sp, #24]
   809a0:	8b000020 	add	x0, x1, x0
   809a4:	f9400fe1 	ldr	x1, [sp, #24]
   809a8:	39400021 	ldrb	w1, [x1]
   809ac:	39000001 	strb	w1, [x0]
   809b0:	f9400fe0 	ldr	x0, [sp, #24]
   809b4:	3940afe1 	ldrb	w1, [sp, #43]
   809b8:	39000001 	strb	w1, [x0]
   809bc:	b9402fe0 	ldr	w0, [sp, #44]
   809c0:	11000400 	add	w0, w0, #0x1
   809c4:	b9002fe0 	str	w0, [sp, #44]
   809c8:	f9400fe0 	ldr	x0, [sp, #24]
   809cc:	97ffff5c 	bl	8073c <strlen>
   809d0:	531f7c01 	lsr	w1, w0, #31
   809d4:	0b000020 	add	w0, w1, w0
   809d8:	13017c00 	asr	w0, w0, #1
   809dc:	2a0003e1 	mov	w1, w0
   809e0:	b9402fe0 	ldr	w0, [sp, #44]
   809e4:	6b01001f 	cmp	w0, w1
   809e8:	54fffb6b 	b.lt	80954 <reverse+0x14>  // b.tstop
   809ec:	d503201f 	nop
   809f0:	d503201f 	nop
   809f4:	a8c37bfd 	ldp	x29, x30, [sp], #48
   809f8:	d65f03c0 	ret

00000000000809fc <uart_init>:
   809fc:	f81f0ff3 	str	x19, [sp, #-16]!
   80a00:	d28a0080 	mov	x0, #0x5004                	// #20484
   80a04:	f2a7e420 	movk	x0, #0x3f21, lsl #16
   80a08:	b9400001 	ldr	w1, [x0]
   80a0c:	d28a0080 	mov	x0, #0x5004                	// #20484
   80a10:	f2a7e420 	movk	x0, #0x3f21, lsl #16
   80a14:	32000021 	orr	w1, w1, #0x1
   80a18:	b9000001 	str	w1, [x0]
   80a1c:	d28a0c00 	mov	x0, #0x5060                	// #20576
   80a20:	f2a7e420 	movk	x0, #0x3f21, lsl #16
   80a24:	b900001f 	str	wzr, [x0]
   80a28:	d28a0980 	mov	x0, #0x504c                	// #20556
   80a2c:	f2a7e420 	movk	x0, #0x3f21, lsl #16
   80a30:	52800061 	mov	w1, #0x3                   	// #3
   80a34:	b9000001 	str	w1, [x0]
   80a38:	d28a0a00 	mov	x0, #0x5050                	// #20560
   80a3c:	f2a7e420 	movk	x0, #0x3f21, lsl #16
   80a40:	b900001f 	str	wzr, [x0]
   80a44:	d28a0880 	mov	x0, #0x5044                	// #20548
   80a48:	f2a7e420 	movk	x0, #0x3f21, lsl #16
   80a4c:	b900001f 	str	wzr, [x0]
   80a50:	d28a0900 	mov	x0, #0x5048                	// #20552
   80a54:	f2a7e420 	movk	x0, #0x3f21, lsl #16
   80a58:	528018c1 	mov	w1, #0xc6                  	// #198
   80a5c:	b9000001 	str	w1, [x0]
   80a60:	d28a0d00 	mov	x0, #0x5068                	// #20584
   80a64:	f2a7e420 	movk	x0, #0x3f21, lsl #16
   80a68:	528021c1 	mov	w1, #0x10e                 	// #270
   80a6c:	b9000001 	str	w1, [x0]
   80a70:	d2800080 	mov	x0, #0x4                   	// #4
   80a74:	f2a7e400 	movk	x0, #0x3f20, lsl #16
   80a78:	b9400013 	ldr	w19, [x0]
   80a7c:	120e6673 	and	w19, w19, #0xfffc0fff
   80a80:	52840000 	mov	w0, #0x2000                	// #8192
   80a84:	72a00020 	movk	w0, #0x1, lsl #16
   80a88:	2a000273 	orr	w19, w19, w0
   80a8c:	d2800080 	mov	x0, #0x4                   	// #4
   80a90:	f2a7e400 	movk	x0, #0x3f20, lsl #16
   80a94:	b9000013 	str	w19, [x0]
   80a98:	d2801280 	mov	x0, #0x94                  	// #148
   80a9c:	f2a7e400 	movk	x0, #0x3f20, lsl #16
   80aa0:	b900001f 	str	wzr, [x0]
   80aa4:	528012d3 	mov	w19, #0x96                  	// #150
   80aa8:	14000002 	b	80ab0 <uart_init+0xb4>
   80aac:	d503201f 	nop
   80ab0:	2a1303e0 	mov	w0, w19
   80ab4:	51000413 	sub	w19, w0, #0x1
   80ab8:	7100001f 	cmp	w0, #0x0
   80abc:	54ffff81 	b.ne	80aac <uart_init+0xb0>  // b.any
   80ac0:	d2801300 	mov	x0, #0x98                  	// #152
   80ac4:	f2a7e400 	movk	x0, #0x3f20, lsl #16
   80ac8:	52980001 	mov	w1, #0xc000                	// #49152
   80acc:	b9000001 	str	w1, [x0]
   80ad0:	528012d3 	mov	w19, #0x96                  	// #150
   80ad4:	14000002 	b	80adc <uart_init+0xe0>
   80ad8:	d503201f 	nop
   80adc:	2a1303e0 	mov	w0, w19
   80ae0:	51000413 	sub	w19, w0, #0x1
   80ae4:	7100001f 	cmp	w0, #0x0
   80ae8:	54ffff81 	b.ne	80ad8 <uart_init+0xdc>  // b.any
   80aec:	d2801300 	mov	x0, #0x98                  	// #152
   80af0:	f2a7e400 	movk	x0, #0x3f20, lsl #16
   80af4:	b900001f 	str	wzr, [x0]
   80af8:	d28a0c00 	mov	x0, #0x5060                	// #20576
   80afc:	f2a7e420 	movk	x0, #0x3f21, lsl #16
   80b00:	52800061 	mov	w1, #0x3                   	// #3
   80b04:	b9000001 	str	w1, [x0]
   80b08:	d503201f 	nop
   80b0c:	f84107f3 	ldr	x19, [sp], #16
   80b10:	d65f03c0 	ret

0000000000080b14 <uart_send>:
   80b14:	d10043ff 	sub	sp, sp, #0x10
   80b18:	b9000fe0 	str	w0, [sp, #12]
   80b1c:	d503201f 	nop
   80b20:	d28a0a80 	mov	x0, #0x5054                	// #20564
   80b24:	f2a7e420 	movk	x0, #0x3f21, lsl #16
   80b28:	b9400000 	ldr	w0, [x0]
   80b2c:	121b0000 	and	w0, w0, #0x20
   80b30:	7100001f 	cmp	w0, #0x0
   80b34:	54ffff40 	b.eq	80b1c <uart_send+0x8>  // b.none
   80b38:	d28a0800 	mov	x0, #0x5040                	// #20544
   80b3c:	f2a7e420 	movk	x0, #0x3f21, lsl #16
   80b40:	b9400fe1 	ldr	w1, [sp, #12]
   80b44:	b9000001 	str	w1, [x0]
   80b48:	d503201f 	nop
   80b4c:	910043ff 	add	sp, sp, #0x10
   80b50:	d65f03c0 	ret

0000000000080b54 <uart_getc>:
   80b54:	d10043ff 	sub	sp, sp, #0x10
   80b58:	d503201f 	nop
   80b5c:	d28a0a80 	mov	x0, #0x5054                	// #20564
   80b60:	f2a7e420 	movk	x0, #0x3f21, lsl #16
   80b64:	b9400000 	ldr	w0, [x0]
   80b68:	12000000 	and	w0, w0, #0x1
   80b6c:	7100001f 	cmp	w0, #0x0
   80b70:	54ffff40 	b.eq	80b58 <uart_getc+0x4>  // b.none
   80b74:	d28a0800 	mov	x0, #0x5040                	// #20544
   80b78:	f2a7e420 	movk	x0, #0x3f21, lsl #16
   80b7c:	b9400000 	ldr	w0, [x0]
   80b80:	39003fe0 	strb	w0, [sp, #15]
   80b84:	39403fe0 	ldrb	w0, [sp, #15]
   80b88:	7100341f 	cmp	w0, #0xd
   80b8c:	54000060 	b.eq	80b98 <uart_getc+0x44>  // b.none
   80b90:	39403fe0 	ldrb	w0, [sp, #15]
   80b94:	14000002 	b	80b9c <uart_getc+0x48>
   80b98:	52800140 	mov	w0, #0xa                   	// #10
   80b9c:	910043ff 	add	sp, sp, #0x10
   80ba0:	d65f03c0 	ret

0000000000080ba4 <uart_puts>:
   80ba4:	a9be7bfd 	stp	x29, x30, [sp, #-32]!
   80ba8:	910003fd 	mov	x29, sp
   80bac:	f9000fe0 	str	x0, [sp, #24]
   80bb0:	1400000c 	b	80be0 <uart_puts+0x3c>
   80bb4:	f9400fe0 	ldr	x0, [sp, #24]
   80bb8:	39400000 	ldrb	w0, [x0]
   80bbc:	7100281f 	cmp	w0, #0xa
   80bc0:	54000061 	b.ne	80bcc <uart_puts+0x28>  // b.any
   80bc4:	528001a0 	mov	w0, #0xd                   	// #13
   80bc8:	97ffffd3 	bl	80b14 <uart_send>
   80bcc:	f9400fe0 	ldr	x0, [sp, #24]
   80bd0:	91000401 	add	x1, x0, #0x1
   80bd4:	f9000fe1 	str	x1, [sp, #24]
   80bd8:	39400000 	ldrb	w0, [x0]
   80bdc:	97ffffce 	bl	80b14 <uart_send>
   80be0:	f9400fe0 	ldr	x0, [sp, #24]
   80be4:	39400000 	ldrb	w0, [x0]
   80be8:	7100001f 	cmp	w0, #0x0
   80bec:	54fffe41 	b.ne	80bb4 <uart_puts+0x10>  // b.any
   80bf0:	d503201f 	nop
   80bf4:	d503201f 	nop
   80bf8:	a8c27bfd 	ldp	x29, x30, [sp], #32
   80bfc:	d65f03c0 	ret

Disassembly of section .rodata:

0000000000080c00 <.rodata>:
   80c00:	6c6c6f46 	ldnp	d6, d27, [x26, #-320]
   80c04:	6320776f 	.inst	0x6320776f ; undefined
   80c08:	616d6d6f 	.inst	0x616d6d6f ; undefined
   80c0c:	203a646e 	.inst	0x203a646e ; undefined
   80c10:	00000022 	udf	#34
   80c14:	00000000 	udf	#0
   80c18:	2e2e2e22 	uqsub	v2.8b, v17.8b, v14.8b
   80c1c:	20736920 	.inst	0x20736920 ; undefined
   80c20:	206f6f74 	.inst	0x206f6f74 ; undefined
   80c24:	676e6f6c 	.inst	0x676e6f6c ; undefined
   80c28:	206f7420 	.inst	0x206f7420 ; undefined
   80c2c:	636f7270 	.inst	0x636f7270 ; undefined
   80c30:	2e737365 	uabdl	v5.4s, v27.4h, v19.4h
   80c34:	0000000a 	udf	#10
   80c38:	20656854 	.inst	0x20656854 ; undefined
   80c3c:	6978616d 	ldpsw	x13, x24, [x11, #-64]
   80c40:	206d756d 	.inst	0x206d756d ; undefined
   80c44:	676e656c 	.inst	0x676e656c ; undefined
   80c48:	6f206874 	.inst	0x6f206874 ; undefined
   80c4c:	6e692066 	usubl2	v6.4s, v3.8h, v9.8h
   80c50:	20747570 	.inst	0x20747570 ; undefined
   80c54:	36207369 	tbz	w9, #4, 81ac0 <bss_end+0x880>
   80c58:	00002e34 	udf	#11828
   80c5c:	00000000 	udf	#0
   80c60:	0000000a 	udf	#10
   80c64:	00000000 	udf	#0
   80c68:	696c6156 	ldpsw	x22, x24, [x10, #-160]
   80c6c:	6f432064 	umlal2	v4.4s, v3.8h, v3.h[0]
   80c70:	6e616d6d 	umin	v13.8h, v11.8h, v1.8h
   80c74:	000a3a64 	.inst	0x000a3a64 ; undefined
   80c78:	6c656809 	ldnp	d9, d26, [x0, #-432]
   80c7c:	09093a70 	.inst	0x09093a70 ; undefined
   80c80:	6e697270 	uabdl2	v16.4s, v19.8h, v9.8h
   80c84:	68742074 	.inst	0x68742074 ; undefined
   80c88:	68207369 	.inst	0x68207369 ; undefined
   80c8c:	2e706c65 	umin	v5.4h, v3.4h, v16.4h
   80c90:	0000000a 	udf	#10
   80c94:	00000000 	udf	#0
   80c98:	6c656809 	ldnp	d9, d26, [x0, #-432]
   80c9c:	093a6f6c 	.inst	0x093a6f6c ; undefined
   80ca0:	69727009 	ldpsw	x9, x28, [x0, #-112]
   80ca4:	2220746e 	.inst	0x2220746e ; undefined
   80ca8:	6c6c6548 	ldnp	d8, d25, [x10, #-320]
   80cac:	6f57206f 	umlal2	v15.4s, v3.8h, v7.h[1]
   80cb0:	21646c72 	.inst	0x21646c72 ; undefined
   80cb4:	00000a22 	udf	#2594
   80cb8:	6d697409 	ldp	d9, d29, [x0, #-368]
   80cbc:	61747365 	.inst	0x61747365 ; undefined
   80cc0:	093a706d 	.inst	0x093a706d ; undefined
   80cc4:	20746567 	.inst	0x20746567 ; undefined
   80cc8:	72727563 	.inst	0x72727563 ; undefined
   80ccc:	20746e65 	.inst	0x20746e65 ; undefined
   80cd0:	656d6974 	fnmls	z20.h, p2/m, z11.h, z13.h
   80cd4:	6d617473 	ldp	d19, d29, [x3, #-496]
   80cd8:	000a2e70 	.inst	0x000a2e70 ; undefined
   80cdc:	00000000 	udf	#0
   80ce0:	6c6c6548 	ldnp	d8, d25, [x10, #-320]
   80ce4:	6f57206f 	umlal2	v15.4s, v3.8h, v7.h[1]
   80ce8:	21646c72 	.inst	0x21646c72 ; undefined
   80cec:	0000000a 	udf	#10
   80cf0:	00000a5d 	udf	#2653
   80cf4:	00000000 	udf	#0
   80cf8:	3a727245 	.inst	0x3a727245 ; undefined
   80cfc:	6d6f6320 	ldp	d0, d24, [x25, #-272]
   80d00:	646e616d 	.inst	0x646e616d ; undefined
   80d04:	00000020 	udf	#32
   80d08:	746f6e20 	.inst	0x746f6e20 ; undefined
   80d0c:	756f6620 	.inst	0x756f6620 ; undefined
   80d10:	202c646e 	.inst	0x202c646e ; undefined
   80d14:	20797274 	.inst	0x20797274 ; undefined
   80d18:	6c65683c 	ldnp	d28, d26, [x1, #-432]
   80d1c:	000a3e70 	.inst	0x000a3e70 ; undefined
   80d20:	205f200a 	.inst	0x205f200a ; undefined
   80d24:	205f2020 	.inst	0x205f2020 ; undefined
   80d28:	20202020 	.inst	0x20202020 ; undefined
   80d2c:	5f205f20 	.inst	0x5f205f20 ; undefined
   80d30:	20202020 	.inst	0x20202020 ; undefined
   80d34:	20202020 	.inst	0x20202020 ; undefined
   80d38:	205f5f20 	.inst	0x205f5f20 ; undefined
   80d3c:	20202020 	.inst	0x20202020 ; undefined
   80d40:	5f202020 	.inst	0x5f202020 ; undefined
   80d44:	2020205f 	.inst	0x2020205f ; undefined
   80d48:	20202020 	.inst	0x20202020 ; undefined
   80d4c:	205f2020 	.inst	0x205f2020 ; undefined
   80d50:	20202020 	.inst	0x20202020 ; undefined
   80d54:	7c0a205f 	stur	h31, [x2, #162]
   80d58:	7c207c20 	.inst	0x7c207c20 ; undefined
   80d5c:	5f207c20 	.inst	0x5f207c20 ; undefined
   80d60:	207c5f5f 	.inst	0x207c5f5f ; undefined
   80d64:	207c207c 	.inst	0x207c207c ; undefined
   80d68:	205f5f5f 	.inst	0x205f5f5f ; undefined
   80d6c:	5c202020 	ldr	d0, c1170 <__stack_top+0x3ef30>
   80d70:	20205c20 	.inst	0x20205c20 ; undefined
   80d74:	20202020 	.inst	0x20202020 ; undefined
   80d78:	5f2f202f 	.inst	0x5f2f202f ; undefined
   80d7c:	5f20205f 	.inst	0x5f20205f ; undefined
   80d80:	7c5f5f20 	ldr	h0, [x25, #-11]!
   80d84:	5f207c20 	.inst	0x5f207c20 ; undefined
   80d88:	7c207c5f 	.inst	0x7c207c5f ; undefined
   80d8c:	7c207c0a 	.inst	0x7c207c0a ; undefined
   80d90:	7c207c5f 	.inst	0x7c207c5f ; undefined
   80d94:	205f202f 	.inst	0x205f202f ; undefined
   80d98:	207c205c 	.inst	0x207c205c ; undefined
   80d9c:	5f202f7c 	.inst	0x5f202f7c ; undefined
   80da0:	20205c20 	.inst	0x20205c20 ; undefined
   80da4:	205c2020 	.inst	0x205c2020 ; undefined
   80da8:	5c2f205c 	ldr	d28, df1b0 <__stack_top+0x5cf70>
   80dac:	2f202f20 	.inst	0x2f202f20 ; undefined
   80db0:	5c205f20 	ldr	d0, c1994 <__stack_top+0x3f754>
   80db4:	5f27207c 	.inst	0x5f27207c ; undefined
   80db8:	7c207c5f 	.inst	0x7c207c5f ; undefined
   80dbc:	605f202f 	.inst	0x605f202f ; undefined
   80dc0:	7c0a7c20 	str	h0, [x1, #167]!
   80dc4:	205f2020 	.inst	0x205f2020 ; undefined
   80dc8:	20207c20 	.inst	0x20207c20 ; undefined
   80dcc:	202f5f5f 	.inst	0x202f5f5f ; undefined
   80dd0:	207c207c 	.inst	0x207c207c ; undefined
   80dd4:	20295f28 	.inst	0x20295f28 ; undefined
   80dd8:	2020207c 	.inst	0x2020207c ; undefined
   80ddc:	56205c20 	.inst	0x56205c20 ; undefined
   80de0:	20562020 	.inst	0x20562020 ; undefined
   80de4:	5f28202f 	.inst	0x5f28202f ; undefined
   80de8:	207c2029 	.inst	0x207c2029 ; undefined
   80dec:	7c20207c 	.inst	0x7c20207c ; undefined
   80df0:	28207c20 	stnp	w0, wzr, [x1, #-256]
   80df4:	7c207c5f 	.inst	0x7c207c5f ; undefined
   80df8:	7c5f7c0a 	ldr	h10, [x0, #-9]!
   80dfc:	7c5f7c20 	ldr	h0, [x1, #-9]!
   80e00:	5f5f5f5c 	.inst	0x5f5f5f5c ; undefined
   80e04:	5f7c5f7c 	.inst	0x5f7c5f7c ; undefined
   80e08:	5f5f5c7c 	.inst	0x5f5f5c7c ; undefined
   80e0c:	2920285f 	stp	wzr, w10, [x2, #-256]
   80e10:	20202020 	.inst	0x20202020 ; undefined
   80e14:	5c2f5f5c 	ldr	d28, df9fc <__stack_top+0x5d7bc>
   80e18:	5c202f5f 	ldr	d31, c1400 <__stack_top+0x3f1c0>
   80e1c:	2f5f5f5f 	.inst	0x2f5f5f5f ; undefined
   80e20:	207c5f7c 	.inst	0x207c5f7c ; undefined
   80e24:	7c5f7c20 	ldr	h0, [x1, #-9]!
   80e28:	2c5f5f5c 	ldnp	s28, s23, [x26, #248]
   80e2c:	200a7c5f 	.inst	0x200a7c5f ; undefined
   80e30:	20202020 	.inst	0x20202020 ; undefined
   80e34:	20202020 	.inst	0x20202020 ; undefined
   80e38:	20202020 	.inst	0x20202020 ; undefined
   80e3c:	20202020 	.inst	0x20202020 ; undefined
   80e40:	7c202020 	.inst	0x7c202020 ; undefined
   80e44:	2020202f 	.inst	0x2020202f ; undefined
   80e48:	20202020 	.inst	0x20202020 ; undefined
   80e4c:	20202020 	.inst	0x20202020 ; undefined
   80e50:	20202020 	.inst	0x20202020 ; undefined
   80e54:	20202020 	.inst	0x20202020 ; undefined
   80e58:	20202020 	.inst	0x20202020 ; undefined
   80e5c:	20202020 	.inst	0x20202020 ; undefined
   80e60:	20202020 	.inst	0x20202020 ; undefined
   80e64:	0000000a 	udf	#10
   80e68:	00002023 	udf	#8227
   80e6c:	00000000 	udf	#0
   80e70:	706c6568 	adr	x8, 159b1f <__stack_top+0xd78df>
   80e74:	00000000 	udf	#0
   80e78:	6c6c6568 	ldnp	d8, d25, [x11, #-320]
   80e7c:	0000006f 	udf	#111
   80e80:	656d6974 	fnmls	z20.h, p2/m, z11.h, z13.h
   80e84:	6d617473 	ldp	d19, d29, [x3, #-496]
   80e88:	00000070 	udf	#112
   80e8c:	00000000 	udf	#0
   80e90:	6f626572 	sqshlu	v18.2d, v11.2d, #34
   80e94:	Address 0x0000000000080e94 is out of bounds.


Disassembly of section .eh_frame:

0000000000080e98 <.eh_frame>:
   80e98:	00000010 	udf	#16
   80e9c:	00000000 	udf	#0
   80ea0:	00527a01 	.inst	0x00527a01 ; undefined
   80ea4:	011e7804 	.inst	0x011e7804 ; undefined
   80ea8:	001f0c1b 	.inst	0x001f0c1b ; undefined
   80eac:	0000001c 	udf	#28
   80eb0:	00000018 	udf	#24
   80eb4:	fffff14c 	.inst	0xfffff14c ; undefined
   80eb8:	00000044 	udf	#68
   80ebc:	200e4100 	.inst	0x200e4100 ; undefined
   80ec0:	039e049d 	.inst	0x039e049d ; undefined
   80ec4:	0eddde4f 	.inst	0x0eddde4f ; undefined
   80ec8:	00000000 	udf	#0
   80ecc:	0000001c 	udf	#28
   80ed0:	00000038 	udf	#56
   80ed4:	fffff170 	.inst	0xfffff170 ; undefined
   80ed8:	0000005c 	udf	#92
   80edc:	100e4100 	adr	x0, 9d6fc <__stack_top+0x1b4bc>
   80ee0:	019e029d 	.inst	0x019e029d ; undefined
   80ee4:	0eddde55 	.inst	0x0eddde55 ; undefined
   80ee8:	00000000 	udf	#0
   80eec:	0000001c 	udf	#28
   80ef0:	00000058 	udf	#88
   80ef4:	fffff1ac 	.inst	0xfffff1ac ; undefined
   80ef8:	00000020 	udf	#32
   80efc:	100e4100 	adr	x0, 9d71c <__stack_top+0x1b4dc>
   80f00:	019e029d 	.inst	0x019e029d ; undefined
   80f04:	0eddde46 	.inst	0x0eddde46 ; undefined
   80f08:	00000000 	udf	#0
   80f0c:	0000001c 	udf	#28
   80f10:	00000078 	udf	#120
   80f14:	fffff1ac 	.inst	0xfffff1ac ; undefined
   80f18:	00000060 	udf	#96
   80f1c:	400e4100 	.inst	0x400e4100 ; undefined
   80f20:	079e089d 	.inst	0x079e089d ; undefined
   80f24:	0eddde56 	.inst	0x0eddde56 ; undefined
   80f28:	00000000 	udf	#0
   80f2c:	0000001c 	udf	#28
   80f30:	00000098 	udf	#152
   80f34:	fffff1ec 	.inst	0xfffff1ec ; undefined
   80f38:	00000038 	udf	#56
   80f3c:	200e4100 	.inst	0x200e4100 ; undefined
   80f40:	039e049d 	.inst	0x039e049d ; undefined
   80f44:	0eddde4c 	.inst	0x0eddde4c ; undefined
   80f48:	00000000 	udf	#0
   80f4c:	00000020 	udf	#32
   80f50:	000000b8 	udf	#184
   80f54:	fffff204 	.inst	0xfffff204 ; undefined
   80f58:	00000020 	udf	#32
   80f5c:	100e4100 	adr	x0, 9d77c <__stack_top+0x1b53c>
   80f60:	019e029d 	.inst	0x019e029d ; undefined
   80f64:	0eddde46 	.inst	0x0eddde46 ; undefined
	...
   80f70:	0000001c 	udf	#28
   80f74:	000000dc 	udf	#220
   80f78:	fffff200 	.inst	0xfffff200 ; undefined
   80f7c:	0000001c 	udf	#28
   80f80:	100e4100 	adr	x0, 9d7a0 <__stack_top+0x1b560>
   80f84:	019e029d 	.inst	0x019e029d ; undefined
   80f88:	0eddde45 	.inst	0x0eddde45 ; undefined
   80f8c:	00000000 	udf	#0
   80f90:	0000001c 	udf	#28
   80f94:	000000fc 	udf	#252
   80f98:	fffff1fc 	.inst	0xfffff1fc ; undefined
   80f9c:	00000028 	udf	#40
   80fa0:	200e4100 	.inst	0x200e4100 ; undefined
   80fa4:	039e049d 	.inst	0x039e049d ; undefined
   80fa8:	0eddde48 	.inst	0x0eddde48 ; undefined
   80fac:	00000000 	udf	#0
   80fb0:	00000014 	udf	#20
   80fb4:	0000011c 	udf	#284
   80fb8:	fffff204 	.inst	0xfffff204 ; undefined
   80fbc:	0000004c 	udf	#76
   80fc0:	200e4100 	.inst	0x200e4100 ; undefined
   80fc4:	00000e51 	udf	#3665
   80fc8:	00000014 	udf	#20
   80fcc:	00000134 	udf	#308
   80fd0:	fffff238 	.inst	0xfffff238 ; undefined
   80fd4:	000000a4 	udf	#164
   80fd8:	200e4100 	.inst	0x200e4100 ; undefined
   80fdc:	00000e67 	udf	#3687
   80fe0:	00000014 	udf	#20
   80fe4:	0000014c 	udf	#332
   80fe8:	fffff2c4 	.inst	0xfffff2c4 ; undefined
   80fec:	00000028 	udf	#40
   80ff0:	100e4100 	adr	x0, 9d810 <__stack_top+0x1b5d0>
   80ff4:	00000e48 	udf	#3656
   80ff8:	0000001c 	udf	#28
   80ffc:	00000164 	udf	#356
   81000:	fffff2d4 	.inst	0xfffff2d4 ; undefined
   81004:	00000048 	udf	#72
   81008:	200e4100 	.inst	0x200e4100 ; undefined
   8100c:	039e049d 	.inst	0x039e049d ; undefined
   81010:	0eddde50 	.inst	0x0eddde50 ; undefined
   81014:	00000000 	udf	#0
   81018:	0000001c 	udf	#28
   8101c:	00000184 	udf	#388
   81020:	fffff2fc 	.inst	0xfffff2fc ; undefined
   81024:	00000034 	udf	#52
   81028:	100e4100 	adr	x0, 9d848 <__stack_top+0x1b608>
   8102c:	019e029d 	.inst	0x019e029d ; undefined
   81030:	0eddde4b 	.inst	0x0eddde4b ; undefined
   81034:	00000000 	udf	#0
   81038:	00000018 	udf	#24
   8103c:	000001a4 	udf	#420
   81040:	fffff310 	.inst	0xfffff310 ; undefined
   81044:	0000005c 	udf	#92
   81048:	a00e4100 	.inst	0xa00e4100 ; undefined
   8104c:	9e149d01 	.inst	0x9e149d01 ; undefined
   81050:	00000013 	udf	#19
   81054:	0000001c 	udf	#28
   81058:	000001c0 	udf	#448
   8105c:	fffff350 	.inst	0xfffff350 ; undefined
   81060:	000001cc 	udf	#460
   81064:	300e4100 	adr	x0, 9d885 <__stack_top+0x1b645>
   81068:	059e069d 	mov	z29.s, p14/z, #52
   8106c:	ddde7102 	.inst	0xddde7102 ; undefined
   81070:	0000000e 	udf	#14
   81074:	00000018 	udf	#24
   81078:	000001e0 	udf	#480
   8107c:	fffff4fc 	.inst	0xfffff4fc ; undefined
   81080:	0000005c 	udf	#92
   81084:	100e4100 	adr	x0, 9d8a4 <__stack_top+0x1b664>
   81088:	00000e55 	udf	#3669
   8108c:	00000000 	udf	#0
   81090:	0000001c 	udf	#28
   81094:	000001fc 	udf	#508
   81098:	fffff588 	.inst	0xfffff588 ; undefined
   8109c:	000000c0 	udf	#192
   810a0:	300e4100 	adr	x0, 9d8c1 <__stack_top+0x1b681>
   810a4:	059e069d 	mov	z29.s, p14/z, #52
   810a8:	0eddde6e 	.inst	0x0eddde6e ; undefined
   810ac:	00000000 	udf	#0
   810b0:	00000014 	udf	#20
   810b4:	0000021c 	udf	#540
   810b8:	fffff628 	.inst	0xfffff628 ; undefined
   810bc:	0000005c 	udf	#92
   810c0:	200e4100 	.inst	0x200e4100 ; undefined
   810c4:	00000e55 	udf	#3669
   810c8:	00000014 	udf	#20
   810cc:	00000234 	udf	#564
   810d0:	fffff66c 	.inst	0xfffff66c ; undefined
   810d4:	00000044 	udf	#68
   810d8:	200e4100 	.inst	0x200e4100 ; undefined
   810dc:	00000e4f 	udf	#3663
   810e0:	0000001c 	udf	#28
   810e4:	0000024c 	udf	#588
   810e8:	fffff698 	.inst	0xfffff698 ; undefined
   810ec:	00000100 	udf	#256
   810f0:	300e4100 	adr	x0, 9d911 <__stack_top+0x1b6d1>
   810f4:	059e069d 	mov	z29.s, p14/z, #52
   810f8:	0eddde7e 	.inst	0x0eddde7e ; undefined
   810fc:	00000000 	udf	#0
   81100:	0000001c 	udf	#28
   81104:	0000026c 	udf	#620
   81108:	fffff778 	.inst	0xfffff778 ; undefined
   8110c:	000000c0 	udf	#192
   81110:	300e4100 	adr	x0, 9d931 <__stack_top+0x1b6f1>
   81114:	059e069d 	mov	z29.s, p14/z, #52
   81118:	0eddde6e 	.inst	0x0eddde6e ; undefined
   8111c:	00000000 	udf	#0
   81120:	0000001c 	udf	#28
   81124:	0000028c 	udf	#652
   81128:	fffff818 	.inst	0xfffff818 ; undefined
   8112c:	000000bc 	udf	#188
   81130:	300e4100 	adr	x0, 9d951 <__stack_top+0x1b711>
   81134:	059e069d 	mov	z29.s, p14/z, #52
   81138:	0eddde6d 	.inst	0x0eddde6d ; undefined
   8113c:	00000000 	udf	#0
   81140:	00000018 	udf	#24
   81144:	000002ac 	udf	#684
   81148:	fffff8b4 	.inst	0xfffff8b4 ; undefined
   8114c:	00000118 	udf	#280
   81150:	100e4100 	adr	x0, 9d970 <__stack_top+0x1b730>
   81154:	44020293 	.inst	0x44020293 ; undefined
   81158:	00000ed3 	udf	#3795
   8115c:	00000014 	udf	#20
   81160:	000002c8 	udf	#712
   81164:	fffff9b0 	.inst	0xfffff9b0 ; undefined
   81168:	00000040 	udf	#64
   8116c:	100e4100 	adr	x0, 9d98c <__stack_top+0x1b74c>
   81170:	00000e4e 	udf	#3662
   81174:	00000014 	udf	#20
   81178:	000002e0 	udf	#736
   8117c:	fffff9d8 	.inst	0xfffff9d8 ; undefined
   81180:	00000050 	udf	#80
   81184:	100e4100 	adr	x0, 9d9a4 <__stack_top+0x1b764>
   81188:	00000e52 	udf	#3666
   8118c:	0000001c 	udf	#28
   81190:	000002f8 	udf	#760
   81194:	fffffa10 	.inst	0xfffffa10 ; undefined
   81198:	0000005c 	udf	#92
   8119c:	200e4100 	.inst	0x200e4100 ; undefined
   811a0:	039e049d 	.inst	0x039e049d ; undefined
   811a4:	0eddde55 	.inst	0x0eddde55 ; undefined
   811a8:	00000000 	udf	#0

Disassembly of section .bss:

00000000000811b0 <mbox>:
	...

Disassembly of section .debug_info:

0000000000000000 <.debug_info>:
   0:	00000196 	udf	#406
   4:	08010005 	stxrb	w1, w5, [x0]
   8:	00000000 	udf	#0
   c:	00002007 	udf	#8199
  10:	00181d00 	.inst	0x00181d00 ; undefined
	...
  1c:	00000008 	udf	#8
  20:	01780000 	.inst	0x01780000 ; undefined
	...
  2c:	7e020000 	.inst	0x7e020000 ; undefined
  30:	02000001 	.inst	0x02000001 ; undefined
  34:	00003f01 	udf	#16129
  38:	003f0100 	.inst	0x003f0100 ; NYI
  3c:	08000000 	stxrb	w0, w0, [x0]
  40:	6e690504 	uhadd	v4.8h, v8.8h, v9.8h
  44:	eb020074 	subs	x20, x3, x2
  48:	03000000 	.inst	0x03000000 ; undefined
  4c:	00005702 	udf	#22274
  50:	00570100 	.inst	0x00570100 ; undefined
  54:	03000000 	.inst	0x03000000 ; undefined
  58:	00ba0704 	.inst	0x00ba0704 ; undefined
  5c:	b0020000 	adrp	x0, 4001000 <__stack_top+0x3f7edc0>
  60:	04000000 	add	z0.b, p0/m, z0.b, z0.b
  64:	00007908 	udf	#30984
  68:	00790100 	.inst	0x00790100 ; undefined
  6c:	80010000 	.inst	0x80010000 ; undefined
  70:	01000000 	.inst	0x01000000 ; undefined
  74:	0000003f 	udf	#63
  78:	04040300 	.inst	0x04040300 ; undefined
  7c:	0000001a 	udf	#26
  80:	00860809 	.inst	0x00860809 ; undefined
  84:	01030000 	.inst	0x01030000 ; undefined
  88:	00015e08 	.inst	0x00015e08 ; undefined
  8c:	010e0200 	.inst	0x010e0200 ; undefined
  90:	04030000 	subr	z0.b, p0/m, z0.b, z0.b
  94:	0000009e 	udf	#158
  98:	00008001 	udf	#32769
  9c:	0c040000 	.inst	0x0c040000 ; undefined
  a0:	38000000 	sturb	w0, [x0]
  a4:	00080158 	.inst	0x00080158 ; undefined
  a8:	00000000 	udf	#0
  ac:	00000020 	udf	#32
  b0:	00000000 	udf	#0
  b4:	f50a9c01 	.inst	0xf50a9c01 ; undefined
  b8:	01000000 	.inst	0x01000000 ; undefined
  bc:	01200631 	.inst	0x01200631 ; undefined
  c0:	00000008 	udf	#8
  c4:	00380000 	.inst	0x00380000 ; NYI
  c8:	00000000 	udf	#0
  cc:	9c010000 	ldr	q0, 20cc <InputBufferOverflowMessage-0x7df34>
  d0:	000000e1 	udf	#225
  d4:	31007305 	adds	w5, w24, #0x1c
  d8:	0000801c 	udf	#32796
  dc:	78910200 	ldursh	x0, [x16, #-240]
  e0:	00920b00 	.inst	0x00920b00 ; undefined
  e4:	1e010000 	.inst	0x1e010000 ; undefined
  e8:	0800c006 	stlxrb	w0, w6, [x0]
  ec:	00000000 	udf	#0
  f0:	00006000 	udf	#24576
  f4:	00000000 	udf	#0
  f8:	299c0100 	stp	w0, w0, [x8, #224]!
  fc:	06000001 	.inst	0x06000001 ; undefined
 100:	00000105 	udf	#261
 104:	00012917 	.inst	0x00012917 ; undefined
 108:	78910200 	ldursh	x0, [x16, #-240]
 10c:	0000c706 	udf	#50950
 110:	01292100 	.inst	0x01292100 ; undefined
 114:	91020000 	add	x0, x0, #0x80
 118:	74730c70 	.inst	0x74730c70 ; undefined
 11c:	21010072 	.inst	0x21010072 ; undefined
 120:	0001300a 	.inst	0x0001300a ; undefined
 124:	58910200 	ldr	x0, fffffffffff22164 <__stack_top+0xffffffffffe9ff24>
 128:	07080300 	.inst	0x07080300 ; undefined
 12c:	000000b5 	udf	#181
 130:	0000860d 	udf	#34317
 134:	00014000 	.inst	0x00014000 ; undefined
 138:	01290e00 	.inst	0x01290e00 ; undefined
 13c:	00130000 	.inst	0x00130000 ; undefined
 140:	0000a304 	udf	#41732
 144:	00a01900 	.inst	0x00a01900 ; undefined
 148:	00000008 	udf	#8
 14c:	00200000 	.inst	0x00200000 ; NYI
 150:	00000000 	udf	#0
 154:	9c010000 	ldr	q0, 2154 <InputBufferOverflowMessage-0x7deac>
 158:	00000004 	udf	#4
 15c:	00440f00 	.inst	0x00440f00 ; undefined
 160:	00000008 	udf	#8
 164:	005c0000 	.inst	0x005c0000 ; undefined
 168:	00000000 	udf	#0
 16c:	9c010000 	ldr	q0, 216c <InputBufferOverflowMessage-0x7de94>
 170:	0000d00f 	udf	#53263
 174:	06060100 	.inst	0x06060100 ; undefined
 178:	00080000 	.inst	0x00080000 ; undefined
 17c:	00000000 	udf	#0
 180:	00000044 	udf	#68
 184:	00000000 	udf	#0
 188:	63059c01 	.inst	0x63059c01 ; undefined
 18c:	0600646d 	.inst	0x0600646d ; undefined
 190:	00008026 	udf	#32806
 194:	78910200 	ldursh	x0, [x16, #-240]
 198:	00b60000 	.inst	0x00b60000 ; undefined
 19c:	00050000 	.inst	0x00050000 ; undefined
 1a0:	00fe0801 	.inst	0x00fe0801 ; undefined
 1a4:	20020000 	.inst	0x20020000 ; undefined
 1a8:	1d000000 	.inst	0x1d000000 ; undefined
 1ac:	00000043 	udf	#67
 1b0:	00000000 	udf	#0
 1b4:	00080178 	.inst	0x00080178 ; undefined
 1b8:	00000000 	udf	#0
 1bc:	00000044 	udf	#68
 1c0:	00000000 	udf	#0
 1c4:	00000098 	udf	#152
 1c8:	69050403 	stgp	x3, x1, [x0, #160]
 1cc:	0400746e 	mls	z14.b, p5/m, z3.b, z0.b
 1d0:	0000010e 	udf	#270
 1d4:	47060402 	.inst	0x47060402 ; undefined
 1d8:	05000000 	orr	z0.s, z0.s, #0x1
 1dc:	00000047 	udf	#71
 1e0:	4d080600 	.inst	0x4d080600 ; undefined
 1e4:	07000000 	.inst	0x07000000 ; undefined
 1e8:	015e0801 	.inst	0x015e0801 ; undefined
 1ec:	23080000 	.inst	0x23080000 ; undefined
 1f0:	02000001 	.inst	0x02000001 ; undefined
 1f4:	00620601 	.inst	0x00620601 ; undefined
 1f8:	00010000 	.inst	0x00010000 ; undefined
 1fc:	00012d09 	.inst	0x00012d09 ; undefined
 200:	060e0100 	.inst	0x060e0100 ; undefined
 204:	00080194 	.inst	0x00080194 ; undefined
 208:	00000000 	udf	#0
 20c:	00000028 	udf	#40
 210:	00000000 	udf	#0
 214:	00909c01 	.inst	0x00909c01 ; undefined
 218:	180a0000 	ldr	w0, 14218 <InputBufferOverflowMessage-0x6bde8>
 21c:	01000001 	.inst	0x01000001 ; undefined
 220:	00470b0f 	.inst	0x00470b0f ; undefined
 224:	91020000 	add	x0, x0, #0x80
 228:	3b0b0078 	.inst	0x3b0b0078 ; undefined
 22c:	01000001 	.inst	0x01000001 ; undefined
 230:	01780604 	.inst	0x01780604 ; undefined
 234:	00000008 	udf	#8
 238:	001c0000 	.inst	0x001c0000 ; undefined
 23c:	00000000 	udf	#0
 240:	9c010000 	ldr	q0, 2240 <InputBufferOverflowMessage-0x7ddc0>
 244:	00012d0c 	.inst	0x00012d0c ; undefined
 248:	02090100 	.inst	0x02090100 ; undefined
 24c:	0000002e 	udf	#46
 250:	00000001 	udf	#1
 254:	0000007e 	udf	#126
 258:	08010005 	stxrb	w1, w5, [x0]
 25c:	000001b9 	udf	#441
 260:	00002002 	udf	#8194
 264:	00541d00 	.inst	0x00541d00 ; undefined
 268:	00000000 	udf	#0
 26c:	01bc0000 	.inst	0x01bc0000 ; undefined
 270:	00000008 	udf	#8
 274:	004c0000 	.inst	0x004c0000 ; undefined
 278:	00000000 	udf	#0
 27c:	01010000 	.inst	0x01010000 ; undefined
 280:	70030000 	adr	x0, 6283 <InputBufferOverflowMessage-0x79d7d>
 284:	0100776f 	.inst	0x0100776f ; undefined
 288:	007a0501 	.inst	0x007a0501 ; undefined
 28c:	01bc0000 	.inst	0x01bc0000 ; undefined
 290:	00000008 	udf	#8
 294:	004c0000 	.inst	0x004c0000 ; undefined
 298:	00000000 	udf	#0
 29c:	9c010000 	ldr	q0, 229c <InputBufferOverflowMessage-0x7dd64>
 2a0:	0000007a 	udf	#122
 2a4:	00015001 	.inst	0x00015001 ; undefined
 2a8:	007a0d00 	.inst	0x007a0d00 ; undefined
 2ac:	91020000 	add	x0, x0, #0x80
 2b0:	0140016c 	.inst	0x0140016c ; undefined
 2b4:	7a170000 	sbcs	w0, w0, w23
 2b8:	02000000 	.inst	0x02000000 ; undefined
 2bc:	49046891 	.inst	0x49046891 ; undefined
 2c0:	01000001 	.inst	0x01000001 ; undefined
 2c4:	007a0903 	.inst	0x007a0903 ; undefined
 2c8:	91020000 	add	x0, x0, #0x80
 2cc:	0405007c 	.inst	0x0405007c ; undefined
 2d0:	746e6905 	.inst	0x746e6905 ; undefined
 2d4:	00b60000 	.inst	0x00b60000 ; undefined
 2d8:	00050000 	.inst	0x00050000 ; undefined
 2dc:	02190801 	.inst	0x02190801 ; undefined
 2e0:	20030000 	.inst	0x20030000 ; undefined
 2e4:	1d000000 	.inst	0x1d000000 ; undefined
 2e8:	0000005f 	udf	#95
 2ec:	00000000 	udf	#0
 2f0:	00080208 	.inst	0x00080208 ; undefined
 2f4:	00000000 	udf	#0
 2f8:	000000a4 	udf	#164
 2fc:	00000000 	udf	#0
 300:	0000016f 	udf	#367
 304:	00005104 	udf	#20740
 308:	00003e00 	udf	#15872
 30c:	00430500 	.inst	0x00430500 ; undefined
 310:	00230000 	.inst	0x00230000 ; NYI
 314:	00002e02 	udf	#11778
 318:	07080100 	.inst	0x07080100 ; undefined
 31c:	000000b5 	udf	#181
 320:	ba070401 	rmif	x0, #14, #1
 324:	02000000 	.inst	0x02000000 ; undefined
 328:	0000004a 	udf	#74
 32c:	00016d06 	.inst	0x00016d06 ; undefined
 330:	351d0100 	cbnz	w0, 3a350 <InputBufferOverflowMessage-0x45cb0>
 334:	0000003e 	udf	#62
 338:	b0030910 	adrp	x16, 6121000 <__stack_top+0x609edc0>
 33c:	00000811 	udf	#2065
 340:	07000000 	.inst	0x07000000 ; undefined
 344:	00000163 	udf	#355
 348:	ab052d01 	adds	x1, x8, x5, lsl #11
 34c:	08000000 	stxrb	w0, w0, [x0]
 350:	00000802 	udf	#2050
 354:	a4000000 	ld1rqb	{z0.b}, p0/z, [x0, x0]
 358:	00000000 	udf	#0
 35c:	01000000 	.inst	0x01000000 ; undefined
 360:	0000ab9c 	udf	#43932
 364:	68630800 	.inst	0x68630800 ; undefined
 368:	1d2d0100 	.inst	0x1d2d0100 ; undefined
 36c:	000000b2 	udf	#178
 370:	096f9102 	.inst	0x096f9102 ; undefined
 374:	2f010072 	.inst	0x2f010072 ; undefined
 378:	00004a12 	udf	#18962
 37c:	7c910200 	.inst	0x7c910200 ; undefined
 380:	05040a00 	.inst	0x05040a00 ; undefined
 384:	00746e69 	.inst	0x00746e69 ; undefined
 388:	55080101 	.inst	0x55080101 ; undefined
 38c:	00000001 	udf	#1
 390:	000000bc 	udf	#188
 394:	08010005 	stxrb	w1, w5, [x0]
 398:	000002b1 	udf	#689
 39c:	00002002 	udf	#8194
 3a0:	006a1d00 	.inst	0x006a1d00 ; undefined
 3a4:	00000000 	udf	#0
 3a8:	02ac0000 	.inst	0x02ac0000 ; undefined
 3ac:	00000008 	udf	#8
 3b0:	00a40000 	.inst	0x00a40000 ; undefined
 3b4:	00000000 	udf	#0
 3b8:	02090000 	.inst	0x02090000 ; undefined
 3bc:	77030000 	.inst	0x77030000 ; undefined
 3c0:	01000001 	.inst	0x01000001 ; undefined
 3c4:	031c060e 	.inst	0x031c060e ; undefined
 3c8:	00000008 	udf	#8
 3cc:	00340000 	.inst	0x00340000 ; NYI
 3d0:	00000000 	udf	#0
 3d4:	9c010000 	ldr	q0, 23d4 <InputBufferOverflowMessage-0x7dc2c>
 3d8:	00017e04 	.inst	0x00017e04 ; undefined
 3dc:	06090100 	.inst	0x06090100 ; undefined
 3e0:	000802d4 	.inst	0x000802d4 ; undefined
 3e4:	00000000 	udf	#0
 3e8:	00000048 	udf	#72
 3ec:	00000000 	udf	#0
 3f0:	00759c01 	.inst	0x00759c01 ; undefined
 3f4:	72010000 	ands	w0, w0, #0x80000000
 3f8:	09000001 	.inst	0x09000001 ; undefined
 3fc:	00007510 	udf	#29968
 400:	7c910200 	.inst	0x7c910200 ; undefined
 404:	05040500 	.inst	0x05040500 ; undefined
 408:	00746e69 	.inst	0x00746e69 ; undefined
 40c:	74657306 	.inst	0x74657306 ; undefined
 410:	06050100 	.inst	0x06050100 ; undefined
 414:	000802ac 	.inst	0x000802ac ; undefined
 418:	00000000 	udf	#0
 41c:	00000028 	udf	#40
 420:	00000000 	udf	#0
 424:	00b89c01 	.inst	0x00b89c01 ; undefined
 428:	72070000 	ands	w0, w0, #0x2000000
 42c:	01006765 	.inst	0x01006765 ; undefined
 430:	00b81705 	.inst	0x00b81705 ; undefined
 434:	91020000 	add	x0, x0, #0x80
 438:	0172017c 	.inst	0x0172017c ; undefined
 43c:	20050000 	.inst	0x20050000 ; undefined
 440:	00000075 	udf	#117
 444:	00789102 	.inst	0x00789102 ; undefined
 448:	ba070408 	rmif	x0, #14, #8
 44c:	00000000 	udf	#0
 450:	0000022f 	udf	#559
 454:	08010005 	stxrb	w1, w5, [x0]
 458:	0000034b 	udf	#843
 45c:	0000200c 	udf	#8204
 460:	00771d00 	.inst	0x00771d00 ; undefined
 464:	00000000 	udf	#0
 468:	03500000 	.inst	0x03500000 ; undefined
 46c:	00000008 	udf	#8
 470:	02840000 	.inst	0x02840000 ; undefined
 474:	00000000 	udf	#0
 478:	02730000 	.inst	0x02730000 ; undefined
 47c:	ce0d0000 	eor3	v0.16b, v0.16b, v13.16b, v0.16b
 480:	05000001 	orr	z1.s, z1.s, #0x1
 484:	00006704 	udf	#26372
 488:	06060500 	.inst	0x06060500 ; undefined
 48c:	00000067 	udf	#103
 490:	00020f06 	.inst	0x00020f06 ; undefined
 494:	90060800 	adrp	x0, c100000 <__stack_top+0xc07ddc0>
 498:	0a000001 	and	w1, w0, w0
 49c:	00019a06 	.inst	0x00019a06 ; undefined
 4a0:	34090d00 	cbz	w0, 12640 <InputBufferOverflowMessage-0x6d9c0>
 4a4:	e8000002 	.inst	0xe8000002 ; undefined
 4a8:	021a0903 	.inst	0x021a0903 ; undefined
 4ac:	03e90000 	.inst	0x03e90000 ; undefined
 4b0:	0001f20e 	.inst	0x0001f20e ; undefined
 4b4:	0f007f00 	.inst	0x0f007f00 ; undefined
 4b8:	6e690504 	uhadd	v4.8h, v8.8h, v9.8h
 4bc:	f5020074 	.inst	0xf5020074 ; undefined
 4c0:	02000000 	.inst	0x02000000 ; undefined
 4c4:	00007f09 	udf	#32521
 4c8:	007f0100 	.inst	0x007f0100 ; undefined
 4cc:	0a000000 	and	w0, w0, w0
 4d0:	00000084 	udf	#132
 4d4:	5e080107 	sha1c	q7, s8, v8.4s
 4d8:	04000001 	add	z1.b, p0/m, z1.b, z0.b
 4dc:	0000000c 	udf	#12
 4e0:	0000970a 	udf	#38666
 4e4:	04000300 	add	z0.b, p0/m, z0.b, z24.b
 4e8:	00000092 	udf	#146
 4ec:	0000a308 	udf	#41736
 4f0:	04000300 	add	z0.b, p0/m, z0.b, z24.b
 4f4:	000000a3 	udf	#163
 4f8:	0000af07 	udf	#44807
 4fc:	04000300 	add	z0.b, p0/m, z0.b, z24.b
 500:	00000000 	udf	#0
 504:	0000bb06 	udf	#47878
 508:	10000300 	adr	x0, 568 <InputBufferOverflowMessage-0x7fa98>
 50c:	000001eb 	udf	#491
 510:	67060404 	.inst	0x67060404 ; undefined
 514:	d6000000 	.inst	0xd6000000 ; undefined
 518:	01000000 	.inst	0x01000000 ; undefined
 51c:	0000007f 	udf	#127
 520:	00007f01 	udf	#32513
 524:	d0020000 	adrp	x0, 4002000 <__stack_top+0x3f7fdc0>
 528:	02000000 	.inst	0x02000000 ; undefined
 52c:	0000e704 	udf	#59140
 530:	007f0100 	.inst	0x007f0100 ; undefined
 534:	02000000 	.inst	0x02000000 ; undefined
 538:	000000eb 	udf	#235
 53c:	00f80203 	.inst	0x00f80203 ; undefined
 540:	f8010000 	stur	x0, [x0, #16]
 544:	00000000 	udf	#0
 548:	ba070407 	rmif	x0, #14, #7
 54c:	11000000 	add	w0, w0, #0x0
 550:	0000022a 	udf	#554
 554:	84060303 	ld1sb	{z3.s}, p0/z, [x24, z6.s, uxtw]
 558:	11000000 	add	w0, w0, #0x0
 55c:	03000001 	.inst	0x03000001 ; undefined
 560:	010e0200 	.inst	0x010e0200 ; undefined
 564:	04030000 	subr	z0.b, p0/m, z0.b, z0.b
 568:	00000122 	udf	#290
 56c:	00007f01 	udf	#32513
 570:	c7020000 	.inst	0xc7020000 ; undefined
 574:	04000001 	add	z1.b, p0/m, z1.b, z0.b
 578:	00013d05 	.inst	0x00013d05 ; undefined
 57c:	007f0100 	.inst	0x007f0100 ; undefined
 580:	67010000 	.inst	0x67010000 ; undefined
 584:	01000000 	.inst	0x01000000 ; undefined
 588:	00000067 	udf	#103
 58c:	02091200 	.inst	0x02091200 ; undefined
 590:	4d010000 	.inst	0x4d010000 ; undefined
 594:	00002e18 	udf	#11800
 598:	08057800 	stxrb	w5, w0, [x0]
 59c:	00000000 	udf	#0
 5a0:	00005c00 	udf	#23552
 5a4:	00000000 	udf	#0
 5a8:	6c9c0100 	stp	d0, d0, [x8], #448
 5ac:	0b000001 	add	w1, w0, w0
 5b0:	234d0063 	.inst	0x234d0063 ; undefined
 5b4:	00000084 	udf	#132
 5b8:	007f9102 	.inst	0x007f9102 ; undefined
 5bc:	0001b513 	.inst	0x0001b513 ; undefined
 5c0:	061b0100 	.inst	0x061b0100 ; undefined
 5c4:	000803ac 	.inst	0x000803ac ; undefined
 5c8:	00000000 	udf	#0
 5cc:	000001cc 	udf	#460
 5d0:	00000000 	udf	#0
 5d4:	01be9c01 	.inst	0x01be9c01 ; undefined
 5d8:	84080000 	ld1sb	{z0.s}, p0/z, [x0, z8.s, uxtw]
 5dc:	2f000001 	.inst	0x2f000001 ; undefined
 5e0:	0000002e 	udf	#46
 5e4:	0b7c9102 	.inst	0x0b7c9102 ; undefined
 5e8:	411b0063 	.inst	0x411b0063 ; undefined
 5ec:	00000084 	udf	#132
 5f0:	087b9102 	.inst	0x087b9102 ; undefined
 5f4:	00000223 	udf	#547
 5f8:	00007f49 	udf	#32585
 5fc:	70910200 	adr	x0, fffffffffff2263f <__stack_top+0xffffffffffea03ff>
 600:	00020108 	.inst	0x00020108 ; undefined
 604:	01be5900 	.inst	0x01be5900 ; undefined
 608:	91020000 	add	x0, x0, #0x80
 60c:	670a0068 	.inst	0x670a0068 ; undefined
 610:	14000000 	b	610 <InputBufferOverflowMessage-0x7f9f0>
 614:	000001aa 	udf	#426
 618:	50060601 	adr	x1, c6da <InputBufferOverflowMessage-0x73926>
 61c:	00000803 	udf	#2051
 620:	5c000000 	ldr	d0, 620 <InputBufferOverflowMessage-0x7f9e0>
 624:	00000000 	udf	#0
 628:	01000000 	.inst	0x01000000 ; undefined
 62c:	00021b9c 	.inst	0x00021b9c ; undefined
 630:	01fa0500 	.inst	0x01fa0500 ; undefined
 634:	09080000 	.inst	0x09080000 ; undefined
 638:	00000067 	udf	#103
 63c:	05749102 	.inst	0x05749102 ; undefined
 640:	000001e0 	udf	#480
 644:	00840a09 	.inst	0x00840a09 ; undefined
 648:	91020000 	add	x0, x0, #0x80
 64c:	0223057f 	.inst	0x0223057f ; undefined
 650:	0a0a0000 	and	w0, w0, w10
 654:	0000021b 	udf	#539
 658:	7ef09103 	.inst	0x7ef09103 ; undefined
 65c:	00018405 	.inst	0x00018405 ; undefined
 660:	2e1c0b00 	ext	v0.8b, v24.8b, v28.8b, #1
 664:	02000000 	.inst	0x02000000 ; undefined
 668:	15007891 	b	401e8ac <__stack_top+0x3f9c66c>
 66c:	00000084 	udf	#132
 670:	0000022b 	udf	#555
 674:	00022b16 	.inst	0x00022b16 ; undefined
 678:	07007f00 	.inst	0x07007f00 ; undefined
 67c:	00b50708 	.inst	0x00b50708 ; undefined
 680:	24000000 	cmphs	p0.b, p0/z, z0.b, z0.b
 684:	05000000 	orr	z0.s, z0.s, #0x1
 688:	ac080100 	stnp	q0, q0, [x8, #256]
 68c:	01000004 	.inst	0x01000004 ; undefined
 690:	000003ab 	udf	#939
 694:	000805d8 	.inst	0x000805d8 ; undefined
 698:	00000000 	udf	#0
 69c:	00024248 	.inst	0x00024248 ; undefined
 6a0:	00024f00 	.inst	0x00024f00 ; undefined
 6a4:	00026700 	.inst	0x00026700 ; undefined
 6a8:	2c800100 	stp	s0, s0, [x8], #0
 6ac:	05000002 	orr	z2.s, z2.s, #0x1
 6b0:	c0080100 	.inst	0xc0080100 ; undefined
 6b4:	08000004 	stxrb	w0, w4, [x0]
 6b8:	00000020 	udf	#32
 6bc:	00009d1d 	udf	#40221
 6c0:	00000000 	udf	#0
 6c4:	08062000 	stxrb	w6, w0, [x0]
 6c8:	00000000 	udf	#0
 6cc:	0003dc00 	.inst	0x0003dc00 ; undefined
 6d0:	00000000 	udf	#0
 6d4:	00040000 	.inst	0x00040000 ; undefined
 6d8:	6f700900 	mla	v0.8h, v8.8h, v0.h[7]
 6dc:	04020077 	.inst	0x04020077 ; undefined
 6e0:	00004905 	udf	#18693
 6e4:	00004900 	udf	#18688
 6e8:	00490500 	.inst	0x00490500 ; undefined
 6ec:	49050000 	.inst	0x49050000 ; undefined
 6f0:	00000000 	udf	#0
 6f4:	6905040a 	stgp	x10, x1, [x0, #160]
 6f8:	0300746e 	.inst	0x0300746e ; undefined
 6fc:	00000285 	udf	#645
 700:	08094054 	stxrb	w9, w20, [x2]
 704:	00000000 	udf	#0
 708:	0000bc00 	udf	#48128
 70c:	00000000 	udf	#0
 710:	929c0100 	mov	x0, #0xffffffffffff1ff7    	// #-57353
 714:	01000000 	.inst	0x01000000 ; undefined
 718:	17540073 	b	fffffffffd5008e4 <__stack_top+0xfffffffffd47e6a4>
 71c:	00000092 	udf	#146
 720:	02689102 	.inst	0x02689102 ; undefined
 724:	49560069 	.inst	0x49560069 ; undefined
 728:	02000000 	.inst	0x02000000 ; undefined
 72c:	7a047c91 	.inst	0x7a047c91 ; undefined
 730:	57000002 	.inst	0x57000002 ; undefined
 734:	0000980a 	udf	#38922
 738:	7b910200 	.inst	0x7b910200 ; undefined
 73c:	98080b00 	ldrsw	x0, 1089c <InputBufferOverflowMessage-0x6f764>
 740:	06000000 	.inst	0x06000000 ; undefined
 744:	015e0801 	.inst	0x015e0801 ; undefined
 748:	b0030000 	adrp	x0, 6001000 <__stack_top+0x5f7edc0>
 74c:	3b000000 	.inst	0x3b000000 ; undefined
 750:	00080880 	.inst	0x00080880 ; undefined
 754:	00000000 	udf	#0
 758:	000000c0 	udf	#192
 75c:	00000000 	udf	#0
 760:	010b9c01 	.inst	0x010b9c01 ; undefined
 764:	6e010000 	ext	v0.16b, v0.16b, v1.16b, #0
 768:	0b113b00 	add	w0, w24, w17, lsl #14
 76c:	02000001 	.inst	0x02000001 ; undefined
 770:	72016c91 	ands	w17, w4, #0x87ffffff
 774:	3b007365 	.inst	0x3b007365 ; undefined
 778:	0000921a 	udf	#37402
 77c:	60910200 	.inst	0x60910200 ; undefined
 780:	00029807 	.inst	0x00029807 ; undefined
 784:	49233b00 	.inst	0x49233b00 ; undefined
 788:	02000000 	.inst	0x02000000 ; undefined
 78c:	92046891 	and	x17, x4, #0xf07ffffff07fffff
 790:	3e000002 	.inst	0x3e000002 ; undefined
 794:	00004909 	udf	#18697
 798:	7c910200 	.inst	0x7c910200 ; undefined
 79c:	00027f04 	.inst	0x00027f04 ; undefined
 7a0:	0b0b4100 	add	w0, w8, w11, lsl #16
 7a4:	02000001 	.inst	0x02000001 ; undefined
 7a8:	69027891 	stgp	x17, x30, [x4, #64]
 7ac:	00494500 	.inst	0x00494500 ; undefined
 7b0:	91020000 	add	x0, x0, #0x80
 7b4:	04060074 	.inst	0x04060074 ; undefined
 7b8:	00001a04 	udf	#6660
 7bc:	02a30300 	.inst	0x02a30300 ; undefined
 7c0:	80290000 	.inst	0x80290000 ; NYI
 7c4:	00000807 	udf	#2055
 7c8:	00000000 	udf	#0
 7cc:	00000001 	udf	#1
 7d0:	01000000 	.inst	0x01000000 ; undefined
 7d4:	0001609c 	.inst	0x0001609c ; undefined
 7d8:	00780100 	.inst	0x00780100 ; undefined
 7dc:	00491029 	.inst	0x00491029 ; undefined
 7e0:	91020000 	add	x0, x0, #0x80
 7e4:	7473016c 	.inst	0x7473016c ; undefined
 7e8:	18290072 	ldr	w18, 527f4 <InputBufferOverflowMessage-0x2d80c>
 7ec:	00000092 	udf	#146
 7f0:	01609102 	.inst	0x01609102 ; undefined
 7f4:	23290064 	.inst	0x23290064 ; undefined
 7f8:	00000049 	udf	#73
 7fc:	02689102 	.inst	0x02689102 ; undefined
 800:	492b0069 	.inst	0x492b0069 ; undefined
 804:	02000000 	.inst	0x02000000 ; undefined
 808:	0c007c91 	st1	{v17.1d}, [x4]
 80c:	00000273 	udf	#627
 810:	49051b01 	.inst	0x49051b01 ; undefined
 814:	3c000000 	stur	b0, [x0]
 818:	00000807 	udf	#2055
 81c:	44000000 	.inst	0x44000000 ; undefined
 820:	00000000 	udf	#0
 824:	01000000 	.inst	0x01000000 ; undefined
 828:	00019a9c 	.inst	0x00019a9c ; undefined
 82c:	00730100 	.inst	0x00730100 ; undefined
 830:	0092151b 	.inst	0x0092151b ; undefined
 834:	91020000 	add	x0, x0, #0x80
 838:	00690268 	.inst	0x00690268 ; undefined
 83c:	0000491d 	udf	#18717
 840:	7c910200 	.inst	0x7c910200 ; undefined
 844:	01c70d00 	.inst	0x01c70d00 ; undefined
 848:	13010000 	sbfiz	w0, w0, #31, #1
 84c:	0806e006 	stlxrb	w6, w6, [x0]
 850:	00000000 	udf	#0
 854:	00005c00 	udf	#23552
 858:	00000000 	udf	#0
 85c:	eb9c0100 	subs	x0, x8, x28, asr #0
 860:	01000001 	.inst	0x01000001 ; undefined
 864:	13003173 	sbfx	w19, w11, #0, #13
 868:	00009215 	udf	#37397
 86c:	68910200 	stgp	x0, x0, [x16], #544
 870:	13006301 	sbfx	w1, w24, #0, #25
 874:	0000491d 	udf	#18717
 878:	64910200 	fcmla	z0.s, p0/m, z16.s, z17.s, #0
 87c:	00028d07 	.inst	0x00028d07 ; undefined
 880:	49241300 	.inst	0x49241300 ; undefined
 884:	02000000 	.inst	0x02000000 ; undefined
 888:	69026091 	stgp	x17, x24, [x4, #64]
 88c:	00491500 	.inst	0x00491500 ; undefined
 890:	91020000 	add	x0, x0, #0x80
 894:	eb0e007c 	subs	x28, x3, x14
 898:	01000001 	.inst	0x01000001 ; undefined
 89c:	00490504 	.inst	0x00490504 ; undefined
 8a0:	06200000 	.inst	0x06200000 ; undefined
 8a4:	00000008 	udf	#8
 8a8:	00c00000 	.inst	0x00c00000 ; undefined
 8ac:	00000000 	udf	#0
 8b0:	9c010000 	ldr	q0, 28b0 <InputBufferOverflowMessage-0x7d750>
 8b4:	00317301 	.inst	0x00317301 ; NYI
 8b8:	00921504 	.inst	0x00921504 ; undefined
 8bc:	91020000 	add	x0, x0, #0x80
 8c0:	32730168 	.inst	0x32730168 ; undefined
 8c4:	92200400 	and	x0, x0, #0x300000003
 8c8:	02000000 	.inst	0x02000000 ; undefined
 8cc:	69026091 	stgp	x17, x24, [x4, #64]
 8d0:	00490600 	.inst	0x00490600 ; undefined
 8d4:	91020000 	add	x0, x0, #0x80
 8d8:	ea00007c 	ands	x28, x3, x0
 8dc:	05000000 	orr	z0.s, z0.s, #0x1
 8e0:	ca080100 	eor	x0, x8, x8
 8e4:	04000005 	add	z5.b, p0/m, z5.b, z0.b
 8e8:	00000020 	udf	#32
 8ec:	0000b11d 	udf	#45341
 8f0:	00000000 	udf	#0
 8f4:	0809fc00 	stlxrb	w9, w0, [x0]
 8f8:	00000000 	udf	#0
 8fc:	00020400 	.inst	0x00020400 ; undefined
 900:	00000000 	udf	#0
 904:	0005a100 	.inst	0x0005a100 ; undefined
 908:	010e0500 	.inst	0x010e0500 ; undefined
 90c:	60010000 	.inst	0x60010000 ; undefined
 910:	080ba406 	stlxrb	w11, w6, [x0]
 914:	00000000 	udf	#0
 918:	00005c00 	udf	#23552
 91c:	00000000 	udf	#0
 920:	599c0100 	ldapursh	x0, [x8, #-64]
 924:	01000000 	.inst	0x01000000 ; undefined
 928:	16600073 	b	fffffffff9800af4 <__stack_top+0xfffffffff977e8b4>
 92c:	00000059 	udf	#89
 930:	00789102 	.inst	0x00789102 ; undefined
 934:	005f0806 	.inst	0x005f0806 ; undefined
 938:	01020000 	.inst	0x01020000 ; undefined
 93c:	00015e08 	.inst	0x00015e08 ; undefined
 940:	022a0700 	.inst	0x022a0700 ; undefined
 944:	53010000 	lsl	w0, w0, #31
 948:	00005f06 	udf	#24326
 94c:	080b5400 	stxrb	w11, w0, [x0]
 950:	00000000 	udf	#0
 954:	00005000 	udf	#20480
 958:	00000000 	udf	#0
 95c:	959c0100 	bl	6700d5c <__stack_top+0x667eb1c>
 960:	03000000 	.inst	0x03000000 ; undefined
 964:	0a540072 	and	w18, w3, w20, lsr #0
 968:	0000005f 	udf	#95
 96c:	007f9102 	.inst	0x007f9102 ; undefined
 970:	0000eb08 	udf	#60168
 974:	06490100 	.inst	0x06490100 ; undefined
 978:	00080b14 	.inst	0x00080b14 ; undefined
 97c:	00000000 	udf	#0
 980:	00000040 	udf	#64
 984:	00000000 	udf	#0
 988:	00c09c01 	.inst	0x00c09c01 ; undefined
 98c:	63010000 	.inst	0x63010000 ; undefined
 990:	c01d4900 	.inst	0xc01d4900 ; undefined
 994:	02000000 	.inst	0x02000000 ; undefined
 998:	02007c91 	.inst	0x02007c91 ; undefined
 99c:	00ba0704 	.inst	0x00ba0704 ; undefined
 9a0:	23090000 	.inst	0x23090000 ; undefined
 9a4:	01000001 	.inst	0x01000001 ; undefined
 9a8:	09fc062d 	.inst	0x09fc062d ; undefined
 9ac:	00000008 	udf	#8
 9b0:	01180000 	.inst	0x01180000 ; undefined
 9b4:	00000000 	udf	#0
 9b8:	9c010000 	ldr	q0, 29b8 <InputBufferOverflowMessage-0x7d648>
 9bc:	2f007203 	.inst	0x2f007203 ; undefined
 9c0:	0000c01b 	udf	#49179
 9c4:	00630100 	.inst	0x00630100 ; undefined
	...

Disassembly of section .debug_abbrev:

0000000000000000 <.debug_abbrev>:
   0:	49000501 	.inst	0x49000501 ; undefined
   4:	02000013 	.inst	0x02000013 ; undefined
   8:	193f012e 	.inst	0x193f012e ; undefined
   c:	0b3a0e03 	add	w3, w16, w26, uxtb #3
  10:	21390b3b 	.inst	0x21390b3b ; undefined
  14:	3c192706 	str	b6, [x24], #-110
  18:	00130119 	.inst	0x00130119 ; undefined
  1c:	00240300 	.inst	0x00240300 ; NYI
  20:	0b3e0b0b 	add	w11, w24, w30, uxtb #2
  24:	00000e03 	udf	#3587
  28:	3f002e04 	.inst	0x3f002e04 ; undefined
  2c:	3a0e0319 	adcs	w25, w24, w14
  30:	0b3b0121 	add	w1, w9, w27, uxtb
  34:	11062139 	add	w25, w9, #0x188
  38:	40071201 	.inst	0x40071201 ; undefined
  3c:	00197c18 	.inst	0x00197c18 ; undefined
  40:	00050500 	.inst	0x00050500 ; undefined
  44:	213a0803 	.inst	0x213a0803 ; undefined
  48:	390b3b01 	strb	w1, [x24, #718]
  4c:	0213490b 	.inst	0x0213490b ; undefined
  50:	06000018 	.inst	0x06000018 ; undefined
  54:	0e030034 	tbl	v20.8b, {v1.16b}, v3.8b
  58:	3b01213a 	.inst	0x3b01213a ; undefined
  5c:	0b392021 	add	w1, w1, w25, uxth
  60:	18021349 	ldr	w9, 42c8 <InputBufferOverflowMessage-0x7bd38>
  64:	11070000 	add	w0, w0, #0x1c0
  68:	130e2501 	sbfiz	w1, w8, #18, #10
  6c:	1b1f030b 	madd	w11, w24, wzr, w0
  70:	1201111f 	and	wsp, w8, #0x8000000f
  74:	00171007 	.inst	0x00171007 ; undefined
  78:	00240800 	.inst	0x00240800 ; NYI
  7c:	0b3e0b0b 	add	w11, w24, w30, uxtb #2
  80:	00000803 	udf	#2051
  84:	0b000f09 	add	w9, w24, w0, lsl #3
  88:	0013490b 	.inst	0x0013490b ; undefined
  8c:	012e0a00 	.inst	0x012e0a00 ; undefined
  90:	0e03193f 	uzp1	v31.8b, v9.8b, v3.8b
  94:	0b3b0b3a 	add	w26, w25, w27, uxtb #2
  98:	19270b39 	.inst	0x19270b39 ; undefined
  9c:	07120111 	.inst	0x07120111 ; undefined
  a0:	197c1840 	.inst	0x197c1840 ; undefined
  a4:	00001301 	udf	#4865
  a8:	3f012e0b 	.inst	0x3f012e0b ; undefined
  ac:	3a0e0319 	adcs	w25, w24, w14
  b0:	390b3b0b 	strb	w11, [x24, #718]
  b4:	1201110b 	and	w11, w8, #0x8000000f
  b8:	7c184007 	stur	h7, [x0, #-124]
  bc:	00130119 	.inst	0x00130119 ; undefined
  c0:	00340c00 	.inst	0x00340c00 ; NYI
  c4:	0b3a0803 	add	w3, w0, w26, uxtb #2
  c8:	0b390b3b 	add	w27, w25, w25, uxtb #2
  cc:	18021349 	ldr	w9, 4334 <InputBufferOverflowMessage-0x7bccc>
  d0:	010d0000 	.inst	0x010d0000 ; undefined
  d4:	01134901 	.inst	0x01134901 ; undefined
  d8:	0e000013 	tbl	v19.8b, {v0.16b}, v0.8b
  dc:	13490021 	.inst	0x13490021 ; undefined
  e0:	00000b2f 	udf	#2863
  e4:	3f012e0f 	.inst	0x3f012e0f ; undefined
  e8:	3a0e0319 	adcs	w25, w24, w14
  ec:	390b3b0b 	strb	w11, [x24, #718]
  f0:	1119270b 	add	w11, w24, #0x649
  f4:	40071201 	.inst	0x40071201 ; undefined
  f8:	00197c18 	.inst	0x00197c18 ; undefined
  fc:	18010000 	ldr	w0, 20fc <InputBufferOverflowMessage-0x7df04>
 100:	02000000 	.inst	0x02000000 ; undefined
 104:	0e250111 	saddl	v17.8h, v8.8b, v5.8b
 108:	1f030b13 	fmadd	s19, s24, s3, s2
 10c:	01111f1b 	.inst	0x01111f1b ; undefined
 110:	17100712 	b	fffffffffc401d58 <__stack_top+0xfffffffffc37fb18>
 114:	24030000 	cmphs	p0.b, p0/z, z0.b, z3.b
 118:	3e0b0b00 	.inst	0x3e0b0b00 ; undefined
 11c:	0008030b 	.inst	0x0008030b ; undefined
 120:	012e0400 	.inst	0x012e0400 ; undefined
 124:	0e03193f 	uzp1	v31.8b, v9.8b, v3.8b
 128:	0b3b0b3a 	add	w26, w25, w27, uxtb #2
 12c:	19270b39 	.inst	0x19270b39 ; undefined
 130:	1301193c 	sbfx	w28, w9, #1, #6
 134:	05050000 	.inst	0x05050000 ; undefined
 138:	00134900 	.inst	0x00134900 ; undefined
 13c:	000f0600 	.inst	0x000f0600 ; undefined
 140:	13490b0b 	.inst	0x13490b0b ; undefined
 144:	24070000 	cmphs	p0.b, p0/z, z0.b, z7.b
 148:	3e0b0b00 	.inst	0x3e0b0b00 ; undefined
 14c:	000e030b 	.inst	0x000e030b ; undefined
 150:	012e0800 	.inst	0x012e0800 ; undefined
 154:	0e03193f 	uzp1	v31.8b, v9.8b, v3.8b
 158:	0b3b0b3a 	add	w26, w25, w27, uxtb #2
 15c:	193c0b39 	.inst	0x193c0b39 ; undefined
 160:	00001301 	udf	#4865
 164:	3f012e09 	.inst	0x3f012e09 ; undefined
 168:	3a0e0319 	adcs	w25, w24, w14
 16c:	390b3b0b 	strb	w11, [x24, #718]
 170:	1201110b 	and	w11, w8, #0x8000000f
 174:	7c184007 	stur	h7, [x0, #-124]
 178:	00130119 	.inst	0x00130119 ; undefined
 17c:	00340a00 	.inst	0x00340a00 ; NYI
 180:	0b3a0e03 	add	w3, w16, w26, uxtb #3
 184:	0b390b3b 	add	w27, w25, w25, uxtb #2
 188:	18021349 	ldr	w9, 43f0 <InputBufferOverflowMessage-0x7bc10>
 18c:	2e0b0000 	ext	v0.8b, v0.8b, v11.8b, #0
 190:	03193f01 	.inst	0x03193f01 ; undefined
 194:	3b0b3a0e 	.inst	0x3b0b3a0e ; undefined
 198:	110b390b 	add	w11, w8, #0x2ce
 19c:	40071201 	.inst	0x40071201 ; undefined
 1a0:	00197c18 	.inst	0x00197c18 ; undefined
 1a4:	012e0c00 	.inst	0x012e0c00 ; undefined
 1a8:	0e03193f 	uzp1	v31.8b, v9.8b, v3.8b
 1ac:	0b3b0b3a 	add	w26, w25, w27, uxtb #2
 1b0:	13490b39 	.inst	0x13490b39 ; undefined
 1b4:	0000193c 	udf	#6460
 1b8:	00050100 	.inst	0x00050100 ; undefined
 1bc:	213a0e03 	.inst	0x213a0e03 ; undefined
 1c0:	01213b01 	.inst	0x01213b01 ; undefined
 1c4:	13490b39 	.inst	0x13490b39 ; undefined
 1c8:	00001802 	udf	#6146
 1cc:	25011102 	cmpge	p2.b, p4/z, z8.b, #1
 1d0:	030b130e 	.inst	0x030b130e ; undefined
 1d4:	111f1b1f 	add	wsp, w24, #0x7c6
 1d8:	10071201 	adr	x1, e418 <InputBufferOverflowMessage-0x71be8>
 1dc:	03000017 	.inst	0x03000017 ; undefined
 1e0:	193f012e 	.inst	0x193f012e ; undefined
 1e4:	0b3a0803 	add	w3, w0, w26, uxtb #2
 1e8:	0b390b3b 	add	w27, w25, w25, uxtb #2
 1ec:	13491927 	.inst	0x13491927 ; undefined
 1f0:	07120111 	.inst	0x07120111 ; undefined
 1f4:	197a1840 	.inst	0x197a1840 ; undefined
 1f8:	00001301 	udf	#4865
 1fc:	03003404 	.inst	0x03003404 ; undefined
 200:	3b0b3a0e 	.inst	0x3b0b3a0e ; undefined
 204:	490b390b 	.inst	0x490b390b ; undefined
 208:	00180213 	.inst	0x00180213 ; undefined
 20c:	00240500 	.inst	0x00240500 ; NYI
 210:	0b3e0b0b 	add	w11, w24, w30, uxtb #2
 214:	00000803 	udf	#2051
 218:	00240100 	.inst	0x00240100 ; NYI
 21c:	0b3e0b0b 	add	w11, w24, w30, uxtb #2
 220:	00000e03 	udf	#3587
 224:	49003502 	.inst	0x49003502 ; undefined
 228:	03000013 	.inst	0x03000013 ; undefined
 22c:	0e250111 	saddl	v17.8h, v8.8b, v5.8b
 230:	1f030b13 	fmadd	s19, s24, s3, s2
 234:	01111f1b 	.inst	0x01111f1b ; undefined
 238:	17100712 	b	fffffffffc401e80 <__stack_top+0xfffffffffc37fc40>
 23c:	01040000 	.inst	0x01040000 ; undefined
 240:	01134901 	.inst	0x01134901 ; undefined
 244:	05000013 	orr	z19.s, z19.s, #0x1
 248:	13490021 	.inst	0x13490021 ; undefined
 24c:	00000b2f 	udf	#2863
 250:	03003406 	.inst	0x03003406 ; undefined
 254:	3b0b3a0e 	.inst	0x3b0b3a0e ; undefined
 258:	490b390b 	.inst	0x490b390b ; undefined
 25c:	88193f13 	stxr	w25, w19, [x24]
 260:	18020b01 	ldr	w1, 43c0 <InputBufferOverflowMessage-0x7bc40>
 264:	2e070000 	ext	v0.8b, v0.8b, v7.8b, #0
 268:	03193f01 	.inst	0x03193f01 ; undefined
 26c:	3b0b3a0e 	.inst	0x3b0b3a0e ; undefined
 270:	270b390b 	.inst	0x270b390b ; undefined
 274:	11134919 	add	w25, w8, #0x4d2
 278:	40071201 	.inst	0x40071201 ; undefined
 27c:	01197a18 	.inst	0x01197a18 ; undefined
 280:	08000013 	stxrb	w0, w19, [x0]
 284:	08030005 	stxrb	w3, w5, [x0]
 288:	0b3b0b3a 	add	w26, w25, w27, uxtb #2
 28c:	13490b39 	.inst	0x13490b39 ; undefined
 290:	00001802 	udf	#6146
 294:	03003409 	.inst	0x03003409 ; undefined
 298:	3b0b3a08 	.inst	0x3b0b3a08 ; undefined
 29c:	490b390b 	.inst	0x490b390b ; undefined
 2a0:	00180213 	.inst	0x00180213 ; undefined
 2a4:	00240a00 	.inst	0x00240a00 ; NYI
 2a8:	0b3e0b0b 	add	w11, w24, w30, uxtb #2
 2ac:	00000803 	udf	#2051
 2b0:	00050100 	.inst	0x00050100 ; undefined
 2b4:	213a0e03 	.inst	0x213a0e03 ; undefined
 2b8:	390b3b01 	strb	w1, [x24, #718]
 2bc:	0213490b 	.inst	0x0213490b ; undefined
 2c0:	02000018 	.inst	0x02000018 ; undefined
 2c4:	0e250111 	saddl	v17.8h, v8.8b, v5.8b
 2c8:	1f030b13 	fmadd	s19, s24, s3, s2
 2cc:	01111f1b 	.inst	0x01111f1b ; undefined
 2d0:	17100712 	b	fffffffffc401f18 <__stack_top+0xfffffffffc37fcd8>
 2d4:	2e030000 	ext	v0.8b, v0.8b, v3.8b, #0
 2d8:	03193f00 	.inst	0x03193f00 ; undefined
 2dc:	3b0b3a0e 	.inst	0x3b0b3a0e ; undefined
 2e0:	110b390b 	add	w11, w8, #0x2ce
 2e4:	40071201 	.inst	0x40071201 ; undefined
 2e8:	00197c18 	.inst	0x00197c18 ; undefined
 2ec:	012e0400 	.inst	0x012e0400 ; undefined
 2f0:	0e03193f 	uzp1	v31.8b, v9.8b, v3.8b
 2f4:	0b3b0b3a 	add	w26, w25, w27, uxtb #2
 2f8:	19270b39 	.inst	0x19270b39 ; undefined
 2fc:	07120111 	.inst	0x07120111 ; undefined
 300:	197c1840 	.inst	0x197c1840 ; undefined
 304:	00001301 	udf	#4865
 308:	0b002405 	add	w5, w0, w0, lsl #9
 30c:	030b3e0b 	.inst	0x030b3e0b ; undefined
 310:	06000008 	.inst	0x06000008 ; undefined
 314:	193f012e 	.inst	0x193f012e ; undefined
 318:	0b3a0803 	add	w3, w0, w26, uxtb #2
 31c:	0b390b3b 	add	w27, w25, w25, uxtb #2
 320:	01111927 	.inst	0x01111927 ; undefined
 324:	18400712 	ldr	w18, 80404 <CommandController+0x58>
 328:	1301197a 	sbfx	w26, w11, #1, #6
 32c:	05070000 	.inst	0x05070000 ; undefined
 330:	3a080300 	adcs	w0, w24, w8
 334:	390b3b0b 	strb	w11, [x24, #718]
 338:	0213490b 	.inst	0x0213490b ; undefined
 33c:	08000018 	stxrb	w0, w24, [x0]
 340:	0b0b0024 	add	w4, w1, w11
 344:	0e030b3e 	.inst	0x0e030b3e ; undefined
 348:	01000000 	.inst	0x01000000 ; undefined
 34c:	13490005 	.inst	0x13490005 ; undefined
 350:	2e020000 	ext	v0.8b, v0.8b, v2.8b, #0
 354:	03193f01 	.inst	0x03193f01 ; undefined
 358:	3b0b3a0e 	.inst	0x3b0b3a0e ; undefined
 35c:	0621390b 	.inst	0x0621390b ; undefined
 360:	193c1927 	.inst	0x193c1927 ; undefined
 364:	00001301 	udf	#4865
 368:	00001803 	udf	#6147
 36c:	012e0400 	.inst	0x012e0400 ; undefined
 370:	0e03193f 	uzp1	v31.8b, v9.8b, v3.8b
 374:	3b02213a 	.inst	0x3b02213a ; undefined
 378:	0621390b 	.inst	0x0621390b ; undefined
 37c:	1301193c 	sbfx	w28, w9, #1, #6
 380:	34050000 	cbz	w0, a380 <InputBufferOverflowMessage-0x75c80>
 384:	3a0e0300 	adcs	w0, w24, w14
 388:	0b3b0121 	add	w1, w9, w27, uxtb
 38c:	13490b39 	.inst	0x13490b39 ; undefined
 390:	00001802 	udf	#6146
 394:	03002806 	.inst	0x03002806 ; undefined
 398:	000b1c0e 	.inst	0x000b1c0e ; undefined
 39c:	00240700 	.inst	0x00240700 ; NYI
 3a0:	0b3e0b0b 	add	w11, w24, w30, uxtb #2
 3a4:	00000e03 	udf	#3587
 3a8:	03000508 	.inst	0x03000508 ; undefined
 3ac:	01213a0e 	.inst	0x01213a0e ; undefined
 3b0:	391b213b 	strb	w27, [x9, #1736]
 3b4:	0213490b 	.inst	0x0213490b ; undefined
 3b8:	09000018 	.inst	0x09000018 ; undefined
 3bc:	0e030028 	tbl	v8.8b, {v1.16b}, v3.8b
 3c0:	0000051c 	udf	#1308
 3c4:	0b000f0a 	add	w10, w24, w0, lsl #3
 3c8:	13490821 	.inst	0x13490821 ; undefined
 3cc:	050b0000 	.inst	0x050b0000 ; undefined
 3d0:	3a080300 	adcs	w0, w24, w8
 3d4:	0b3b0121 	add	w1, w9, w27, uxtb
 3d8:	13490b39 	.inst	0x13490b39 ; undefined
 3dc:	00001802 	udf	#6146
 3e0:	2501110c 	cmpge	p12.b, p4/z, z8.b, #1
 3e4:	030b130e 	.inst	0x030b130e ; undefined
 3e8:	111f1b1f 	add	wsp, w24, #0x7c6
 3ec:	10071201 	adr	x1, e62c <InputBufferOverflowMessage-0x719d4>
 3f0:	0d000017 	st1	{v23.b}[0], [x0]
 3f4:	0e030104 	tbl	v4.8b, {v8.16b}, v3.8b
 3f8:	0b0b0b3e 	add	w30, w25, w11, lsl #2
 3fc:	0b3a1349 	add	w9, w26, w26, uxtb #4
 400:	0b390b3b 	add	w27, w25, w25, uxtb #2
 404:	00001301 	udf	#4865
 408:	0300280e 	.inst	0x0300280e ; undefined
 40c:	000d1c0e 	.inst	0x000d1c0e ; undefined
 410:	00240f00 	.inst	0x00240f00 ; NYI
 414:	0b3e0b0b 	add	w11, w24, w30, uxtb #2
 418:	00000803 	udf	#2051
 41c:	3f012e10 	.inst	0x3f012e10 ; undefined
 420:	3a0e0319 	adcs	w25, w24, w14
 424:	390b3b0b 	strb	w11, [x24, #718]
 428:	4919270b 	.inst	0x4919270b ; undefined
 42c:	01193c13 	.inst	0x01193c13 ; undefined
 430:	11000013 	add	w19, w0, #0x0
 434:	193f012e 	.inst	0x193f012e ; undefined
 438:	0b3a0e03 	add	w3, w16, w26, uxtb #3
 43c:	0b390b3b 	add	w27, w25, w25, uxtb #2
 440:	193c1349 	.inst	0x193c1349 ; undefined
 444:	00001301 	udf	#4865
 448:	3f012e12 	.inst	0x3f012e12 ; undefined
 44c:	3a0e0319 	adcs	w25, w24, w14
 450:	390b3b0b 	strb	w11, [x24, #718]
 454:	4919270b 	.inst	0x4919270b ; undefined
 458:	12011113 	and	w19, w8, #0x8000000f
 45c:	7a184007 	.inst	0x7a184007 ; undefined
 460:	00130119 	.inst	0x00130119 ; undefined
 464:	012e1300 	.inst	0x012e1300 ; undefined
 468:	0e03193f 	uzp1	v31.8b, v9.8b, v3.8b
 46c:	0b3b0b3a 	add	w26, w25, w27, uxtb #2
 470:	19270b39 	.inst	0x19270b39 ; undefined
 474:	07120111 	.inst	0x07120111 ; undefined
 478:	197c1840 	.inst	0x197c1840 ; undefined
 47c:	00001301 	udf	#4865
 480:	3f012e14 	.inst	0x3f012e14 ; undefined
 484:	3a0e0319 	adcs	w25, w24, w14
 488:	390b3b0b 	strb	w11, [x24, #718]
 48c:	1201110b 	and	w11, w8, #0x8000000f
 490:	7c184007 	stur	h7, [x0, #-124]
 494:	00130119 	.inst	0x00130119 ; undefined
 498:	01011500 	.inst	0x01011500 ; undefined
 49c:	13011349 	sbfx	w9, w26, #1, #4
 4a0:	21160000 	.inst	0x21160000 ; undefined
 4a4:	2f134900 	.inst	0x2f134900 ; undefined
 4a8:	0000000b 	udf	#11
 4ac:	10001101 	adr	x1, 6cc <InputBufferOverflowMessage-0x7f934>
 4b0:	12011117 	and	w23, w8, #0x8000000f
 4b4:	1b0e030f 	madd	w15, w24, w14, w0
 4b8:	130e250e 	sbfiz	w14, w8, #18, #10
 4bc:	00000005 	udf	#5
 4c0:	03000501 	.inst	0x03000501 ; undefined
 4c4:	01213a08 	.inst	0x01213a08 ; undefined
 4c8:	0b390b3b 	add	w27, w25, w25, uxtb #2
 4cc:	18021349 	ldr	w9, 4734 <InputBufferOverflowMessage-0x7b8cc>
 4d0:	34020000 	cbz	w0, 44d0 <InputBufferOverflowMessage-0x7bb30>
 4d4:	3a080300 	adcs	w0, w24, w8
 4d8:	0b3b0121 	add	w1, w9, w27, uxtb
 4dc:	49092139 	.inst	0x49092139 ; undefined
 4e0:	00180213 	.inst	0x00180213 ; undefined
 4e4:	012e0300 	.inst	0x012e0300 ; undefined
 4e8:	0e03193f 	uzp1	v31.8b, v9.8b, v3.8b
 4ec:	3b01213a 	.inst	0x3b01213a ; undefined
 4f0:	0621390b 	.inst	0x0621390b ; undefined
 4f4:	01111927 	.inst	0x01111927 ; undefined
 4f8:	18400712 	ldr	w18, 805d8 <_start>
 4fc:	1301197c 	sbfx	w28, w11, #1, #6
 500:	34040000 	cbz	w0, 8500 <InputBufferOverflowMessage-0x77b00>
 504:	3a0e0300 	adcs	w0, w24, w14
 508:	0b3b0121 	add	w1, w9, w27, uxtb
 50c:	13490b39 	.inst	0x13490b39 ; undefined
 510:	00001802 	udf	#6146
 514:	49000505 	.inst	0x49000505 ; undefined
 518:	06000013 	.inst	0x06000013 ; undefined
 51c:	0b0b0024 	add	w4, w1, w11
 520:	0e030b3e 	.inst	0x0e030b3e ; undefined
 524:	05070000 	.inst	0x05070000 ; undefined
 528:	3a0e0300 	adcs	w0, w24, w14
 52c:	0b3b0121 	add	w1, w9, w27, uxtb
 530:	13490b39 	.inst	0x13490b39 ; undefined
 534:	00001802 	udf	#6146
 538:	25011108 	cmpge	p8.b, p4/z, z8.b, #1
 53c:	030b130e 	.inst	0x030b130e ; undefined
 540:	111f1b1f 	add	wsp, w24, #0x7c6
 544:	10071201 	adr	x1, e784 <InputBufferOverflowMessage-0x7187c>
 548:	09000017 	.inst	0x09000017 ; undefined
 54c:	193f012e 	.inst	0x193f012e ; undefined
 550:	0b3a0803 	add	w3, w0, w26, uxtb #2
 554:	0b390b3b 	add	w27, w25, w25, uxtb #2
 558:	13491927 	.inst	0x13491927 ; undefined
 55c:	1301193c 	sbfx	w28, w9, #1, #6
 560:	240a0000 	cmphs	p0.b, p0/z, z0.b, z10.b
 564:	3e0b0b00 	.inst	0x3e0b0b00 ; undefined
 568:	0008030b 	.inst	0x0008030b ; undefined
 56c:	000f0b00 	.inst	0x000f0b00 ; undefined
 570:	13490b0b 	.inst	0x13490b0b ; undefined
 574:	2e0c0000 	ext	v0.8b, v0.8b, v12.8b, #0
 578:	03193f01 	.inst	0x03193f01 ; undefined
 57c:	3b0b3a0e 	.inst	0x3b0b3a0e ; undefined
 580:	270b390b 	.inst	0x270b390b ; undefined
 584:	11134919 	add	w25, w8, #0x4d2
 588:	40071201 	.inst	0x40071201 ; undefined
 58c:	01197a18 	.inst	0x01197a18 ; undefined
 590:	0d000013 	st1	{v19.b}[0], [x0]
 594:	193f012e 	.inst	0x193f012e ; undefined
 598:	0b3a0e03 	add	w3, w16, w26, uxtb #3
 59c:	0b390b3b 	add	w27, w25, w25, uxtb #2
 5a0:	01111927 	.inst	0x01111927 ; undefined
 5a4:	18400712 	ldr	w18, 80684 <strcmp+0x64>
 5a8:	1301197a 	sbfx	w26, w11, #1, #6
 5ac:	2e0e0000 	ext	v0.8b, v0.8b, v14.8b, #0
 5b0:	03193f01 	.inst	0x03193f01 ; undefined
 5b4:	3b0b3a0e 	.inst	0x3b0b3a0e ; undefined
 5b8:	270b390b 	.inst	0x270b390b ; undefined
 5bc:	11134919 	add	w25, w8, #0x4d2
 5c0:	40071201 	.inst	0x40071201 ; undefined
 5c4:	00197c18 	.inst	0x00197c18 ; undefined
 5c8:	05010000 	orr	z0.s, z0.s, #0x1
 5cc:	3a080300 	adcs	w0, w24, w8
 5d0:	0b3b0121 	add	w1, w9, w27, uxtb
 5d4:	13490b39 	.inst	0x13490b39 ; undefined
 5d8:	00001802 	udf	#6146
 5dc:	0b002402 	add	w2, w0, w0, lsl #9
 5e0:	030b3e0b 	.inst	0x030b3e0b ; undefined
 5e4:	0300000e 	.inst	0x0300000e ; undefined
 5e8:	08030034 	stxrb	w3, w20, [x1]
 5ec:	3b01213a 	.inst	0x3b01213a ; undefined
 5f0:	490b390b 	.inst	0x490b390b ; undefined
 5f4:	00180213 	.inst	0x00180213 ; undefined
 5f8:	01110400 	.inst	0x01110400 ; undefined
 5fc:	0b130e25 	add	w5, w17, w19, lsl #3
 600:	1f1b1f03 	fmadd	s3, s24, s27, s7
 604:	07120111 	.inst	0x07120111 ; undefined
 608:	00001710 	udf	#5904
 60c:	3f012e05 	.inst	0x3f012e05 ; undefined
 610:	3a0e0319 	adcs	w25, w24, w14
 614:	390b3b0b 	strb	w11, [x24, #718]
 618:	1119270b 	add	w11, w24, #0x649
 61c:	40071201 	.inst	0x40071201 ; undefined
 620:	01197c18 	.inst	0x01197c18 ; undefined
 624:	06000013 	.inst	0x06000013 ; undefined
 628:	0b0b000f 	add	w15, w0, w11
 62c:	00001349 	udf	#4937
 630:	3f012e07 	.inst	0x3f012e07 ; undefined
 634:	3a0e0319 	adcs	w25, w24, w14
 638:	390b3b0b 	strb	w11, [x24, #718]
 63c:	1113490b 	add	w11, w8, #0x4d2
 640:	40071201 	.inst	0x40071201 ; undefined
 644:	01197a18 	.inst	0x01197a18 ; undefined
 648:	08000013 	stxrb	w0, w19, [x0]
 64c:	193f012e 	.inst	0x193f012e ; undefined
 650:	0b3a0e03 	add	w3, w16, w26, uxtb #3
 654:	0b390b3b 	add	w27, w25, w25, uxtb #2
 658:	01111927 	.inst	0x01111927 ; undefined
 65c:	18400712 	ldr	w18, 8073c <strlen>
 660:	1301197a 	sbfx	w26, w11, #1, #6
 664:	2e090000 	ext	v0.8b, v0.8b, v9.8b, #0
 668:	03193f01 	.inst	0x03193f01 ; undefined
 66c:	3b0b3a0e 	.inst	0x3b0b3a0e ; undefined
 670:	110b390b 	add	w11, w8, #0x2ce
 674:	40071201 	.inst	0x40071201 ; undefined
 678:	00197a18 	.inst	0x00197a18 ; undefined
	...

Disassembly of section .debug_aranges:

0000000000000000 <.debug_aranges>:
   0:	0000002c 	udf	#44
   4:	00000002 	udf	#2
   8:	00080000 	.inst	0x00080000 ; undefined
   c:	00000000 	udf	#0
  10:	00080000 	.inst	0x00080000 ; undefined
  14:	00000000 	udf	#0
  18:	00000178 	udf	#376
	...
  30:	0000002c 	udf	#44
  34:	019a0002 	.inst	0x019a0002 ; undefined
  38:	00080000 	.inst	0x00080000 ; undefined
  3c:	00000000 	udf	#0
  40:	00080178 	.inst	0x00080178 ; undefined
  44:	00000000 	udf	#0
  48:	00000044 	udf	#68
	...
  60:	0000002c 	udf	#44
  64:	02540002 	.inst	0x02540002 ; undefined
  68:	00080000 	.inst	0x00080000 ; undefined
  6c:	00000000 	udf	#0
  70:	000801bc 	.inst	0x000801bc ; undefined
  74:	00000000 	udf	#0
  78:	0000004c 	udf	#76
	...
  90:	0000002c 	udf	#44
  94:	02d60002 	.inst	0x02d60002 ; undefined
  98:	00080000 	.inst	0x00080000 ; undefined
  9c:	00000000 	udf	#0
  a0:	00080208 	.inst	0x00080208 ; undefined
  a4:	00000000 	udf	#0
  a8:	000000a4 	udf	#164
	...
  c0:	0000002c 	udf	#44
  c4:	03900002 	.inst	0x03900002 ; undefined
  c8:	00080000 	.inst	0x00080000 ; undefined
  cc:	00000000 	udf	#0
  d0:	000802ac 	.inst	0x000802ac ; undefined
  d4:	00000000 	udf	#0
  d8:	000000a4 	udf	#164
	...
  f0:	0000002c 	udf	#44
  f4:	04500002 	mul	z2.h, p0/m, z2.h, z0.h
  f8:	00080000 	.inst	0x00080000 ; undefined
  fc:	00000000 	udf	#0
 100:	00080350 	.inst	0x00080350 ; undefined
 104:	00000000 	udf	#0
 108:	00000284 	udf	#644
	...
 120:	0000002c 	udf	#44
 124:	06830002 	.inst	0x06830002 ; undefined
 128:	00080000 	.inst	0x00080000 ; undefined
 12c:	00000000 	udf	#0
 130:	000805d8 	.inst	0x000805d8 ; undefined
 134:	00000000 	udf	#0
 138:	00000048 	udf	#72
	...
 150:	0000002c 	udf	#44
 154:	06ab0002 	.inst	0x06ab0002 ; undefined
 158:	00080000 	.inst	0x00080000 ; undefined
 15c:	00000000 	udf	#0
 160:	00080620 	.inst	0x00080620 ; undefined
 164:	00000000 	udf	#0
 168:	000003dc 	udf	#988
	...
 180:	0000002c 	udf	#44
 184:	08db0002 	ldlarb	w2, [x0]
 188:	00080000 	.inst	0x00080000 ; undefined
 18c:	00000000 	udf	#0
 190:	000809fc 	.inst	0x000809fc ; undefined
 194:	00000000 	udf	#0
 198:	00000204 	udf	#516
	...

Disassembly of section .debug_line:

0000000000000000 <.debug_line>:
   0:	00000094 	udf	#148
   4:	00080005 	.inst	0x00080005 ; undefined
   8:	0000003d 	udf	#61
   c:	fb010104 	.inst	0xfb010104 ; undefined
  10:	01000d0e 	.inst	0x01000d0e ; undefined
  14:	00010101 	.inst	0x00010101 ; undefined
  18:	00010000 	.inst	0x00010000 ; undefined
  1c:	01010100 	.inst	0x01010100 ; undefined
  20:	0000021f 	udf	#543
  24:	00260000 	.inst	0x00260000 ; NYI
  28:	01020000 	.inst	0x01020000 ; undefined
  2c:	050f021f 	.inst	0x050f021f ; undefined
  30:	0000001c 	udf	#28
  34:	00001c01 	udf	#7169
  38:	002a0100 	.inst	0x002a0100 ; NYI
  3c:	33010000 	bfi	w0, w0, #31, #1
  40:	01000000 	.inst	0x01000000 ; undefined
  44:	0000003a 	udf	#58
  48:	00010501 	.inst	0x00010501 ; undefined
  4c:	00000209 	udf	#521
  50:	00000008 	udf	#8
  54:	05180000 	mov	z0.b, p8/z, #0
  58:	2f3d3d05 	.inst	0x2f3d3d05 ; undefined
  5c:	3d01053e 	str	b30, [x9, #65]
  60:	2f05053f 	mvni	v31.2s, #0xa9
  64:	3d3d3d3d 	str	b29, [x9, #3919]
  68:	3d01053d 	str	b29, [x9, #65]
  6c:	2f05053f 	mvni	v31.2s, #0xa9
  70:	3f3d0105 	.inst	0x3f3d0105 ; undefined
  74:	05320505 	ext	z5.b, z5.b, z8.b, #145
  78:	0505510a 	.inst	0x0505510a ; undefined
  7c:	2f2f682e 	.inst	0x2f2f682e ; undefined
  80:	3f3d0105 	.inst	0x3f3d0105 ; undefined
  84:	3d3d0505 	str	b5, [x8, #3905]
  88:	3d01052f 	str	b15, [x9, #65]
  8c:	2f05053f 	mvni	v31.2s, #0xa9
  90:	023d0105 	.inst	0x023d0105 ; undefined
  94:	01010003 	.inst	0x01010003 ; undefined
  98:	00000065 	udf	#101
  9c:	00080005 	.inst	0x00080005 ; undefined
  a0:	00000037 	udf	#55
  a4:	fb010104 	.inst	0xfb010104 ; undefined
  a8:	01000d0e 	.inst	0x01000d0e ; undefined
  ac:	00010101 	.inst	0x00010101 ; undefined
  b0:	00010000 	.inst	0x00010000 ; undefined
  b4:	01010100 	.inst	0x01010100 ; undefined
  b8:	0000031f 	udf	#799
  bc:	004f0000 	.inst	0x004f0000 ; undefined
  c0:	00260000 	.inst	0x00260000 ; NYI
  c4:	01020000 	.inst	0x01020000 ; undefined
  c8:	030f021f 	.inst	0x030f021f ; undefined
  cc:	00000048 	udf	#72
  d0:	00004801 	udf	#18433
  d4:	00330100 	.inst	0x00330100 ; NYI
  d8:	05020000 	orr	z0.d, z0.d, #0x1
  dc:	0209000c 	.inst	0x0209000c ; undefined
  e0:	00080178 	.inst	0x00080178 ; undefined
  e4:	00000000 	udf	#0
  e8:	30020515 	adr	x21, 4189 <InputBufferOverflowMessage-0x7be77>
  ec:	23010523 	.inst	0x23010523 ; undefined
  f0:	053e1505 	ext	z5.b, z5.b, z8.b, #245
  f4:	05053010 	.inst	0x05053010 ; undefined
  f8:	2f010542 	mvni	v2.2s, #0x2a
  fc:	01000302 	.inst	0x01000302 ; undefined
 100:	00006a01 	udf	#27137
 104:	08000500 	stxrb	w0, w0, [x8]
 108:	00002e00 	udf	#11776
 10c:	01010400 	.inst	0x01010400 ; undefined
 110:	000d0efb 	.inst	0x000d0efb ; undefined
 114:	01010101 	.inst	0x01010101 ; undefined
 118:	01000000 	.inst	0x01000000 ; undefined
 11c:	01010000 	.inst	0x01010000 ; undefined
 120:	00021f01 	.inst	0x00021f01 ; undefined
 124:	26000000 	.inst	0x26000000 ; undefined
 128:	02000000 	.inst	0x02000000 ; undefined
 12c:	0f021f01 	.inst	0x0f021f01 ; undefined
 130:	00005802 	udf	#22530
 134:	00580100 	.inst	0x00580100 ; undefined
 138:	05010000 	orr	z0.s, z0.s, #0x1
 13c:	02090001 	.inst	0x02090001 ; undefined
 140:	000801bc 	.inst	0x000801bc ; undefined
 144:	00000000 	udf	#0
 148:	3d090513 	str	b19, [x8, #577]
 14c:	052f0505 	ext	z5.b, z5.b, z8.b, #121
 150:	04020010 	.inst	0x04020010 ; undefined
 154:	23052202 	.inst	0x23052202 ; undefined
 158:	02040200 	.inst	0x02040200 ; undefined
 15c:	00160548 	.inst	0x00160548 ; undefined
 160:	3c010402 	str	b2, [x0], #16
 164:	05400c05 	eor	z5.h, z5.h, #0x8000
 168:	02022101 	.inst	0x02022101 ; undefined
 16c:	96010100 	bl	fffffffff804056c <__stack_top+0xfffffffff7fbe32c>
 170:	05000000 	orr	z0.s, z0.s, #0x1
 174:	2e000800 	ext	v0.8b, v0.8b, v0.8b, #1
 178:	04000000 	add	z0.b, p0/m, z0.b, z0.b
 17c:	0efb0101 	.inst	0x0efb0101 ; undefined
 180:	0101000d 	.inst	0x0101000d ; undefined
 184:	00000101 	udf	#257
 188:	00000100 	udf	#256
 18c:	1f010101 	fmadd	s1, s8, s1, s0
 190:	00000002 	udf	#2
 194:	00002600 	udf	#9728
 198:	1f010200 	fmadd	s0, s16, s1, s0
 19c:	63020f02 	.inst	0x63020f02 ; undefined
 1a0:	01000000 	.inst	0x01000000 ; undefined
 1a4:	00000063 	udf	#99
 1a8:	00010501 	.inst	0x00010501 ; undefined
 1ac:	02080209 	.inst	0x02080209 ; undefined
 1b0:	00000008 	udf	#8
 1b4:	2d030000 	stp	s0, s0, [x0, #24]
 1b8:	2f480501 	.inst	0x2f480501 ; undefined
 1bc:	052e1805 	ext	z5.b, z5.b, z0.b, #118
 1c0:	12052e3c 	and	w28, w17, #0xf800007f
 1c4:	00080520 	.inst	0x00080520 ; undefined
 1c8:	30010402 	adr	x2, 2249 <InputBufferOverflowMessage-0x7ddb7>
 1cc:	02002305 	.inst	0x02002305 ; undefined
 1d0:	05200104 	ext	z4.b, z4.b, z8.b, #0
 1d4:	11055a05 	add	w5, w16, #0x156
 1d8:	000c052e 	.inst	0x000c052e ; undefined
 1dc:	32010402 	orr	w2, w0, #0x80000001
 1e0:	02002705 	.inst	0x02002705 ; undefined
 1e4:	05200104 	ext	z4.b, z4.b, z8.b, #0
 1e8:	04020034 	.inst	0x04020034 ; undefined
 1ec:	27053c01 	.inst	0x27053c01 ; undefined
 1f0:	01040200 	.inst	0x01040200 ; undefined
 1f4:	30110520 	adr	x0, 22299 <InputBufferOverflowMessage-0x5dd67>
 1f8:	053c0b05 	ext	z5.b, z5.b, z24.b, #226
 1fc:	1b053e18 	madd	w24, w16, w5, w15
 200:	4d01053c 	.inst	0x4d01053c ; undefined
 204:	01000202 	.inst	0x01000202 ; undefined
 208:	00006601 	udf	#26113
 20c:	08000500 	stxrb	w0, w0, [x8]
 210:	00002e00 	udf	#11776
 214:	01010400 	.inst	0x01010400 ; undefined
 218:	000d0efb 	.inst	0x000d0efb ; undefined
 21c:	01010101 	.inst	0x01010101 ; undefined
 220:	01000000 	.inst	0x01000000 ; undefined
 224:	01010000 	.inst	0x01010000 ; undefined
 228:	00021f01 	.inst	0x00021f01 ; undefined
 22c:	26000000 	.inst	0x26000000 ; undefined
 230:	02000000 	.inst	0x02000000 ; undefined
 234:	0f021f01 	.inst	0x0f021f01 ; undefined
 238:	00006e02 	udf	#28162
 23c:	006e0100 	.inst	0x006e0100 ; undefined
 240:	05010000 	orr	z0.s, z0.s, #0x1
 244:	02090025 	.inst	0x02090025 ; undefined
 248:	000802ac 	.inst	0x000802ac ; undefined
 24c:	00000000 	udf	#0
 250:	3d060516 	str	b22, [x8, #385]
 254:	052e1905 	ext	z5.b, z5.b, z8.b, #118
 258:	15052f01 	b	414be5c <__stack_top+0x40c9c1c>
 25c:	3d03053e 	str	b30, [x9, #193]
 260:	75010559 	.inst	0x75010559 ; undefined
 264:	053e1505 	ext	z5.b, z5.b, z8.b, #245
 268:	054b2f03 	.inst	0x054b2f03 ; undefined
 26c:	03024b01 	.inst	0x03024b01 ; undefined
 270:	34010100 	cbz	w0, 2290 <InputBufferOverflowMessage-0x7dd70>
 274:	05000001 	orr	z1.s, z1.s, #0x1
 278:	42000800 	.inst	0x42000800 ; undefined
 27c:	04000000 	add	z0.b, p0/m, z0.b, z0.b
 280:	0efb0101 	.inst	0x0efb0101 ; undefined
 284:	0101000d 	.inst	0x0101000d ; undefined
 288:	00000101 	udf	#257
 28c:	00000100 	udf	#256
 290:	1f010101 	fmadd	s1, s8, s1, s0
 294:	00000002 	udf	#2
 298:	00002600 	udf	#9728
 29c:	1f010200 	fmadd	s0, s16, s1, s0
 2a0:	7b060f02 	.inst	0x7b060f02 ; undefined
 2a4:	01000000 	.inst	0x01000000 ; undefined
 2a8:	0000007b 	udf	#123
 2ac:	00008301 	udf	#33537
 2b0:	00330100 	.inst	0x00330100 ; NYI
 2b4:	3a010000 	adcs	w0, w0, w1
 2b8:	01000000 	.inst	0x01000000 ; undefined
 2bc:	0000008d 	udf	#141
 2c0:	00010501 	.inst	0x00010501 ; undefined
 2c4:	03500209 	.inst	0x03500209 ; undefined
 2c8:	00000008 	udf	#8
 2cc:	05180000 	mov	z0.b, p8/z, #0
 2d0:	05052f09 	.inst	0x05052f09 ; undefined
 2d4:	16054c25 	b	fffffffff8153368 <__stack_top+0xfffffffff80d1128>
 2d8:	01040200 	.inst	0x01040200 ; undefined
 2dc:	00100540 	.inst	0x00100540 ; undefined
 2e0:	30010402 	adr	x2, 2361 <InputBufferOverflowMessage-0x7dc9f>
 2e4:	02000205 	.inst	0x02000205 ; undefined
 2e8:	053e0104 	ext	z4.b, z4.b, z8.b, #240
 2ec:	04020014 	.inst	0x04020014 ; undefined
 2f0:	01057001 	.inst	0x01057001 ; undefined
 2f4:	05200903 	ext	z3.b, z3.b, z8.b, #2
 2f8:	053f6708 	zip2	z8.b, z24.b, z31.b
 2fc:	0c053e0e 	.inst	0x0c053e0e ; undefined
 300:	2f04052e 	mvni	v14.2s, #0x89
 304:	052e0d05 	ext	z5.b, z5.b, z8.b, #115
 308:	2f2f3e02 	.inst	0x2f2f3e02 ; undefined
 30c:	053e0d05 	ext	z5.b, z5.b, z8.b, #243
 310:	0d053e09 	.inst	0x0d053e09 ; undefined
 314:	2e0c0530 	.inst	0x2e0c0530 ; undefined
 318:	05300d05 	ext	z5.b, z5.b, z8.b, #131
 31c:	13054015 	sbfx	w21, w0, #5, #12
 320:	2e20053c 	uhadd	v28.8b, v9.8b, v0.8b
 324:	05221705 	ext	z5.b, z5.b, z24.b, #21
 328:	34054a15 	cbz	w21, ac68 <InputBufferOverflowMessage-0x75398>
 32c:	01040200 	.inst	0x01040200 ; undefined
 330:	2f10052e 	ushr	v14.4h, v9.4h, #16
 334:	054a0e05 	.inst	0x054a0e05 ; undefined
 338:	0402002d 	.inst	0x0402002d ; undefined
 33c:	10052e01 	adr	x1, a8fc <InputBufferOverflowMessage-0x75704>
 340:	4a0e052f 	eor	w15, w9, w14, lsl #1
 344:	02002d05 	.inst	0x02002d05 ; undefined
 348:	052e0104 	ext	z4.b, z4.b, z8.b, #112
 34c:	0e052f10 	smov	w16, v24.b[2]
 350:	002d054a 	.inst	0x002d054a ; NYI
 354:	2e010402 	.inst	0x2e010402 ; undefined
 358:	310d052f 	adds	w15, w9, #0x341
 35c:	4c2f0205 	.inst	0x4c2f0205 ; undefined
 360:	054c0d05 	.inst	0x054c0d05 ; undefined
 364:	06053e09 	.inst	0x06053e09 ; undefined
 368:	2e050530 	.inst	0x2e050530 ; undefined
 36c:	05300e05 	ext	z5.b, z5.b, z16.b, #131
 370:	19053c0c 	.inst	0x19053c0c ; undefined
 374:	2f07052e 	mvni	v14.2s, #0xe9
 378:	052e1005 	ext	z5.b, z5.b, z0.b, #116
 37c:	4a560306 	eor	w6, w24, w22, lsr #0
 380:	2d030105 	stp	s5, s0, [x8, #24]
 384:	0d053120 	.inst	0x0d053120 ; undefined
 388:	2008052f 	.inst	0x2008052f ; undefined
 38c:	052f1005 	ext	z5.b, z5.b, z0.b, #124
 390:	10053008 	adr	x8, a990 <InputBufferOverflowMessage-0x75670>
 394:	2f0d053d 	ushr	v29.8b, v9.8b, #3
 398:	02001d05 	.inst	0x02001d05 ; undefined
 39c:	053c0104 	ext	z4.b, z4.b, z8.b, #224
 3a0:	05303d10 	.inst	0x05303d10 ; undefined
 3a4:	02022101 	.inst	0x02022101 ; undefined
 3a8:	51010100 	sub	w0, w8, #0x40
 3ac:	05000000 	orr	z0.s, z0.s, #0x1
 3b0:	2e000800 	ext	v0.8b, v0.8b, v0.8b, #1
 3b4:	04000000 	add	z0.b, p0/m, z0.b, z0.b
 3b8:	0efb0101 	.inst	0x0efb0101 ; undefined
 3bc:	0101000d 	.inst	0x0101000d ; undefined
 3c0:	00000101 	udf	#257
 3c4:	00000100 	udf	#256
 3c8:	1f010101 	fmadd	s1, s8, s1, s0
 3cc:	00000002 	udf	#2
 3d0:	00004f00 	udf	#20224
 3d4:	1f010200 	fmadd	s0, s16, s1, s0
 3d8:	95020f02 	bl	4083fe0 <__stack_top+0x4001da0>
 3dc:	01000000 	.inst	0x01000000 ; undefined
 3e0:	00000095 	udf	#149
 3e4:	02090001 	.inst	0x02090001 ; undefined
 3e8:	000805d8 	.inst	0x000805d8 ; undefined
 3ec:	00000000 	udf	#0
 3f0:	21212117 	.inst	0x21212117 ; undefined
 3f4:	23212123 	.inst	0x23212123 ; undefined
 3f8:	02232121 	.inst	0x02232121 ; undefined
 3fc:	01010008 	.inst	0x01010008 ; undefined
 400:	0000019d 	udf	#413
 404:	00080005 	.inst	0x00080005 ; undefined
 408:	00000033 	udf	#51
 40c:	fb010104 	.inst	0xfb010104 ; undefined
 410:	01000d0e 	.inst	0x01000d0e ; undefined
 414:	00010101 	.inst	0x00010101 ; undefined
 418:	00010000 	.inst	0x00010000 ; undefined
 41c:	01010100 	.inst	0x01010100 ; undefined
 420:	0000021f 	udf	#543
 424:	00260000 	.inst	0x00260000 ; NYI
 428:	01020000 	.inst	0x01020000 ; undefined
 42c:	030f021f 	.inst	0x030f021f ; undefined
 430:	000000a1 	udf	#161
 434:	0000a101 	udf	#41217
 438:	00aa0100 	.inst	0x00aa0100 ; undefined
 43c:	05010000 	orr	z0.s, z0.s, #0x1
 440:	02090001 	.inst	0x02090001 ; undefined
 444:	00080620 	.inst	0x00080620 ; undefined
 448:	00000000 	udf	#0
 44c:	4d0c0516 	.inst	0x4d0c0516 ; undefined
 450:	05200505 	ext	z5.b, z5.b, z8.b, #1
 454:	19052210 	stlurb	w16, [x16, #82]
 458:	4a0c054a 	eor	w10, w10, w12, lsl #1
 45c:	05301605 	ext	z5.b, z5.b, z16.b, #133
 460:	1a05581e 	.inst	0x1a05581e ; undefined
 464:	0023054a 	.inst	0x0023054a ; NYI
 468:	2a020402 	orr	w2, w0, w2, lsl #1
 46c:	02001505 	.inst	0x02001505 ; undefined
 470:	053c0104 	ext	z4.b, z4.b, z8.b, #224
 474:	04020013 	.inst	0x04020013 ; undefined
 478:	0f053c01 	.inst	0x0f053c01 ; undefined
 47c:	58170544 	ldr	x4, 2e524 <InputBufferOverflowMessage-0x51adc>
 480:	054a1305 	.inst	0x054a1305 ; undefined
 484:	05312101 	mov	z1.b, z8.b[8]
 488:	05054d0d 	.inst	0x05054d0d ; undefined
 48c:	000b0520 	.inst	0x000b0520 ; undefined
 490:	21030402 	.inst	0x21030402 ; undefined
 494:	02000f05 	.inst	0x02000f05 ; undefined
 498:	053c0304 	ext	z4.b, z4.b, z24.b, #224
 49c:	0402001e 	.inst	0x0402001e ; undefined
 4a0:	14053b03 	b	14f0ac <__stack_top+0xcce6c>
 4a4:	01040200 	.inst	0x01040200 ; undefined
 4a8:	4c01053c 	.inst	0x4c01053c ; undefined
 4ac:	2f09054d 	ushr	v13.8b, v10.8b, #7
 4b0:	05231105 	ext	z5.b, z5.b, z8.b, #28
 4b4:	0c053c0e 	.inst	0x0c053c0e ; undefined
 4b8:	300a0520 	adr	x0, 1455d <InputBufferOverflowMessage-0x6baa3>
 4bc:	053a0c05 	ext	z5.b, z5.b, z0.b, #211
 4c0:	0c05210d 	.inst	0x0c05210d ; undefined
 4c4:	21010524 	.inst	0x21010524 ; undefined
 4c8:	59090532 	.inst	0x59090532 ; undefined
 4cc:	05210b05 	ext	z5.b, z5.b, z24.b, #10
 4d0:	1d052117 	.inst	0x1d052117 ; undefined
 4d4:	200e05c8 	.inst	0x200e05c8 ; undefined
 4d8:	054a0c05 	.inst	0x054a0c05 ; undefined
 4dc:	12052e1d 	and	w29, w16, #0xf800007f
 4e0:	210b052e 	.inst	0x210b052e ; undefined
 4e4:	058e0c05 	.inst	0x058e0c05 ; undefined
 4e8:	0e05430b 	tbl	v11.8b, {v24.16b-v26.16b}, v5.8b
 4ec:	4a0c0521 	eor	w1, w9, w12, lsl #1
 4f0:	052e1205 	ext	z5.b, z5.b, z16.b, #116
 4f4:	08052d0e 	stxrb	w5, w14, [x8]
 4f8:	3c0c054d 	str	b13, [x10], #192
 4fc:	05210505 	ext	z5.b, z5.b, z8.b, #9
 500:	05402f01 	eor	z1.b, z1.b, #0x88
 504:	17055a09 	b	fffffffffc156d28 <__stack_top+0xfffffffffc0d4ae8>
 508:	2e0b053f 	.inst	0x2e0b053f ; undefined
 50c:	053f0505 	ext	z5.b, z5.b, z8.b, #249
 510:	08054b0d 	stxrb	w5, w13, [x24]
 514:	3d0c053f 	str	b31, [x9, #769]
 518:	053c1005 	ext	z5.b, z5.b, z0.b, #228
 51c:	17053319 	b	fffffffffc14d180 <__stack_top+0xfffffffffc0caf40>
 520:	200f053c 	.inst	0x200f053c ; undefined
 524:	053e0905 	ext	z5.b, z5.b, z8.b, #242
 528:	09052e22 	.inst	0x09052e22 ; undefined
 52c:	6801052e 	.inst	0x6801052e ; undefined
 530:	400d053f 	.inst	0x400d053f ; undefined
 534:	05200505 	ext	z5.b, z5.b, z8.b, #1
 538:	04020012 	.inst	0x04020012 ; undefined
 53c:	1c052203 	ldr	s3, a97c <InputBufferOverflowMessage-0x75684>
 540:	03040200 	.inst	0x03040200 ; undefined
 544:	0011053c 	.inst	0x0011053c ; undefined
 548:	3c030402 	str	b2, [x0], #48
 54c:	02000e05 	.inst	0x02000e05 ; undefined
 550:	053c0304 	ext	z4.b, z4.b, z24.b, #224
 554:	0402000b 	.inst	0x0402000b ; undefined
 558:	15052f03 	b	414c164 <__stack_top+0x40c9f24>
 55c:	03040200 	.inst	0x03040200 ; undefined
 560:	000a053c 	.inst	0x000a053c ; undefined
 564:	3c030402 	str	b2, [x0], #48
 568:	02002105 	.inst	0x02002105 ; undefined
 56c:	053c0304 	ext	z4.b, z4.b, z24.b, #224
 570:	0402001e 	.inst	0x0402001e ; undefined
 574:	0e052e03 	smov	w3, v16.b[2]
 578:	03040200 	.inst	0x03040200 ; undefined
 57c:	00260521 	.inst	0x00260521 ; NYI
 580:	38030402 	strb	w2, [x0], #48
 584:	02001605 	.inst	0x02001605 ; undefined
 588:	053c0104 	ext	z4.b, z4.b, z8.b, #224
 58c:	04020020 	.inst	0x04020020 ; undefined
 590:	14052e01 	b	14bd94 <__stack_top+0xc9b54>
 594:	01040200 	.inst	0x01040200 ; undefined
 598:	4201054a 	.inst	0x4201054a ; undefined
 59c:	01000402 	.inst	0x01000402 ; undefined
 5a0:	00015201 	.inst	0x00015201 ; undefined
 5a4:	08000500 	stxrb	w0, w0, [x8]
 5a8:	00002e00 	udf	#11776
 5ac:	01010400 	.inst	0x01010400 ; undefined
 5b0:	000d0efb 	.inst	0x000d0efb ; undefined
 5b4:	01010101 	.inst	0x01010101 ; undefined
 5b8:	01000000 	.inst	0x01000000 ; undefined
 5bc:	01010000 	.inst	0x01010000 ; undefined
 5c0:	00021f01 	.inst	0x00021f01 ; undefined
 5c4:	26000000 	.inst	0x26000000 ; undefined
 5c8:	02000000 	.inst	0x02000000 ; undefined
 5cc:	0f021f01 	.inst	0x0f021f01 ; undefined
 5d0:	0000b502 	udf	#46338
 5d4:	00b50100 	.inst	0x00b50100 ; undefined
 5d8:	05010000 	orr	z0.s, z0.s, #0x1
 5dc:	02090001 	.inst	0x02090001 ; undefined
 5e0:	000809fc 	.inst	0x000809fc ; undefined
 5e4:	00000000 	udf	#0
 5e8:	05012d03 	orr	z3.h, z3.h, #0xf80f
 5ec:	05052411 	.inst	0x05052411 ; undefined
 5f0:	2e120575 	.inst	0x2e120575 ; undefined
 5f4:	05210505 	ext	z5.b, z5.b, z8.b, #9
 5f8:	05052e11 	.inst	0x05052e11 ; undefined
 5fc:	2e11052f 	.inst	0x2e11052f ; undefined
 600:	05210505 	ext	z5.b, z5.b, z8.b, #9
 604:	05052e11 	.inst	0x05052e11 ; undefined
 608:	2e110521 	.inst	0x2e110521 ; undefined
 60c:	052f0505 	ext	z5.b, z5.b, z8.b, #121
 610:	07052e12 	.inst	0x07052e12 ; undefined
 614:	2e060530 	.inst	0x2e060530 ; undefined
 618:	05052121 	.inst	0x05052121 ; undefined
 61c:	2e0e053d 	.inst	0x2e0e053d ; undefined
 620:	05210505 	ext	z5.b, z5.b, z8.b, #9
 624:	06052e0c 	.inst	0x06052e0c ; undefined
 628:	20110521 	.inst	0x20110521 ; undefined
 62c:	02001905 	.inst	0x02001905 ; undefined
 630:	05200304 	ext	z4.b, z4.b, z24.b, #0
 634:	04020013 	.inst	0x04020013 ; undefined
 638:	12052001 	and	w1, w0, #0xf800000f
 63c:	01040200 	.inst	0x01040200 ; undefined
 640:	2f05052e 	mvni	v14.2s, #0xa9
 644:	052e1005 	ext	z5.b, z5.b, z0.b, #116
 648:	11052f06 	add	w6, w24, #0x14b
 64c:	00190520 	.inst	0x00190520 ; undefined
 650:	20030402 	.inst	0x20030402 ; undefined
 654:	02001305 	.inst	0x02001305 ; undefined
 658:	05200104 	ext	z4.b, z4.b, z8.b, #0
 65c:	04020012 	.inst	0x04020012 ; undefined
 660:	05052e01 	.inst	0x05052e01 ; undefined
 664:	2e10052f 	.inst	0x2e10052f ; undefined
 668:	05210505 	ext	z5.b, z5.b, z8.b, #9
 66c:	01052e12 	.inst	0x01052e12 ; undefined
 670:	4120052f 	.inst	0x4120052f ; undefined
 674:	02000805 	.inst	0x02000805 ; undefined
 678:	05300104 	ext	z4.b, z4.b, z8.b, #128
 67c:	04020025 	.inst	0x04020025 ; undefined
 680:	30052001 	adr	x1, aa81 <InputBufferOverflowMessage-0x7557f>
 684:	01040200 	.inst	0x01040200 ; undefined
 688:	0023053c 	.inst	0x0023053c ; NYI
 68c:	20010402 	.inst	0x20010402 ; undefined
 690:	05300505 	ext	z5.b, z5.b, z8.b, #129
 694:	01052e0f 	.inst	0x01052e0f ; undefined
 698:	4112052f 	.inst	0x4112052f ; undefined
 69c:	02000805 	.inst	0x02000805 ; undefined
 6a0:	05230104 	ext	z4.b, z4.b, z8.b, #24
 6a4:	04020025 	.inst	0x04020025 ; undefined
 6a8:	30052001 	adr	x1, aaa9 <InputBufferOverflowMessage-0x75557>
 6ac:	01040200 	.inst	0x01040200 ; undefined
 6b0:	0023053c 	.inst	0x0023053c ; NYI
 6b4:	20010402 	.inst	0x20010402 ; undefined
 6b8:	05300e05 	ext	z5.b, z5.b, z16.b, #131
 6bc:	18053c06 	ldr	w6, ae3c <InputBufferOverflowMessage-0x751c4>
 6c0:	04020022 	.inst	0x04020022 ; undefined
 6c4:	003c0601 	.inst	0x003c0601 ; NYI
 6c8:	2e020402 	.inst	0x2e020402 ; undefined
 6cc:	02000105 	.inst	0x02000105 ; undefined
 6d0:	21060404 	.inst	0x21060404 ; undefined
 6d4:	05331905 	ext	z5.b, z5.b, z8.b, #158
 6d8:	0c053d0a 	.inst	0x0c053d0a ; undefined
 6dc:	2e0b0522 	.inst	0x2e0b0522 ; undefined
 6e0:	052f0d05 	ext	z5.b, z5.b, z8.b, #123
 6e4:	13052f15 	sbfx	w21, w24, #5, #7
 6e8:	2009053c 	.inst	0x2009053c ; undefined
 6ec:	051c0b05 	mov	z5.b, p12/z, #88
 6f0:	04025001 	mla	z1.b, p4/m, z0.b, z2.b
 6f4:	Address 0x00000000000006f4 is out of bounds.


Disassembly of section .debug_str:

0000000000000000 <.debug_str>:
   0:	6d6d6f43 	ldp	d3, d27, [x26, #-304]
   4:	48646e61 	.inst	0x48646e61 ; undefined
   8:	00706c65 	.inst	0x00706c65 ; undefined
   c:	6d6d6f43 	ldp	d3, d27, [x26, #-304]
  10:	52646e61 	.inst	0x52646e61 ; undefined
  14:	6f6f6265 	umlsl2	v5.4s, v19.8h, v15.h[2]
  18:	6c660074 	ldnp	d20, d0, [x3, #-416]
  1c:	0074616f 	.inst	0x0074616f ; undefined
  20:	20554e47 	.inst	0x20554e47 ; undefined
  24:	20373143 	.inst	0x20373143 ; undefined
  28:	342e3131 	cbz	w17, 5c64c <InputBufferOverflowMessage-0x239b4>
  2c:	2d20302e 	stp	s14, s12, [x1, #-256]
  30:	74696c6d 	.inst	0x74696c6d ; undefined
  34:	2d656c74 	ldp	s20, s27, [x3, #-216]
  38:	69646e65 	ldpsw	x5, x27, [x19, #-224]
  3c:	2d206e61 	stp	s1, s27, [x19, #-256]
  40:	6962616d 	ldpsw	x13, x24, [x11, #-240]
  44:	36706c3d 	tbz	w29, #14, dc8 <InputBufferOverflowMessage-0x7f238>
  48:	672d2034 	.inst	0x672d2034 ; undefined
  4c:	66662d20 	.inst	0x66662d20 ; undefined
  50:	73656572 	.inst	0x73656572 ; undefined
  54:	646e6174 	.inst	0x646e6174 ; undefined
  58:	20676e69 	.inst	0x20676e69 ; undefined
  5c:	7361662d 	.inst	0x7361662d ; undefined
  60:	68636e79 	.inst	0x68636e79 ; undefined
  64:	6f6e6f72 	.inst	0x6f6e6f72 ; undefined
  68:	752d7375 	.inst	0x752d7375 ; undefined
  6c:	6e69776e 	uabd	v14.8h, v27.8h, v9.8h
  70:	61742d64 	.inst	0x61742d64 ; undefined
  74:	73656c62 	.inst	0x73656c62 ; undefined
  78:	73662d20 	.inst	0x73662d20 ; undefined
  7c:	6b636174 	.inst	0x6b636174 ; undefined
  80:	616c632d 	.inst	0x616c632d ; undefined
  84:	702d6873 	adr	x19, 5ad93 <InputBufferOverflowMessage-0x2526d>
  88:	65746f72 	fnmls	z18.h, p3/m, z27.h, z20.h
  8c:	6f697463 	uqshl	v3.2d, v3.2d, #41
  90:	6f43006e 	mla	v14.8h, v3.8h, v3.h[0]
  94:	6e616d6d 	umin	v13.8h, v11.8h, v1.8h
  98:	6d695464 	ldp	d4, d21, [x3, #-368]
  9c:	61747365 	.inst	0x61747365 ; undefined
  a0:	4300706d 	.inst	0x4300706d ; undefined
  a4:	616d6d6f 	.inst	0x616d6d6f ; undefined
  a8:	6548646e 	fcmeq	p14.h, p1/z, z3.h, z8.h
  ac:	006f6c6c 	.inst	0x006f6c6c ; undefined
  b0:	616f7466 	.inst	0x616f7466 ; undefined
  b4:	6e6f6c00 	umin	v0.8h, v0.8h, v15.8h
  b8:	6e752067 	usubl2	v7.4s, v3.8h, v21.8h
  bc:	6e676973 	.inst	0x6e676973 ; undefined
  c0:	69206465 	stgp	x5, x25, [x3, #-1024]
  c4:	6300746e 	.inst	0x6300746e ; undefined
  c8:	745f746e 	.inst	0x745f746e ; undefined
  cc:	00746370 	.inst	0x00746370 ; undefined
  d0:	75706e49 	.inst	0x75706e49 ; undefined
  d4:	66754274 	.inst	0x66754274 ; undefined
  d8:	4f726566 	.inst	0x4f726566 ; undefined
  dc:	66726576 	.inst	0x66726576 ; undefined
  e0:	4d776f6c 	.inst	0x4d776f6c ; undefined
  e4:	61737365 	.inst	0x61737365 ; undefined
  e8:	75006567 	.inst	0x75006567 ; undefined
  ec:	5f747261 	sqdmlsl	s1, h19, v4.h[3]
  f0:	646e6573 	.inst	0x646e6573 ; undefined
  f4:	6d6f4300 	ldp	d0, d16, [x24, #-272]
  f8:	646e616d 	.inst	0x646e616d ; undefined
  fc:	46746f4e 	.inst	0x46746f4e ; undefined
 100:	646e756f 	.inst	0x646e756f ; undefined
 104:	746e6300 	.inst	0x746e6300 ; undefined
 108:	6572665f 	fnmls	z31.h, p1/m, z18.h, z18.h
 10c:	61750071 	.inst	0x61750071 ; undefined
 110:	705f7472 	adr	x18, bef9f <__stack_top+0x3cd5f>
 114:	00737475 	.inst	0x00737475 ; undefined
 118:	6c6c6568 	ldnp	d8, d25, [x11, #-320]
 11c:	726f776f 	.inst	0x726f776f ; undefined
 120:	7500646c 	.inst	0x7500646c ; undefined
 124:	5f747261 	sqdmlsl	s1, h19, v4.h[3]
 128:	74696e69 	.inst	0x74696e69 ; undefined
 12c:	69727000 	ldpsw	x0, x28, [x0, #-112]
 130:	775f746e 	.inst	0x775f746e ; undefined
 134:	6f636c65 	.inst	0x6f636c65 ; undefined
 138:	6d00656d 	stp	d13, d25, [x11]
 13c:	006e6961 	.inst	0x006e6961 ; undefined
 140:	6f707865 	fcmla	v5.8h, v3.8h, v16.h[3], #270
 144:	746e656e 	.inst	0x746e656e ; undefined
 148:	73657200 	.inst	0x73657200 ; undefined
 14c:	00746c75 	.inst	0x00746c75 ; undefined
 150:	65736162 	fnmls	z2.h, p0/m, z11.h, z19.h
 154:	736e7500 	.inst	0x736e7500 ; undefined
 158:	656e6769 	fnmls	z9.h, p1/m, z27.h, z14.h
 15c:	68632064 	.inst	0x68632064 ; undefined
 160:	6d007261 	stp	d1, d28, [x19]
 164:	5f786f62 	.inst	0x5f786f62 ; undefined
 168:	6c6c6163 	ldnp	d3, d24, [x11, #-320]
 16c:	6f626d00 	.inst	0x6f626d00 ; undefined
 170:	69740078 	ldpsw	x24, x0, [x3, #-96]
 174:	63006b63 	.inst	0x63006b63 ; undefined
 178:	65636e61 	fnmls	z1.h, p3/m, z19.h, z3.h
 17c:	65725f6c 	fnmla	z12.h, p7/m, z27.h, z18.h
 180:	00746573 	.inst	0x00746573 ; undefined
 184:	75706e69 	.inst	0x75706e69 ; undefined
 188:	61705f74 	.inst	0x61705f74 ; undefined
 18c:	00657372 	.inst	0x00657372 ; undefined
 190:	454e494c 	uaddwb	z12.h, z10.h, z14.b
 194:	4545465f 	saddwt	z31.h, z18.h, z5.b
 198:	41430044 	.inst	0x41430044 ; undefined
 19c:	41495252 	.inst	0x41495252 ; undefined
 1a0:	525f4547 	.inst	0x525f4547 ; undefined
 1a4:	52555445 	.inst	0x52555445 ; undefined
 1a8:	6853004e 	.inst	0x6853004e ; undefined
 1ac:	536c6c65 	.inst	0x536c6c65 ; undefined
 1b0:	74726174 	.inst	0x74726174 ; undefined
 1b4:	6d6f4300 	ldp	d0, d16, [x24, #-272]
 1b8:	646e616d 	.inst	0x646e616d ; undefined
 1bc:	746e6f43 	.inst	0x746e6f43 ; undefined
 1c0:	6c6c6f72 	ldnp	d18, d27, [x27, #-320]
 1c4:	73007265 	.inst	0x73007265 ; undefined
 1c8:	65737274 	fnmls	z20.h, p4/m, z19.h, z19.h
 1cc:	50530074 	adr	x20, a61da <__stack_top+0x23f9a>
 1d0:	41494345 	.inst	0x41494345 ; undefined
 1d4:	48435f4c 	ldxrh	w12, [x26]
 1d8:	43415241 	.inst	0x43415241 ; undefined
 1dc:	00524554 	.inst	0x00524554 ; undefined
 1e0:	75706e69 	.inst	0x75706e69 ; undefined
 1e4:	68635f74 	.inst	0x68635f74 ; undefined
 1e8:	73007261 	.inst	0x73007261 ; undefined
 1ec:	6d637274 	ldp	d20, d28, [x19, #-464]
 1f0:	4e550070 	.inst	0x4e550070 ; undefined
 1f4:	574f4e4b 	.inst	0x574f4e4b ; undefined
 1f8:	7562004e 	.inst	0x7562004e ; undefined
 1fc:	72656666 	.inst	0x72656666 ; undefined
 200:	756f635f 	.inst	0x756f635f ; undefined
 204:	7265746e 	.inst	0x7265746e ; undefined
 208:	72615000 	.inst	0x72615000 ; undefined
 20c:	42006573 	.inst	0x42006573 ; undefined
 210:	5f4b4341 	.inst	0x5f4b4341 ; undefined
 214:	43415053 	.inst	0x43415053 ; undefined
 218:	454e0045 	saddlb	z5.h, z2.b, z14.b
 21c:	494c5f57 	.inst	0x494c5f57 ; undefined
 220:	6200454e 	.inst	0x6200454e ; undefined
 224:	65666675 	fnmls	z21.h, p1/m, z19.h, z6.h
 228:	61750072 	.inst	0x61750072 ; undefined
 22c:	675f7472 	.inst	0x675f7472 ; undefined
 230:	00637465 	.inst	0x00637465 ; undefined
 234:	55474552 	.inst	0x55474552 ; undefined
 238:	5f52414c 	.inst	0x5f52414c ; undefined
 23c:	55504e49 	.inst	0x55504e49 ; undefined
 240:	65740054 	fmla	z20.h, p0/m, z2.h, z20.h
 244:	732f7473 	.inst	0x732f7473 ; undefined
 248:	74726174 	.inst	0x74726174 ; undefined
 24c:	2f00532e 	.inst	0x2f00532e ; undefined
 250:	656d6f68 	fnmls	z8.h, p3/m, z27.h, z13.h
 254:	6f61792f 	fcmla	v15.8h, v9.8h, v1.h[3], #270
 258:	6f72702f 	fcmla	v15.8h, v1.8h, v18.h[1], #270
 25c:	7463656a 	.inst	0x7463656a ; undefined
 260:	534f2f73 	.inst	0x534f2f73 ; undefined
 264:	47004944 	.inst	0x47004944 ; undefined
 268:	4120554e 	.inst	0x4120554e ; undefined
 26c:	2e322053 	usubl	v19.8h, v2.8b, v18.8b
 270:	73003833 	.inst	0x73003833 ; undefined
 274:	656c7274 	fnmls	z20.h, p4/m, z19.h, z12.h
 278:	6574006e 	fmla	z14.h, p0/m, z3.h, z20.h
 27c:	6600706d 	.inst	0x6600706d ; undefined
 280:	74726170 	.inst	0x74726170 ; undefined
 284:	76657200 	.inst	0x76657200 ; undefined
 288:	65737265 	fnmls	z5.h, p4/m, z19.h, z19.h
 28c:	7a697300 	.inst	0x7a697300 ; undefined
 290:	70690065 	adr	x5, d229f <__stack_top+0x5005f>
 294:	00747261 	.inst	0x00747261 ; undefined
 298:	65746661 	fnmls	z1.h, p1/m, z19.h, z20.h
 29c:	696f7072 	ldpsw	x18, x28, [x3, #-136]
 2a0:	6900746e 	stgp	x14, x29, [x3]
 2a4:	00616f74 	.inst	0x00616f74 ; undefined

Disassembly of section .debug_line_str:

0000000000000000 <.debug_line_str>:
   0:	6d6f682f 	ldp	d15, d26, [x1, #-272]
   4:	61792f65 	.inst	0x61792f65 ; undefined
   8:	72702f6f 	.inst	0x72702f6f ; undefined
   c:	63656a6f 	.inst	0x63656a6f ; undefined
  10:	4f2f7374 	.inst	0x4f2f7374 ; undefined
  14:	00494453 	.inst	0x00494453 ; undefined
  18:	2f62696c 	umlsl	v12.4s, v11.4h, v2.h[6]
  1c:	6d6d6f63 	ldp	d3, d27, [x27, #-304]
  20:	2e646e61 	umin	v1.4h, v19.4h, v4.4h
  24:	696c0063 	ldpsw	x3, x0, [x3, #-160]
  28:	65720062 	fmla	z2.h, p0/m, z3.h, z18.h
  2c:	746f6f62 	.inst	0x746f6f62 ; undefined
  30:	7500682e 	.inst	0x7500682e ; undefined
  34:	2e747261 	uabdl	v1.4s, v19.4h, v20.4h
  38:	74730068 	.inst	0x74730068 ; undefined
  3c:	676e6972 	.inst	0x676e6972 ; undefined
  40:	7400682e 	.inst	0x7400682e ; undefined
  44:	2f747365 	fcmla	v5.4h, v27.4h, v20.h[1], #270
  48:	6e69616d 	rsubhn2	v13.8h, v11.4s, v9.4s
  4c:	7400632e 	.inst	0x7400632e ; undefined
  50:	00747365 	.inst	0x00747365 ; undefined
  54:	2f62696c 	umlsl	v12.4s, v11.4h, v2.h[6]
  58:	6874616d 	.inst	0x6874616d ; undefined
  5c:	6c00632e 	stnp	d14, d24, [x25]
  60:	6d2f6269 	stp	d9, d24, [x19, #-272]
  64:	2e786f62 	umin	v2.4h, v27.4h, v24.4h
  68:	696c0063 	ldpsw	x3, x0, [x3, #-160]
  6c:	65722f62 	fmls	z2.h, p3/m, z27.h, z18.h
  70:	746f6f62 	.inst	0x746f6f62 ; undefined
  74:	6c00632e 	stnp	d14, d24, [x25]
  78:	732f6269 	.inst	0x732f6269 ; undefined
  7c:	6c6c6568 	ldnp	d8, d25, [x11, #-320]
  80:	6300632e 	.inst	0x6300632e ; undefined
  84:	616d6d6f 	.inst	0x616d6d6f ; undefined
  88:	682e646e 	.inst	0x682e646e ; undefined
  8c:	65687300 	fnmls	z0.h, p4/m, z24.h, z8.h
  90:	682e6c6c 	.inst	0x682e6c6c ; undefined
  94:	61747300 	.inst	0x61747300 ; undefined
  98:	532e7472 	.inst	0x532e7472 ; undefined
  9c:	62696c00 	.inst	0x62696c00 ; undefined
  a0:	7274732f 	.inst	0x7274732f ; undefined
  a4:	2e676e69 	umin	v9.4h, v19.4h, v7.4h
  a8:	616d0063 	.inst	0x616d0063 ; undefined
  ac:	682e6874 	.inst	0x682e6874 ; undefined
  b0:	62696c00 	.inst	0x62696c00 ; undefined
  b4:	7261752f 	.inst	0x7261752f ; undefined
  b8:	00632e74 	.inst	0x00632e74 ; undefined

Disassembly of section .comment:

0000000000000000 <.comment>:
   0:	3a434347 	ccmn	w26, w3, #0x7, mi  // mi = first
   4:	62552820 	.inst	0x62552820 ; undefined
   8:	75746e75 	.inst	0x75746e75 ; undefined
   c:	2e313120 	usubw	v0.8h, v9.8h, v17.8b
  10:	2d302e34 	stp	s20, s11, [x17, #-128]
  14:	75627531 	.inst	0x75627531 ; undefined
  18:	3175746e 	adds	w14, w3, #0xd5d, lsl #12
  1c:	2e32327e 	usubw	v30.8h, v19.8h, v18.8b
  20:	20293430 	.inst	0x20293430 ; undefined
  24:	342e3131 	cbz	w17, 5c648 <InputBufferOverflowMessage-0x239b8>
  28:	Address 0x0000000000000028 is out of bounds.

