
build/kernel8.elf:     file format elf64-littleaarch64


Disassembly of section .text:

0000000000080000 <InputBufferOverflowMessage>:
   80000:	a9be7bfd 	stp	x29, x30, [sp, #-32]!
   80004:	910003fd 	mov	x29, sp
   80008:	f9000fe0 	str	x0, [sp, #24]
   8000c:	90000000 	adrp	x0, 80000 <InputBufferOverflowMessage>
   80010:	91300000 	add	x0, x0, #0xc00
   80014:	940002e4 	bl	80ba4 <uart_puts>
   80018:	f9400fe0 	ldr	x0, [sp, #24]
   8001c:	940002e2 	bl	80ba4 <uart_puts>
   80020:	90000000 	adrp	x0, 80000 <InputBufferOverflowMessage>
   80024:	91306000 	add	x0, x0, #0xc18
   80028:	940002df 	bl	80ba4 <uart_puts>
   8002c:	90000000 	adrp	x0, 80000 <InputBufferOverflowMessage>
   80030:	9130e000 	add	x0, x0, #0xc38
   80034:	940002dc 	bl	80ba4 <uart_puts>
   80038:	d503201f 	nop
   8003c:	a8c27bfd 	ldp	x29, x30, [sp], #32
   80040:	d65f03c0 	ret

0000000000080044 <CommandHelp>:
   80044:	a9bf7bfd 	stp	x29, x30, [sp, #-16]!
   80048:	910003fd 	mov	x29, sp
   8004c:	90000000 	adrp	x0, 80000 <InputBufferOverflowMessage>
   80050:	91318000 	add	x0, x0, #0xc60
   80054:	940002d4 	bl	80ba4 <uart_puts>
   80058:	90000000 	adrp	x0, 80000 <InputBufferOverflowMessage>
   8005c:	9131a000 	add	x0, x0, #0xc68
   80060:	940002d1 	bl	80ba4 <uart_puts>
   80064:	90000000 	adrp	x0, 80000 <InputBufferOverflowMessage>
   80068:	9131e000 	add	x0, x0, #0xc78
   8006c:	940002ce 	bl	80ba4 <uart_puts>
   80070:	90000000 	adrp	x0, 80000 <InputBufferOverflowMessage>
   80074:	91326000 	add	x0, x0, #0xc98
   80078:	940002cb 	bl	80ba4 <uart_puts>
   8007c:	90000000 	adrp	x0, 80000 <InputBufferOverflowMessage>
   80080:	9132e000 	add	x0, x0, #0xcb8
   80084:	940002c8 	bl	80ba4 <uart_puts>
   80088:	90000000 	adrp	x0, 80000 <InputBufferOverflowMessage>
   8008c:	91318000 	add	x0, x0, #0xc60
   80090:	940002c5 	bl	80ba4 <uart_puts>
   80094:	d503201f 	nop
   80098:	a8c17bfd 	ldp	x29, x30, [sp], #16
   8009c:	d65f03c0 	ret

00000000000800a0 <CommandHello>:
   800a0:	a9bf7bfd 	stp	x29, x30, [sp, #-16]!
   800a4:	910003fd 	mov	x29, sp
   800a8:	90000000 	adrp	x0, 80000 <InputBufferOverflowMessage>
   800ac:	91338000 	add	x0, x0, #0xce0
   800b0:	940002bd 	bl	80ba4 <uart_puts>
   800b4:	d503201f 	nop
   800b8:	a8c17bfd 	ldp	x29, x30, [sp], #16
   800bc:	d65f03c0 	ret

00000000000800c0 <CommandTimestamp>:
   800c0:	a9bc7bfd 	stp	x29, x30, [sp, #-64]!
   800c4:	910003fd 	mov	x29, sp
   800c8:	d53be001 	mrs	x1, cntfrq_el0
   800cc:	d53be020 	mrs	x0, cntpct_el0
   800d0:	f9001fe1 	str	x1, [sp, #56]
   800d4:	f9001be0 	str	x0, [sp, #48]
   800d8:	f9401be0 	ldr	x0, [sp, #48]
   800dc:	9e230001 	ucvtf	s1, x0
   800e0:	f9401fe0 	ldr	x0, [sp, #56]
   800e4:	9e230000 	ucvtf	s0, x0
   800e8:	1e201820 	fdiv	s0, s1, s0
   800ec:	910063e0 	add	x0, sp, #0x18
   800f0:	528000c1 	mov	w1, #0x6                   	// #6
   800f4:	940001e3 	bl	80880 <ftoa>
   800f8:	52800b60 	mov	w0, #0x5b                  	// #91
   800fc:	94000286 	bl	80b14 <uart_send>
   80100:	910063e0 	add	x0, sp, #0x18
   80104:	940002a8 	bl	80ba4 <uart_puts>
   80108:	90000000 	adrp	x0, 80000 <InputBufferOverflowMessage>
   8010c:	9133c000 	add	x0, x0, #0xcf0
   80110:	940002a5 	bl	80ba4 <uart_puts>
   80114:	d503201f 	nop
   80118:	a8c47bfd 	ldp	x29, x30, [sp], #64
   8011c:	d65f03c0 	ret

0000000000080120 <CommandNotFound>:
   80120:	a9be7bfd 	stp	x29, x30, [sp, #-32]!
   80124:	910003fd 	mov	x29, sp
   80128:	f9000fe0 	str	x0, [sp, #24]
   8012c:	90000000 	adrp	x0, 80000 <InputBufferOverflowMessage>
   80130:	9133e000 	add	x0, x0, #0xcf8
   80134:	9400029c 	bl	80ba4 <uart_puts>
   80138:	f9400fe0 	ldr	x0, [sp, #24]
   8013c:	9400029a 	bl	80ba4 <uart_puts>
   80140:	90000000 	adrp	x0, 80000 <InputBufferOverflowMessage>
   80144:	91342000 	add	x0, x0, #0xd08
   80148:	94000297 	bl	80ba4 <uart_puts>
   8014c:	d503201f 	nop
   80150:	a8c27bfd 	ldp	x29, x30, [sp], #32
   80154:	d65f03c0 	ret

0000000000080158 <CommandReboot>:
   80158:	a9bf7bfd 	stp	x29, x30, [sp, #-16]!
   8015c:	910003fd 	mov	x29, sp
   80160:	5290d400 	mov	w0, #0x86a0                	// #34464
   80164:	72a00020 	movk	w0, #0x1, lsl #16
   80168:	9400005b 	bl	802d4 <reset>
   8016c:	d503201f 	nop
   80170:	a8c17bfd 	ldp	x29, x30, [sp], #16
   80174:	d65f03c0 	ret

0000000000080178 <main>:
   80178:	a9bf7bfd 	stp	x29, x30, [sp, #-16]!
   8017c:	910003fd 	mov	x29, sp
   80180:	9400021f 	bl	809fc <uart_init>
   80184:	94000004 	bl	80194 <print_welcome>
   80188:	d503201f 	nop
   8018c:	a8c17bfd 	ldp	x29, x30, [sp], #16
   80190:	d65f03c0 	ret

0000000000080194 <print_welcome>:
   80194:	a9be7bfd 	stp	x29, x30, [sp, #-32]!
   80198:	910003fd 	mov	x29, sp
   8019c:	90000000 	adrp	x0, 80000 <InputBufferOverflowMessage>
   801a0:	91348000 	add	x0, x0, #0xd20
   801a4:	f9000fe0 	str	x0, [sp, #24]
   801a8:	f9400fe0 	ldr	x0, [sp, #24]
   801ac:	9400027e 	bl	80ba4 <uart_puts>
   801b0:	d503201f 	nop
   801b4:	a8c27bfd 	ldp	x29, x30, [sp], #32
   801b8:	d65f03c0 	ret

00000000000801bc <pow>:
   801bc:	d10083ff 	sub	sp, sp, #0x20
   801c0:	b9000fe0 	str	w0, [sp, #12]
   801c4:	b9000be1 	str	w1, [sp, #8]
   801c8:	52800020 	mov	w0, #0x1                   	// #1
   801cc:	b9001fe0 	str	w0, [sp, #28]
   801d0:	14000008 	b	801f0 <pow+0x34>
   801d4:	b9401fe1 	ldr	w1, [sp, #28]
   801d8:	b9400fe0 	ldr	w0, [sp, #12]
   801dc:	1b007c20 	mul	w0, w1, w0
   801e0:	b9001fe0 	str	w0, [sp, #28]
   801e4:	b9400be0 	ldr	w0, [sp, #8]
   801e8:	51000400 	sub	w0, w0, #0x1
   801ec:	b9000be0 	str	w0, [sp, #8]
   801f0:	b9400be0 	ldr	w0, [sp, #8]
   801f4:	7100001f 	cmp	w0, #0x0
   801f8:	54fffeec 	b.gt	801d4 <pow+0x18>
   801fc:	b9401fe0 	ldr	w0, [sp, #28]
   80200:	910083ff 	add	sp, sp, #0x20
   80204:	d65f03c0 	ret

0000000000080208 <mbox_call>:
   80208:	d10083ff 	sub	sp, sp, #0x20
   8020c:	39003fe0 	strb	w0, [sp, #15]
   80210:	39403fe0 	ldrb	w0, [sp, #15]
   80214:	12000c01 	and	w1, w0, #0xf
   80218:	b0000000 	adrp	x0, 81000 <uart_puts+0x45c>
   8021c:	9106c000 	add	x0, x0, #0x1b0
   80220:	121c6c00 	and	w0, w0, #0xfffffff0
   80224:	2a000020 	orr	w0, w1, w0
   80228:	b9001fe0 	str	w0, [sp, #28]
   8022c:	d503201f 	nop
   80230:	d2971300 	mov	x0, #0xb898                	// #47256
   80234:	f2a7e000 	movk	x0, #0x3f00, lsl #16
   80238:	b9400000 	ldr	w0, [x0]
   8023c:	7100001f 	cmp	w0, #0x0
   80240:	54ffff6b 	b.lt	8022c <mbox_call+0x24>  // b.tstop
   80244:	d2971400 	mov	x0, #0xb8a0                	// #47264
   80248:	f2a7e000 	movk	x0, #0x3f00, lsl #16
   8024c:	b9401fe1 	ldr	w1, [sp, #28]
   80250:	b9000001 	str	w1, [x0]
   80254:	d503201f 	nop
   80258:	d2971300 	mov	x0, #0xb898                	// #47256
   8025c:	f2a7e000 	movk	x0, #0x3f00, lsl #16
   80260:	b9400000 	ldr	w0, [x0]
   80264:	12020000 	and	w0, w0, #0x40000000
   80268:	7100001f 	cmp	w0, #0x0
   8026c:	54ffff41 	b.ne	80254 <mbox_call+0x4c>  // b.any
   80270:	d2971000 	mov	x0, #0xb880                	// #47232
   80274:	f2a7e000 	movk	x0, #0x3f00, lsl #16
   80278:	b9400000 	ldr	w0, [x0]
   8027c:	b9401fe1 	ldr	w1, [sp, #28]
   80280:	6b00003f 	cmp	w1, w0
   80284:	54fffe81 	b.ne	80254 <mbox_call+0x4c>  // b.any
   80288:	b0000000 	adrp	x0, 81000 <uart_puts+0x45c>
   8028c:	9106c000 	add	x0, x0, #0x1b0
   80290:	b9400401 	ldr	w1, [x0, #4]
   80294:	52b00000 	mov	w0, #0x80000000            	// #-2147483648
   80298:	6b00003f 	cmp	w1, w0
   8029c:	1a9f17e0 	cset	w0, eq  // eq = none
   802a0:	12001c00 	and	w0, w0, #0xff
   802a4:	910083ff 	add	sp, sp, #0x20
   802a8:	d65f03c0 	ret

00000000000802ac <set>:
   802ac:	d10043ff 	sub	sp, sp, #0x10
   802b0:	b9000fe0 	str	w0, [sp, #12]
   802b4:	b9000be1 	str	w1, [sp, #8]
   802b8:	b9400fe0 	ldr	w0, [sp, #12]
   802bc:	aa0003e1 	mov	x1, x0
   802c0:	b9400be0 	ldr	w0, [sp, #8]
   802c4:	b9000020 	str	w0, [x1]
   802c8:	d503201f 	nop
   802cc:	910043ff 	add	sp, sp, #0x10
   802d0:	d65f03c0 	ret

00000000000802d4 <reset>:
   802d4:	a9be7bfd 	stp	x29, x30, [sp, #-32]!
   802d8:	910003fd 	mov	x29, sp
   802dc:	b9001fe0 	str	w0, [sp, #28]
   802e0:	52800401 	mov	w1, #0x20                  	// #32
   802e4:	72ab4001 	movk	w1, #0x5a00, lsl #16
   802e8:	52800380 	mov	w0, #0x1c                  	// #28
   802ec:	72a7e200 	movk	w0, #0x3f10, lsl #16
   802f0:	97ffffef 	bl	802ac <set>
   802f4:	b9401fe1 	ldr	w1, [sp, #28]
   802f8:	52ab4000 	mov	w0, #0x5a000000            	// #1509949440
   802fc:	2a000020 	orr	w0, w1, w0
   80300:	2a0003e1 	mov	w1, w0
   80304:	52800480 	mov	w0, #0x24                  	// #36
   80308:	72a7e200 	movk	w0, #0x3f10, lsl #16
   8030c:	97ffffe8 	bl	802ac <set>
   80310:	d503201f 	nop
   80314:	a8c27bfd 	ldp	x29, x30, [sp], #32
   80318:	d65f03c0 	ret

000000000008031c <cancel_reset>:
   8031c:	a9bf7bfd 	stp	x29, x30, [sp, #-16]!
   80320:	910003fd 	mov	x29, sp
   80324:	52ab4001 	mov	w1, #0x5a000000            	// #1509949440
   80328:	52800380 	mov	w0, #0x1c                  	// #28
   8032c:	72a7e200 	movk	w0, #0x3f10, lsl #16
   80330:	97ffffdf 	bl	802ac <set>
   80334:	52ab4001 	mov	w1, #0x5a000000            	// #1509949440
   80338:	52800480 	mov	w0, #0x24                  	// #36
   8033c:	72a7e200 	movk	w0, #0x3f10, lsl #16
   80340:	97ffffdb 	bl	802ac <set>
   80344:	d503201f 	nop
   80348:	a8c17bfd 	ldp	x29, x30, [sp], #16
   8034c:	d65f03c0 	ret

0000000000080350 <ShellStart>:
   80350:	a9b67bfd 	stp	x29, x30, [sp, #-160]!
   80354:	910003fd 	mov	x29, sp
   80358:	b90097ff 	str	wzr, [sp, #148]
   8035c:	910043e0 	add	x0, sp, #0x10
   80360:	52801002 	mov	w2, #0x80                  	// #128
   80364:	52800001 	mov	w1, #0x0                   	// #0
   80368:	940000de 	bl	806e0 <strset>
   8036c:	90000000 	adrp	x0, 80000 <InputBufferOverflowMessage>
   80370:	9139a000 	add	x0, x0, #0xe68
   80374:	9400020c 	bl	80ba4 <uart_puts>
   80378:	940001f7 	bl	80b54 <uart_getc>
   8037c:	39027fe0 	strb	w0, [sp, #159]
   80380:	39427fe0 	ldrb	w0, [sp, #159]
   80384:	9400007d 	bl	80578 <Parse>
   80388:	b9009be0 	str	w0, [sp, #152]
   8038c:	910253e1 	add	x1, sp, #0x94
   80390:	910043e0 	add	x0, sp, #0x10
   80394:	aa0103e3 	mov	x3, x1
   80398:	aa0003e2 	mov	x2, x0
   8039c:	39427fe1 	ldrb	w1, [sp, #159]
   803a0:	b9409be0 	ldr	w0, [sp, #152]
   803a4:	94000002 	bl	803ac <CommandController>
   803a8:	17fffff4 	b	80378 <ShellStart+0x28>

00000000000803ac <CommandController>:
   803ac:	a9bd7bfd 	stp	x29, x30, [sp, #-48]!
   803b0:	910003fd 	mov	x29, sp
   803b4:	b9002fe0 	str	w0, [sp, #44]
   803b8:	3900afe1 	strb	w1, [sp, #43]
   803bc:	f90013e2 	str	x2, [sp, #32]
   803c0:	f9000fe3 	str	x3, [sp, #24]
   803c4:	b9402fe0 	ldr	w0, [sp, #44]
   803c8:	3100041f 	cmn	w0, #0x1
   803cc:	54000d00 	b.eq	8056c <CommandController+0x1c0>  // b.none
   803d0:	b9402fe0 	ldr	w0, [sp, #44]
   803d4:	7100201f 	cmp	w0, #0x8
   803d8:	54000221 	b.ne	8041c <CommandController+0x70>  // b.any
   803dc:	f9400fe0 	ldr	x0, [sp, #24]
   803e0:	b9400000 	ldr	w0, [x0]
   803e4:	7100001f 	cmp	w0, #0x0
   803e8:	540000cd 	b.le	80400 <CommandController+0x54>
   803ec:	f9400fe0 	ldr	x0, [sp, #24]
   803f0:	b9400000 	ldr	w0, [x0]
   803f4:	51000401 	sub	w1, w0, #0x1
   803f8:	f9400fe0 	ldr	x0, [sp, #24]
   803fc:	b9000001 	str	w1, [x0]
   80400:	3940afe0 	ldrb	w0, [sp, #43]
   80404:	940001c4 	bl	80b14 <uart_send>
   80408:	52800400 	mov	w0, #0x20                  	// #32
   8040c:	940001c2 	bl	80b14 <uart_send>
   80410:	3940afe0 	ldrb	w0, [sp, #43]
   80414:	940001c0 	bl	80b14 <uart_send>
   80418:	14000056 	b	80570 <CommandController+0x1c4>
   8041c:	b9402fe0 	ldr	w0, [sp, #44]
   80420:	710fa41f 	cmp	w0, #0x3e9
   80424:	54000781 	b.ne	80514 <CommandController+0x168>  // b.any
   80428:	3940afe0 	ldrb	w0, [sp, #43]
   8042c:	940001ba 	bl	80b14 <uart_send>
   80430:	f9400fe0 	ldr	x0, [sp, #24]
   80434:	b9400000 	ldr	w0, [x0]
   80438:	7102001f 	cmp	w0, #0x80
   8043c:	54000081 	b.ne	8044c <CommandController+0xa0>  // b.any
   80440:	f94013e0 	ldr	x0, [sp, #32]
   80444:	97fffeef 	bl	80000 <InputBufferOverflowMessage>
   80448:	14000029 	b	804ec <CommandController+0x140>
   8044c:	f9400fe0 	ldr	x0, [sp, #24]
   80450:	b9400000 	ldr	w0, [x0]
   80454:	93407c00 	sxtw	x0, w0
   80458:	f94013e1 	ldr	x1, [sp, #32]
   8045c:	8b000020 	add	x0, x1, x0
   80460:	3900001f 	strb	wzr, [x0]
   80464:	90000000 	adrp	x0, 80000 <InputBufferOverflowMessage>
   80468:	9139c001 	add	x1, x0, #0xe70
   8046c:	f94013e0 	ldr	x0, [sp, #32]
   80470:	9400006c 	bl	80620 <strcmp>
   80474:	7100001f 	cmp	w0, #0x0
   80478:	54000061 	b.ne	80484 <CommandController+0xd8>  // b.any
   8047c:	97fffef2 	bl	80044 <CommandHelp>
   80480:	1400001b 	b	804ec <CommandController+0x140>
   80484:	90000000 	adrp	x0, 80000 <InputBufferOverflowMessage>
   80488:	9139e001 	add	x1, x0, #0xe78
   8048c:	f94013e0 	ldr	x0, [sp, #32]
   80490:	94000064 	bl	80620 <strcmp>
   80494:	7100001f 	cmp	w0, #0x0
   80498:	54000061 	b.ne	804a4 <CommandController+0xf8>  // b.any
   8049c:	97ffff01 	bl	800a0 <CommandHello>
   804a0:	14000013 	b	804ec <CommandController+0x140>
   804a4:	90000000 	adrp	x0, 80000 <InputBufferOverflowMessage>
   804a8:	913a0001 	add	x1, x0, #0xe80
   804ac:	f94013e0 	ldr	x0, [sp, #32]
   804b0:	9400005c 	bl	80620 <strcmp>
   804b4:	7100001f 	cmp	w0, #0x0
   804b8:	54000061 	b.ne	804c4 <CommandController+0x118>  // b.any
   804bc:	97ffff01 	bl	800c0 <CommandTimestamp>
   804c0:	1400000b 	b	804ec <CommandController+0x140>
   804c4:	90000000 	adrp	x0, 80000 <InputBufferOverflowMessage>
   804c8:	913a4001 	add	x1, x0, #0xe90
   804cc:	f94013e0 	ldr	x0, [sp, #32]
   804d0:	94000054 	bl	80620 <strcmp>
   804d4:	7100001f 	cmp	w0, #0x0
   804d8:	54000061 	b.ne	804e4 <CommandController+0x138>  // b.any
   804dc:	97ffff1f 	bl	80158 <CommandReboot>
   804e0:	14000003 	b	804ec <CommandController+0x140>
   804e4:	f94013e0 	ldr	x0, [sp, #32]
   804e8:	97ffff0e 	bl	80120 <CommandNotFound>
   804ec:	f9400fe0 	ldr	x0, [sp, #24]
   804f0:	b900001f 	str	wzr, [x0]
   804f4:	52801002 	mov	w2, #0x80                  	// #128
   804f8:	52800001 	mov	w1, #0x0                   	// #0
   804fc:	f94013e0 	ldr	x0, [sp, #32]
   80500:	94000078 	bl	806e0 <strset>
   80504:	90000000 	adrp	x0, 80000 <InputBufferOverflowMessage>
   80508:	9139a000 	add	x0, x0, #0xe68
   8050c:	940001a6 	bl	80ba4 <uart_puts>
   80510:	14000018 	b	80570 <CommandController+0x1c4>
   80514:	b9402fe0 	ldr	w0, [sp, #44]
   80518:	710fa01f 	cmp	w0, #0x3e8
   8051c:	540002a1 	b.ne	80570 <CommandController+0x1c4>  // b.any
   80520:	3940afe0 	ldrb	w0, [sp, #43]
   80524:	9400017c 	bl	80b14 <uart_send>
   80528:	f9400fe0 	ldr	x0, [sp, #24]
   8052c:	b9400000 	ldr	w0, [x0]
   80530:	7101fc1f 	cmp	w0, #0x7f
   80534:	540001ec 	b.gt	80570 <CommandController+0x1c4>
   80538:	f9400fe0 	ldr	x0, [sp, #24]
   8053c:	b9400000 	ldr	w0, [x0]
   80540:	93407c00 	sxtw	x0, w0
   80544:	f94013e1 	ldr	x1, [sp, #32]
   80548:	8b000020 	add	x0, x1, x0
   8054c:	3940afe1 	ldrb	w1, [sp, #43]
   80550:	39000001 	strb	w1, [x0]
   80554:	f9400fe0 	ldr	x0, [sp, #24]
   80558:	b9400000 	ldr	w0, [x0]
   8055c:	11000401 	add	w1, w0, #0x1
   80560:	f9400fe0 	ldr	x0, [sp, #24]
   80564:	b9000001 	str	w1, [x0]
   80568:	14000002 	b	80570 <CommandController+0x1c4>
   8056c:	d503201f 	nop
   80570:	a8c37bfd 	ldp	x29, x30, [sp], #48
   80574:	d65f03c0 	ret

0000000000080578 <Parse>:
   80578:	d10043ff 	sub	sp, sp, #0x10
   8057c:	39003fe0 	strb	w0, [sp, #15]
   80580:	39c03fe0 	ldrsb	w0, [sp, #15]
   80584:	7100001f 	cmp	w0, #0x0
   80588:	5400006a 	b.ge	80594 <Parse+0x1c>  // b.tcont
   8058c:	12800000 	mov	w0, #0xffffffff            	// #-1
   80590:	1400000f 	b	805cc <Parse+0x54>
   80594:	39403fe0 	ldrb	w0, [sp, #15]
   80598:	7100201f 	cmp	w0, #0x8
   8059c:	54000061 	b.ne	805a8 <Parse+0x30>  // b.any
   805a0:	52800100 	mov	w0, #0x8                   	// #8
   805a4:	1400000a 	b	805cc <Parse+0x54>
   805a8:	39403fe0 	ldrb	w0, [sp, #15]
   805ac:	7100281f 	cmp	w0, #0xa
   805b0:	54000080 	b.eq	805c0 <Parse+0x48>  // b.none
   805b4:	39403fe0 	ldrb	w0, [sp, #15]
   805b8:	7100341f 	cmp	w0, #0xd
   805bc:	54000061 	b.ne	805c8 <Parse+0x50>  // b.any
   805c0:	52807d20 	mov	w0, #0x3e9                 	// #1001
   805c4:	14000002 	b	805cc <Parse+0x54>
   805c8:	52807d00 	mov	w0, #0x3e8                 	// #1000
   805cc:	910043ff 	add	sp, sp, #0x10
   805d0:	d65f03c0 	ret
   805d4:	00000000 	udf	#0

00000000000805d8 <_start>:
   805d8:	58000180 	ldr	x0, 80608 <memzero+0x20>
   805dc:	580001a1 	ldr	x1, 80610 <memzero+0x28>
   805e0:	eb000021 	subs	x1, x1, x0
   805e4:	54000089 	b.ls	805f4 <memzero+0xc>  // b.plast

00000000000805e8 <memzero>:
   805e8:	f800841f 	str	xzr, [x0], #8
   805ec:	f1002021 	subs	x1, x1, #0x8
   805f0:	54ffffcc 	b.gt	805e8 <memzero>
   805f4:	58000120 	ldr	x0, 80618 <memzero+0x30>
   805f8:	9100001f 	mov	sp, x0
   805fc:	97fffedf 	bl	80178 <main>
   80600:	14000000 	b	80600 <memzero+0x18>
   80604:	00000000 	udf	#0
   80608:	000811b0 	.inst	0x000811b0 ; undefined
   8060c:	00000000 	udf	#0
   80610:	00081240 	.inst	0x00081240 ; undefined
   80614:	00000000 	udf	#0
   80618:	00082240 	.inst	0x00082240 ; undefined
   8061c:	00000000 	udf	#0

0000000000080620 <strcmp>:
   80620:	a9bd7bfd 	stp	x29, x30, [sp, #-48]!
   80624:	910003fd 	mov	x29, sp
   80628:	f9000fe0 	str	x0, [sp, #24]
   8062c:	f9000be1 	str	x1, [sp, #16]
   80630:	b9002fff 	str	wzr, [sp, #44]
   80634:	14000019 	b	80698 <strcmp+0x78>
   80638:	b9802fe0 	ldrsw	x0, [sp, #44]
   8063c:	f9400fe1 	ldr	x1, [sp, #24]
   80640:	8b000020 	add	x0, x1, x0
   80644:	39400001 	ldrb	w1, [x0]
   80648:	b9802fe0 	ldrsw	x0, [sp, #44]
   8064c:	f9400be2 	ldr	x2, [sp, #16]
   80650:	8b000040 	add	x0, x2, x0
   80654:	39400000 	ldrb	w0, [x0]
   80658:	6b00003f 	cmp	w1, w0
   8065c:	54000180 	b.eq	8068c <strcmp+0x6c>  // b.none
   80660:	b9802fe0 	ldrsw	x0, [sp, #44]
   80664:	f9400fe1 	ldr	x1, [sp, #24]
   80668:	8b000020 	add	x0, x1, x0
   8066c:	39400000 	ldrb	w0, [x0]
   80670:	2a0003e2 	mov	w2, w0
   80674:	b9802fe0 	ldrsw	x0, [sp, #44]
   80678:	f9400be1 	ldr	x1, [sp, #16]
   8067c:	8b000020 	add	x0, x1, x0
   80680:	39400000 	ldrb	w0, [x0]
   80684:	4b000040 	sub	w0, w2, w0
   80688:	14000014 	b	806d8 <strcmp+0xb8>
   8068c:	b9402fe0 	ldr	w0, [sp, #44]
   80690:	11000400 	add	w0, w0, #0x1
   80694:	b9002fe0 	str	w0, [sp, #44]
   80698:	f9400fe0 	ldr	x0, [sp, #24]
   8069c:	94000028 	bl	8073c <strlen>
   806a0:	2a0003e1 	mov	w1, w0
   806a4:	b9402fe0 	ldr	w0, [sp, #44]
   806a8:	6b01001f 	cmp	w0, w1
   806ac:	54fffc6b 	b.lt	80638 <strcmp+0x18>  // b.tstop
   806b0:	b9802fe0 	ldrsw	x0, [sp, #44]
   806b4:	f9400fe1 	ldr	x1, [sp, #24]
   806b8:	8b000020 	add	x0, x1, x0
   806bc:	39400000 	ldrb	w0, [x0]
   806c0:	2a0003e2 	mov	w2, w0
   806c4:	b9802fe0 	ldrsw	x0, [sp, #44]
   806c8:	f9400be1 	ldr	x1, [sp, #16]
   806cc:	8b000020 	add	x0, x1, x0
   806d0:	39400000 	ldrb	w0, [x0]
   806d4:	4b000040 	sub	w0, w2, w0
   806d8:	a8c37bfd 	ldp	x29, x30, [sp], #48
   806dc:	d65f03c0 	ret

00000000000806e0 <strset>:
   806e0:	d10083ff 	sub	sp, sp, #0x20
   806e4:	f90007e0 	str	x0, [sp, #8]
   806e8:	b90007e1 	str	w1, [sp, #4]
   806ec:	b90003e2 	str	w2, [sp]
   806f0:	b9001fff 	str	wzr, [sp, #28]
   806f4:	1400000a 	b	8071c <strset+0x3c>
   806f8:	b9801fe0 	ldrsw	x0, [sp, #28]
   806fc:	f94007e1 	ldr	x1, [sp, #8]
   80700:	8b000020 	add	x0, x1, x0
   80704:	b94007e1 	ldr	w1, [sp, #4]
   80708:	12001c21 	and	w1, w1, #0xff
   8070c:	39000001 	strb	w1, [x0]
   80710:	b9401fe0 	ldr	w0, [sp, #28]
   80714:	11000400 	add	w0, w0, #0x1
   80718:	b9001fe0 	str	w0, [sp, #28]
   8071c:	b9401fe1 	ldr	w1, [sp, #28]
   80720:	b94003e0 	ldr	w0, [sp]
   80724:	6b00003f 	cmp	w1, w0
   80728:	54fffe8b 	b.lt	806f8 <strset+0x18>  // b.tstop
   8072c:	d503201f 	nop
   80730:	d503201f 	nop
   80734:	910083ff 	add	sp, sp, #0x20
   80738:	d65f03c0 	ret

000000000008073c <strlen>:
   8073c:	d10083ff 	sub	sp, sp, #0x20
   80740:	f90007e0 	str	x0, [sp, #8]
   80744:	b9001fff 	str	wzr, [sp, #28]
   80748:	b9801fe0 	ldrsw	x0, [sp, #28]
   8074c:	f94007e1 	ldr	x1, [sp, #8]
   80750:	8b000020 	add	x0, x1, x0
   80754:	39400000 	ldrb	w0, [x0]
   80758:	7100001f 	cmp	w0, #0x0
   8075c:	540000a0 	b.eq	80770 <strlen+0x34>  // b.none
   80760:	b9401fe0 	ldr	w0, [sp, #28]
   80764:	11000400 	add	w0, w0, #0x1
   80768:	b9001fe0 	str	w0, [sp, #28]
   8076c:	17fffff7 	b	80748 <strlen+0xc>
   80770:	d503201f 	nop
   80774:	b9401fe0 	ldr	w0, [sp, #28]
   80778:	910083ff 	add	sp, sp, #0x20
   8077c:	d65f03c0 	ret

0000000000080780 <itoa>:
   80780:	a9bd7bfd 	stp	x29, x30, [sp, #-48]!
   80784:	910003fd 	mov	x29, sp
   80788:	b9001fe0 	str	w0, [sp, #28]
   8078c:	f9000be1 	str	x1, [sp, #16]
   80790:	b9001be2 	str	w2, [sp, #24]
   80794:	b9002fff 	str	wzr, [sp, #44]
   80798:	14000021 	b	8081c <itoa+0x9c>
   8079c:	b9401fe1 	ldr	w1, [sp, #28]
   807a0:	528ccce0 	mov	w0, #0x6667                	// #26215
   807a4:	72acccc0 	movk	w0, #0x6666, lsl #16
   807a8:	9b207c20 	smull	x0, w1, w0
   807ac:	d360fc00 	lsr	x0, x0, #32
   807b0:	13027c02 	asr	w2, w0, #2
   807b4:	131f7c20 	asr	w0, w1, #31
   807b8:	4b000042 	sub	w2, w2, w0
   807bc:	2a0203e0 	mov	w0, w2
   807c0:	531e7400 	lsl	w0, w0, #2
   807c4:	0b020000 	add	w0, w0, w2
   807c8:	531f7800 	lsl	w0, w0, #1
   807cc:	4b000022 	sub	w2, w1, w0
   807d0:	12001c41 	and	w1, w2, #0xff
   807d4:	b9402fe0 	ldr	w0, [sp, #44]
   807d8:	11000402 	add	w2, w0, #0x1
   807dc:	b9002fe2 	str	w2, [sp, #44]
   807e0:	93407c00 	sxtw	x0, w0
   807e4:	f9400be2 	ldr	x2, [sp, #16]
   807e8:	8b000040 	add	x0, x2, x0
   807ec:	1100c021 	add	w1, w1, #0x30
   807f0:	12001c21 	and	w1, w1, #0xff
   807f4:	39000001 	strb	w1, [x0]
   807f8:	b9401fe0 	ldr	w0, [sp, #28]
   807fc:	528ccce1 	mov	w1, #0x6667                	// #26215
   80800:	72acccc1 	movk	w1, #0x6666, lsl #16
   80804:	9b217c01 	smull	x1, w0, w1
   80808:	d360fc21 	lsr	x1, x1, #32
   8080c:	13027c21 	asr	w1, w1, #2
   80810:	131f7c00 	asr	w0, w0, #31
   80814:	4b000020 	sub	w0, w1, w0
   80818:	b9001fe0 	str	w0, [sp, #28]
   8081c:	b9401fe0 	ldr	w0, [sp, #28]
   80820:	7100001f 	cmp	w0, #0x0
   80824:	54fffbc1 	b.ne	8079c <itoa+0x1c>  // b.any
   80828:	14000009 	b	8084c <itoa+0xcc>
   8082c:	b9402fe0 	ldr	w0, [sp, #44]
   80830:	11000401 	add	w1, w0, #0x1
   80834:	b9002fe1 	str	w1, [sp, #44]
   80838:	93407c00 	sxtw	x0, w0
   8083c:	f9400be1 	ldr	x1, [sp, #16]
   80840:	8b000020 	add	x0, x1, x0
   80844:	52800601 	mov	w1, #0x30                  	// #48
   80848:	39000001 	strb	w1, [x0]
   8084c:	b9402fe1 	ldr	w1, [sp, #44]
   80850:	b9401be0 	ldr	w0, [sp, #24]
   80854:	6b00003f 	cmp	w1, w0
   80858:	54fffeab 	b.lt	8082c <itoa+0xac>  // b.tstop
   8085c:	b9802fe0 	ldrsw	x0, [sp, #44]
   80860:	f9400be1 	ldr	x1, [sp, #16]
   80864:	8b000020 	add	x0, x1, x0
   80868:	3900001f 	strb	wzr, [x0]
   8086c:	f9400be0 	ldr	x0, [sp, #16]
   80870:	94000034 	bl	80940 <reverse>
   80874:	d503201f 	nop
   80878:	a8c37bfd 	ldp	x29, x30, [sp], #48
   8087c:	d65f03c0 	ret

0000000000080880 <ftoa>:
   80880:	a9bd7bfd 	stp	x29, x30, [sp, #-48]!
   80884:	910003fd 	mov	x29, sp
   80888:	bd001fe0 	str	s0, [sp, #28]
   8088c:	f9000be0 	str	x0, [sp, #16]
   80890:	b9001be1 	str	w1, [sp, #24]
   80894:	bd401fe0 	ldr	s0, [sp, #28]
   80898:	5ea1b800 	fcvtzs	s0, s0
   8089c:	bd002fe0 	str	s0, [sp, #44]
   808a0:	bd402fe0 	ldr	s0, [sp, #44]
   808a4:	5e21d800 	scvtf	s0, s0
   808a8:	bd401fe1 	ldr	s1, [sp, #28]
   808ac:	1e203820 	fsub	s0, s1, s0
   808b0:	bd002be0 	str	s0, [sp, #40]
   808b4:	52800002 	mov	w2, #0x0                   	// #0
   808b8:	f9400be1 	ldr	x1, [sp, #16]
   808bc:	b9402fe0 	ldr	w0, [sp, #44]
   808c0:	97ffffb0 	bl	80780 <itoa>
   808c4:	f9400be0 	ldr	x0, [sp, #16]
   808c8:	97ffff9d 	bl	8073c <strlen>
   808cc:	b90027e0 	str	w0, [sp, #36]
   808d0:	b9401be0 	ldr	w0, [sp, #24]
   808d4:	7100001f 	cmp	w0, #0x0
   808d8:	540002e0 	b.eq	80934 <ftoa+0xb4>  // b.none
   808dc:	b98027e0 	ldrsw	x0, [sp, #36]
   808e0:	f9400be1 	ldr	x1, [sp, #16]
   808e4:	8b000020 	add	x0, x1, x0
   808e8:	528005c1 	mov	w1, #0x2e                  	// #46
   808ec:	39000001 	strb	w1, [x0]
   808f0:	b9401be1 	ldr	w1, [sp, #24]
   808f4:	52800140 	mov	w0, #0xa                   	// #10
   808f8:	97fffe31 	bl	801bc <pow>
   808fc:	1e220000 	scvtf	s0, w0
   80900:	bd402be1 	ldr	s1, [sp, #40]
   80904:	1e200820 	fmul	s0, s1, s0
   80908:	bd002be0 	str	s0, [sp, #40]
   8090c:	bd402be0 	ldr	s0, [sp, #40]
   80910:	1e380003 	fcvtzs	w3, s0
   80914:	b98027e0 	ldrsw	x0, [sp, #36]
   80918:	91000400 	add	x0, x0, #0x1
   8091c:	f9400be1 	ldr	x1, [sp, #16]
   80920:	8b000020 	add	x0, x1, x0
   80924:	b9401be2 	ldr	w2, [sp, #24]
   80928:	aa0003e1 	mov	x1, x0
   8092c:	2a0303e0 	mov	w0, w3
   80930:	97ffff94 	bl	80780 <itoa>
   80934:	d503201f 	nop
   80938:	a8c37bfd 	ldp	x29, x30, [sp], #48
   8093c:	d65f03c0 	ret

0000000000080940 <reverse>:
   80940:	a9bd7bfd 	stp	x29, x30, [sp, #-48]!
   80944:	910003fd 	mov	x29, sp
   80948:	f9000fe0 	str	x0, [sp, #24]
   8094c:	b9002fff 	str	wzr, [sp, #44]
   80950:	1400001e 	b	809c8 <reverse+0x88>
   80954:	f9400fe0 	ldr	x0, [sp, #24]
   80958:	97ffff79 	bl	8073c <strlen>
   8095c:	2a0003e1 	mov	w1, w0
   80960:	b9402fe0 	ldr	w0, [sp, #44]
   80964:	4b000020 	sub	w0, w1, w0
   80968:	93407c00 	sxtw	x0, w0
   8096c:	d1000400 	sub	x0, x0, #0x1
   80970:	f9400fe1 	ldr	x1, [sp, #24]
   80974:	8b000020 	add	x0, x1, x0
   80978:	39400000 	ldrb	w0, [x0]
   8097c:	3900afe0 	strb	w0, [sp, #43]
   80980:	f9400fe0 	ldr	x0, [sp, #24]
   80984:	97ffff6e 	bl	8073c <strlen>
   80988:	2a0003e1 	mov	w1, w0
   8098c:	b9402fe0 	ldr	w0, [sp, #44]
   80990:	4b000020 	sub	w0, w1, w0
   80994:	93407c00 	sxtw	x0, w0
   80998:	d1000400 	sub	x0, x0, #0x1
   8099c:	f9400fe1 	ldr	x1, [sp, #24]
   809a0:	8b000020 	add	x0, x1, x0
   809a4:	f9400fe1 	ldr	x1, [sp, #24]
   809a8:	39400021 	ldrb	w1, [x1]
   809ac:	39000001 	strb	w1, [x0]
   809b0:	f9400fe0 	ldr	x0, [sp, #24]
   809b4:	3940afe1 	ldrb	w1, [sp, #43]
   809b8:	39000001 	strb	w1, [x0]
   809bc:	b9402fe0 	ldr	w0, [sp, #44]
   809c0:	11000400 	add	w0, w0, #0x1
   809c4:	b9002fe0 	str	w0, [sp, #44]
   809c8:	f9400fe0 	ldr	x0, [sp, #24]
   809cc:	97ffff5c 	bl	8073c <strlen>
   809d0:	531f7c01 	lsr	w1, w0, #31
   809d4:	0b000020 	add	w0, w1, w0
   809d8:	13017c00 	asr	w0, w0, #1
   809dc:	2a0003e1 	mov	w1, w0
   809e0:	b9402fe0 	ldr	w0, [sp, #44]
   809e4:	6b01001f 	cmp	w0, w1
   809e8:	54fffb6b 	b.lt	80954 <reverse+0x14>  // b.tstop
   809ec:	d503201f 	nop
   809f0:	d503201f 	nop
   809f4:	a8c37bfd 	ldp	x29, x30, [sp], #48
   809f8:	d65f03c0 	ret

00000000000809fc <uart_init>:
   809fc:	f81f0ff3 	str	x19, [sp, #-16]!
   80a00:	d28a0080 	mov	x0, #0x5004                	// #20484
   80a04:	f2a7e420 	movk	x0, #0x3f21, lsl #16
   80a08:	b9400001 	ldr	w1, [x0]
   80a0c:	d28a0080 	mov	x0, #0x5004                	// #20484
   80a10:	f2a7e420 	movk	x0, #0x3f21, lsl #16
   80a14:	32000021 	orr	w1, w1, #0x1
   80a18:	b9000001 	str	w1, [x0]
   80a1c:	d28a0c00 	mov	x0, #0x5060                	// #20576
   80a20:	f2a7e420 	movk	x0, #0x3f21, lsl #16
   80a24:	b900001f 	str	wzr, [x0]
   80a28:	d28a0980 	mov	x0, #0x504c                	// #20556
   80a2c:	f2a7e420 	movk	x0, #0x3f21, lsl #16
   80a30:	52800061 	mov	w1, #0x3                   	// #3
   80a34:	b9000001 	str	w1, [x0]
   80a38:	d28a0a00 	mov	x0, #0x5050                	// #20560
   80a3c:	f2a7e420 	movk	x0, #0x3f21, lsl #16
   80a40:	b900001f 	str	wzr, [x0]
   80a44:	d28a0880 	mov	x0, #0x5044                	// #20548
   80a48:	f2a7e420 	movk	x0, #0x3f21, lsl #16
   80a4c:	b900001f 	str	wzr, [x0]
   80a50:	d28a0900 	mov	x0, #0x5048                	// #20552
   80a54:	f2a7e420 	movk	x0, #0x3f21, lsl #16
   80a58:	528018c1 	mov	w1, #0xc6                  	// #198
   80a5c:	b9000001 	str	w1, [x0]
   80a60:	d28a0d00 	mov	x0, #0x5068                	// #20584
   80a64:	f2a7e420 	movk	x0, #0x3f21, lsl #16
   80a68:	528021c1 	mov	w1, #0x10e                 	// #270
   80a6c:	b9000001 	str	w1, [x0]
   80a70:	d2800080 	mov	x0, #0x4                   	// #4
   80a74:	f2a7e400 	movk	x0, #0x3f20, lsl #16
   80a78:	b9400013 	ldr	w19, [x0]
   80a7c:	120e6673 	and	w19, w19, #0xfffc0fff
   80a80:	52840000 	mov	w0, #0x2000                	// #8192
   80a84:	72a00020 	movk	w0, #0x1, lsl #16
   80a88:	2a000273 	orr	w19, w19, w0
   80a8c:	d2800080 	mov	x0, #0x4                   	// #4
   80a90:	f2a7e400 	movk	x0, #0x3f20, lsl #16
   80a94:	b9000013 	str	w19, [x0]
   80a98:	d2801280 	mov	x0, #0x94                  	// #148
   80a9c:	f2a7e400 	movk	x0, #0x3f20, lsl #16
   80aa0:	b900001f 	str	wzr, [x0]
   80aa4:	528012d3 	mov	w19, #0x96                  	// #150
   80aa8:	14000002 	b	80ab0 <uart_init+0xb4>
   80aac:	d503201f 	nop
   80ab0:	2a1303e0 	mov	w0, w19
   80ab4:	51000413 	sub	w19, w0, #0x1
   80ab8:	7100001f 	cmp	w0, #0x0
   80abc:	54ffff81 	b.ne	80aac <uart_init+0xb0>  // b.any
   80ac0:	d2801300 	mov	x0, #0x98                  	// #152
   80ac4:	f2a7e400 	movk	x0, #0x3f20, lsl #16
   80ac8:	52980001 	mov	w1, #0xc000                	// #49152
   80acc:	b9000001 	str	w1, [x0]
   80ad0:	528012d3 	mov	w19, #0x96                  	// #150
   80ad4:	14000002 	b	80adc <uart_init+0xe0>
   80ad8:	d503201f 	nop
   80adc:	2a1303e0 	mov	w0, w19
   80ae0:	51000413 	sub	w19, w0, #0x1
   80ae4:	7100001f 	cmp	w0, #0x0
   80ae8:	54ffff81 	b.ne	80ad8 <uart_init+0xdc>  // b.any
   80aec:	d2801300 	mov	x0, #0x98                  	// #152
   80af0:	f2a7e400 	movk	x0, #0x3f20, lsl #16
   80af4:	b900001f 	str	wzr, [x0]
   80af8:	d28a0c00 	mov	x0, #0x5060                	// #20576
   80afc:	f2a7e420 	movk	x0, #0x3f21, lsl #16
   80b00:	52800061 	mov	w1, #0x3                   	// #3
   80b04:	b9000001 	str	w1, [x0]
   80b08:	d503201f 	nop
   80b0c:	f84107f3 	ldr	x19, [sp], #16
   80b10:	d65f03c0 	ret

0000000000080b14 <uart_send>:
   80b14:	d10043ff 	sub	sp, sp, #0x10
   80b18:	b9000fe0 	str	w0, [sp, #12]
   80b1c:	d503201f 	nop
   80b20:	d28a0a80 	mov	x0, #0x5054                	// #20564
   80b24:	f2a7e420 	movk	x0, #0x3f21, lsl #16
   80b28:	b9400000 	ldr	w0, [x0]
   80b2c:	121b0000 	and	w0, w0, #0x20
   80b30:	7100001f 	cmp	w0, #0x0
   80b34:	54ffff40 	b.eq	80b1c <uart_send+0x8>  // b.none
   80b38:	d28a0800 	mov	x0, #0x5040                	// #20544
   80b3c:	f2a7e420 	movk	x0, #0x3f21, lsl #16
   80b40:	b9400fe1 	ldr	w1, [sp, #12]
   80b44:	b9000001 	str	w1, [x0]
   80b48:	d503201f 	nop
   80b4c:	910043ff 	add	sp, sp, #0x10
   80b50:	d65f03c0 	ret

0000000000080b54 <uart_getc>:
   80b54:	d10043ff 	sub	sp, sp, #0x10
   80b58:	d503201f 	nop
   80b5c:	d28a0a80 	mov	x0, #0x5054                	// #20564
   80b60:	f2a7e420 	movk	x0, #0x3f21, lsl #16
   80b64:	b9400000 	ldr	w0, [x0]
   80b68:	12000000 	and	w0, w0, #0x1
   80b6c:	7100001f 	cmp	w0, #0x0
   80b70:	54ffff40 	b.eq	80b58 <uart_getc+0x4>  // b.none
   80b74:	d28a0800 	mov	x0, #0x5040                	// #20544
   80b78:	f2a7e420 	movk	x0, #0x3f21, lsl #16
   80b7c:	b9400000 	ldr	w0, [x0]
   80b80:	39003fe0 	strb	w0, [sp, #15]
   80b84:	39403fe0 	ldrb	w0, [sp, #15]
   80b88:	7100341f 	cmp	w0, #0xd
   80b8c:	54000060 	b.eq	80b98 <uart_getc+0x44>  // b.none
   80b90:	39403fe0 	ldrb	w0, [sp, #15]
   80b94:	14000002 	b	80b9c <uart_getc+0x48>
   80b98:	52800140 	mov	w0, #0xa                   	// #10
   80b9c:	910043ff 	add	sp, sp, #0x10
   80ba0:	d65f03c0 	ret

0000000000080ba4 <uart_puts>:
   80ba4:	a9be7bfd 	stp	x29, x30, [sp, #-32]!
   80ba8:	910003fd 	mov	x29, sp
   80bac:	f9000fe0 	str	x0, [sp, #24]
   80bb0:	1400000c 	b	80be0 <uart_puts+0x3c>
   80bb4:	f9400fe0 	ldr	x0, [sp, #24]
   80bb8:	39400000 	ldrb	w0, [x0]
   80bbc:	7100281f 	cmp	w0, #0xa
   80bc0:	54000061 	b.ne	80bcc <uart_puts+0x28>  // b.any
   80bc4:	528001a0 	mov	w0, #0xd                   	// #13
   80bc8:	97ffffd3 	bl	80b14 <uart_send>
   80bcc:	f9400fe0 	ldr	x0, [sp, #24]
   80bd0:	91000401 	add	x1, x0, #0x1
   80bd4:	f9000fe1 	str	x1, [sp, #24]
   80bd8:	39400000 	ldrb	w0, [x0]
   80bdc:	97ffffce 	bl	80b14 <uart_send>
   80be0:	f9400fe0 	ldr	x0, [sp, #24]
   80be4:	39400000 	ldrb	w0, [x0]
   80be8:	7100001f 	cmp	w0, #0x0
   80bec:	54fffe41 	b.ne	80bb4 <uart_puts+0x10>  // b.any
   80bf0:	d503201f 	nop
   80bf4:	d503201f 	nop
   80bf8:	a8c27bfd 	ldp	x29, x30, [sp], #32
   80bfc:	d65f03c0 	ret
