
build/kernel8.elf:     file format elf64-littleaarch64


Disassembly of section .text:

0000000000080000 <_start>:
   80000:	d53800a1 	mrs	x1, mpidr_el1
   80004:	92400421 	and	x1, x1, #0x3
   80008:	b4000061 	cbz	x1, 80014 <_start+0x14>
   8000c:	d503205f 	wfe
   80010:	17ffffff 	b	8000c <_start+0xc>
   80014:	58000161 	ldr	x1, 80040 <_start+0x40>
   80018:	9100003f 	mov	sp, x1
   8001c:	58000161 	ldr	x1, 80048 <_start+0x48>
   80020:	180000e2 	ldr	w2, 8003c <_start+0x3c>
   80024:	34000082 	cbz	w2, 80034 <_start+0x34>
   80028:	f800843f 	str	xzr, [x1], #8
   8002c:	51000442 	sub	w2, w2, #0x1
   80030:	35ffffa2 	cbnz	w2, 80024 <_start+0x24>
   80034:	94000007 	bl	80050 <main>
   80038:	17fffff5 	b	8000c <_start+0xc>
   8003c:	00000012 	udf	#18
   80040:	00080000 	.inst	0x00080000 ; undefined
   80044:	00000000 	udf	#0
   80048:	00081490 	.inst	0x00081490 ; undefined
   8004c:	00000000 	udf	#0

0000000000080050 <main>:
   80050:	a9b67bfd 	stp	x29, x30, [sp, #-160]!
   80054:	910003fd 	mov	x29, sp
   80058:	a90153f3 	stp	x19, x20, [sp, #16]
   8005c:	b0000014 	adrp	x20, 81000 <cat+0x250>
   80060:	9101c3f3 	add	x19, sp, #0x70
   80064:	91046294 	add	x20, x20, #0x118
   80068:	a9025bf5 	stp	x21, x22, [sp, #32]
   8006c:	b0000015 	adrp	x21, 81000 <cat+0x250>
   80070:	910442b5 	add	x21, x21, #0x110
   80074:	a90363f7 	stp	x23, x24, [sp, #48]
   80078:	b0000017 	adrp	x23, 81000 <cat+0x250>
   8007c:	b0000018 	adrp	x24, 81000 <cat+0x250>
   80080:	9104c2f7 	add	x23, x23, #0x130
   80084:	9107a318 	add	x24, x24, #0x1e8
   80088:	a90573fb 	stp	x27, x28, [sp, #80]
   8008c:	910223fc 	add	x28, sp, #0x88
   80090:	b0000016 	adrp	x22, 81000 <cat+0x250>
   80094:	b000001b 	adrp	x27, 81000 <cat+0x250>
   80098:	a9046bf9 	stp	x25, x26, [sp, #64]
   8009c:	b000001a 	adrp	x26, 81000 <cat+0x250>
   800a0:	b0000019 	adrp	x25, 81000 <cat+0x250>
   800a4:	9400010f 	bl	804e0 <uart_init>
   800a8:	94000416 	bl	81100 <print_welcome>
   800ac:	d503201f 	nop
   800b0:	aa1503e0 	mov	x0, x21
   800b4:	94000163 	bl	80640 <uart_puts>
   800b8:	aa1303e0 	mov	x0, x19
   800bc:	940003f5 	bl	81090 <shell>
   800c0:	aa1403e1 	mov	x1, x20
   800c4:	aa1303e0 	mov	x0, x19
   800c8:	9400019e 	bl	80740 <strcmp>
   800cc:	35000160 	cbnz	w0, 800f8 <main+0xa8>
   800d0:	910482c0 	add	x0, x22, #0x120
   800d4:	9400015b 	bl	80640 <uart_puts>
   800d8:	aa1503e0 	mov	x0, x21
   800dc:	94000159 	bl	80640 <uart_puts>
   800e0:	aa1303e0 	mov	x0, x19
   800e4:	940003eb 	bl	81090 <shell>
   800e8:	aa1403e1 	mov	x1, x20
   800ec:	aa1303e0 	mov	x0, x19
   800f0:	94000194 	bl	80740 <strcmp>
   800f4:	34fffee0 	cbz	w0, 800d0 <main+0x80>
   800f8:	aa1703e1 	mov	x1, x23
   800fc:	aa1303e0 	mov	x0, x19
   80100:	94000190 	bl	80740 <strcmp>
   80104:	350001c0 	cbnz	w0, 8013c <main+0xec>
   80108:	9104e360 	add	x0, x27, #0x138
   8010c:	9400014d 	bl	80640 <uart_puts>
   80110:	91056340 	add	x0, x26, #0x158
   80114:	9400014b 	bl	80640 <uart_puts>
   80118:	91060320 	add	x0, x25, #0x180
   8011c:	94000149 	bl	80640 <uart_puts>
   80120:	b0000000 	adrp	x0, 81000 <cat+0x250>
   80124:	9106a000 	add	x0, x0, #0x1a8
   80128:	94000146 	bl	80640 <uart_puts>
   8012c:	b0000000 	adrp	x0, 81000 <cat+0x250>
   80130:	91074000 	add	x0, x0, #0x1d0
   80134:	94000143 	bl	80640 <uart_puts>
   80138:	17ffffde 	b	800b0 <main+0x60>
   8013c:	aa1803e1 	mov	x1, x24
   80140:	aa1303e0 	mov	x0, x19
   80144:	9400017f 	bl	80740 <strcmp>
   80148:	35000240 	cbnz	w0, 80190 <main+0x140>
   8014c:	d53be000 	mrs	x0, cntfrq_el0
   80150:	d53be021 	mrs	x1, cntpct_el0
   80154:	9e230021 	ucvtf	s1, x1
   80158:	9e230000 	ucvtf	s0, x0
   8015c:	528000c1 	mov	w1, #0x6                   	// #6
   80160:	aa1c03e0 	mov	x0, x28
   80164:	1e201820 	fdiv	s0, s1, s0
   80168:	940001eb 	bl	80914 <ftoa>
   8016c:	b0000000 	adrp	x0, 81000 <cat+0x250>
   80170:	9107e000 	add	x0, x0, #0x1f8
   80174:	94000133 	bl	80640 <uart_puts>
   80178:	aa1c03e0 	mov	x0, x28
   8017c:	94000131 	bl	80640 <uart_puts>
   80180:	b0000000 	adrp	x0, 81000 <cat+0x250>
   80184:	91080000 	add	x0, x0, #0x200
   80188:	9400012e 	bl	80640 <uart_puts>
   8018c:	17ffffc9 	b	800b0 <main+0x60>
   80190:	b0000000 	adrp	x0, 81000 <cat+0x250>
   80194:	91082001 	add	x1, x0, #0x208
   80198:	aa1303e0 	mov	x0, x19
   8019c:	94000169 	bl	80740 <strcmp>
   801a0:	35000480 	cbnz	w0, 80230 <main+0x1e0>
   801a4:	9400006b 	bl	80350 <get_board_revision>
   801a8:	b0000000 	adrp	x0, 81000 <cat+0x250>
   801ac:	910c4001 	add	x1, x0, #0x310
   801b0:	b0000000 	adrp	x0, 81000 <cat+0x250>
   801b4:	91084000 	add	x0, x0, #0x210
   801b8:	f90033e1 	str	x1, [sp, #96]
   801bc:	94000121 	bl	80640 <uart_puts>
   801c0:	b0000000 	adrp	x0, 81000 <cat+0x250>
   801c4:	f9423802 	ldr	x2, [x0, #1136]
   801c8:	f90037e2 	str	x2, [sp, #104]
   801cc:	b9401440 	ldr	w0, [x2, #20]
   801d0:	94000134 	bl	806a0 <uart_hex>
   801d4:	f94033e1 	ldr	x1, [sp, #96]
   801d8:	aa0103e0 	mov	x0, x1
   801dc:	94000119 	bl	80640 <uart_puts>
   801e0:	94000080 	bl	803e0 <get_arm_mem>
   801e4:	b0000000 	adrp	x0, 81000 <cat+0x250>
   801e8:	9108a000 	add	x0, x0, #0x228
   801ec:	94000115 	bl	80640 <uart_puts>
   801f0:	f94037e2 	ldr	x2, [sp, #104]
   801f4:	b9401440 	ldr	w0, [x2, #20]
   801f8:	9400012a 	bl	806a0 <uart_hex>
   801fc:	f94033e1 	ldr	x1, [sp, #96]
   80200:	aa0103e0 	mov	x0, x1
   80204:	9400010f 	bl	80640 <uart_puts>
   80208:	b0000000 	adrp	x0, 81000 <cat+0x250>
   8020c:	91092000 	add	x0, x0, #0x248
   80210:	9400010c 	bl	80640 <uart_puts>
   80214:	f94037e2 	ldr	x2, [sp, #104]
   80218:	b9401840 	ldr	w0, [x2, #24]
   8021c:	94000121 	bl	806a0 <uart_hex>
   80220:	f94033e1 	ldr	x1, [sp, #96]
   80224:	aa0103e0 	mov	x0, x1
   80228:	94000106 	bl	80640 <uart_puts>
   8022c:	17ffffa1 	b	800b0 <main+0x60>
   80230:	b0000000 	adrp	x0, 81000 <cat+0x250>
   80234:	91098001 	add	x1, x0, #0x260
   80238:	aa1303e0 	mov	x0, x19
   8023c:	94000141 	bl	80740 <strcmp>
   80240:	35000200 	cbnz	w0, 80280 <main+0x230>
   80244:	5290d400 	mov	w0, #0x86a0                	// #34464
   80248:	72a00020 	movk	w0, #0x1, lsl #16
   8024c:	94000091 	bl	80490 <reset>
   80250:	b0000000 	adrp	x0, 81000 <cat+0x250>
   80254:	9109a000 	add	x0, x0, #0x268
   80258:	940000fa 	bl	80640 <uart_puts>
   8025c:	aa1303e0 	mov	x0, x19
   80260:	9400038c 	bl	81090 <shell>
   80264:	b0000000 	adrp	x0, 81000 <cat+0x250>
   80268:	910a2001 	add	x1, x0, #0x288
   8026c:	aa1303e0 	mov	x0, x19
   80270:	94000134 	bl	80740 <strcmp>
   80274:	35fff1e0 	cbnz	w0, 800b0 <main+0x60>
   80278:	94000092 	bl	804c0 <cancel_reset>
   8027c:	17ffff8d 	b	800b0 <main+0x60>
   80280:	b0000000 	adrp	x0, 81000 <cat+0x250>
   80284:	910a4001 	add	x1, x0, #0x290
   80288:	aa1303e0 	mov	x0, x19
   8028c:	9400012d 	bl	80740 <strcmp>
   80290:	350000a0 	cbnz	w0, 802a4 <main+0x254>
   80294:	aa1303e0 	mov	x0, x19
   80298:	52800001 	mov	w1, #0x0                   	// #0
   8029c:	940001fd 	bl	80a90 <ls>
   802a0:	17ffff84 	b	800b0 <main+0x60>
   802a4:	aa1303e0 	mov	x0, x19
   802a8:	940002b6 	bl	80d80 <checkcat>
   802ac:	34000080 	cbz	w0, 802bc <main+0x26c>
   802b0:	aa1303e0 	mov	x0, x19
   802b4:	940002bf 	bl	80db0 <cat>
   802b8:	17ffff7e 	b	800b0 <main+0x60>
   802bc:	b0000000 	adrp	x0, 81000 <cat+0x250>
   802c0:	910a6000 	add	x0, x0, #0x298
   802c4:	940000df 	bl	80640 <uart_puts>
   802c8:	aa1303e0 	mov	x0, x19
   802cc:	940000dd 	bl	80640 <uart_puts>
   802d0:	b0000000 	adrp	x0, 81000 <cat+0x250>
   802d4:	910a8000 	add	x0, x0, #0x2a0
   802d8:	940000da 	bl	80640 <uart_puts>
   802dc:	17ffff75 	b	800b0 <main+0x60>

00000000000802e0 <mailbox_call>:
   802e0:	b0000004 	adrp	x4, 81000 <cat+0x250>
   802e4:	91124082 	add	x2, x4, #0x490
   802e8:	d2971301 	mov	x1, #0xb898                	// #47256
   802ec:	321d0042 	orr	w2, w2, #0x8
   802f0:	f2a7e001 	movk	x1, #0x3f00, lsl #16
   802f4:	d503201f 	nop
   802f8:	d503201f 	nop
   802fc:	b9400020 	ldr	w0, [x1]
   80300:	37ffffc0 	tbnz	w0, #31, 802f8 <mailbox_call+0x18>
   80304:	d2971400 	mov	x0, #0xb8a0                	// #47264
   80308:	d2971301 	mov	x1, #0xb898                	// #47256
   8030c:	f2a7e000 	movk	x0, #0x3f00, lsl #16
   80310:	d2971003 	mov	x3, #0xb880                	// #47232
   80314:	f2a7e001 	movk	x1, #0x3f00, lsl #16
   80318:	f2a7e003 	movk	x3, #0x3f00, lsl #16
   8031c:	b9000002 	str	w2, [x0]
   80320:	d503201f 	nop
   80324:	b9400020 	ldr	w0, [x1]
   80328:	37f7ffc0 	tbnz	w0, #30, 80320 <mailbox_call+0x40>
   8032c:	b9400060 	ldr	w0, [x3]
   80330:	6b02001f 	cmp	w0, w2
   80334:	54ffff61 	b.ne	80320 <mailbox_call+0x40>  // b.any
   80338:	91124084 	add	x4, x4, #0x490
   8033c:	52b00000 	mov	w0, #0x80000000            	// #-2147483648
   80340:	b9400481 	ldr	w1, [x4, #4]
   80344:	6b00003f 	cmp	w1, w0
   80348:	1a9f17e0 	cset	w0, eq  // eq = none
   8034c:	d65f03c0 	ret

0000000000080350 <get_board_revision>:
   80350:	b0000004 	adrp	x4, 81000 <cat+0x250>
   80354:	91124080 	add	x0, x4, #0x490
   80358:	52800382 	mov	w2, #0x1c                  	// #28
   8035c:	52800041 	mov	w1, #0x2                   	// #2
   80360:	b9049082 	str	w2, [x4, #1168]
   80364:	72a00021 	movk	w1, #0x1, lsl #16
   80368:	b900041f 	str	wzr, [x0, #4]
   8036c:	52800083 	mov	w3, #0x4                   	// #4
   80370:	b9000801 	str	w1, [x0, #8]
   80374:	321d0002 	orr	w2, w0, #0x8
   80378:	b9000c03 	str	w3, [x0, #12]
   8037c:	d2971301 	mov	x1, #0xb898                	// #47256
   80380:	b900101f 	str	wzr, [x0, #16]
   80384:	f2a7e001 	movk	x1, #0x3f00, lsl #16
   80388:	b900141f 	str	wzr, [x0, #20]
   8038c:	b900181f 	str	wzr, [x0, #24]
   80390:	d503201f 	nop
   80394:	b9400020 	ldr	w0, [x1]
   80398:	37ffffc0 	tbnz	w0, #31, 80390 <get_board_revision+0x40>
   8039c:	d2971400 	mov	x0, #0xb8a0                	// #47264
   803a0:	d2971301 	mov	x1, #0xb898                	// #47256
   803a4:	f2a7e000 	movk	x0, #0x3f00, lsl #16
   803a8:	d2971003 	mov	x3, #0xb880                	// #47232
   803ac:	f2a7e001 	movk	x1, #0x3f00, lsl #16
   803b0:	f2a7e003 	movk	x3, #0x3f00, lsl #16
   803b4:	b9000002 	str	w2, [x0]
   803b8:	d503201f 	nop
   803bc:	b9400020 	ldr	w0, [x1]
   803c0:	37f7ffc0 	tbnz	w0, #30, 803b8 <get_board_revision+0x68>
   803c4:	b9400060 	ldr	w0, [x3]
   803c8:	6b00005f 	cmp	w2, w0
   803cc:	54ffff61 	b.ne	803b8 <get_board_revision+0x68>  // b.any
   803d0:	91124084 	add	x4, x4, #0x490
   803d4:	b9400480 	ldr	w0, [x4, #4]
   803d8:	d65f03c0 	ret
   803dc:	d503201f 	nop

00000000000803e0 <get_arm_mem>:
   803e0:	b0000004 	adrp	x4, 81000 <cat+0x250>
   803e4:	91124080 	add	x0, x4, #0x490
   803e8:	52800402 	mov	w2, #0x20                  	// #32
   803ec:	528000a1 	mov	w1, #0x5                   	// #5
   803f0:	b9049082 	str	w2, [x4, #1168]
   803f4:	72a00021 	movk	w1, #0x1, lsl #16
   803f8:	b900041f 	str	wzr, [x0, #4]
   803fc:	52800103 	mov	w3, #0x8                   	// #8
   80400:	b9000801 	str	w1, [x0, #8]
   80404:	2a030002 	orr	w2, w0, w3
   80408:	b9000c03 	str	w3, [x0, #12]
   8040c:	d2971301 	mov	x1, #0xb898                	// #47256
   80410:	b900101f 	str	wzr, [x0, #16]
   80414:	f2a7e001 	movk	x1, #0x3f00, lsl #16
   80418:	b900141f 	str	wzr, [x0, #20]
   8041c:	b900181f 	str	wzr, [x0, #24]
   80420:	b9001c1f 	str	wzr, [x0, #28]
   80424:	d503201f 	nop
   80428:	d503201f 	nop
   8042c:	b9400020 	ldr	w0, [x1]
   80430:	37ffffc0 	tbnz	w0, #31, 80428 <get_arm_mem+0x48>
   80434:	d2971400 	mov	x0, #0xb8a0                	// #47264
   80438:	d2971301 	mov	x1, #0xb898                	// #47256
   8043c:	f2a7e000 	movk	x0, #0x3f00, lsl #16
   80440:	d2971003 	mov	x3, #0xb880                	// #47232
   80444:	f2a7e001 	movk	x1, #0x3f00, lsl #16
   80448:	f2a7e003 	movk	x3, #0x3f00, lsl #16
   8044c:	b9000002 	str	w2, [x0]
   80450:	d503201f 	nop
   80454:	b9400020 	ldr	w0, [x1]
   80458:	37f7ffc0 	tbnz	w0, #30, 80450 <get_arm_mem+0x70>
   8045c:	b9400060 	ldr	w0, [x3]
   80460:	6b00005f 	cmp	w2, w0
   80464:	54ffff61 	b.ne	80450 <get_arm_mem+0x70>  // b.any
   80468:	91124084 	add	x4, x4, #0x490
   8046c:	b9400480 	ldr	w0, [x4, #4]
   80470:	d65f03c0 	ret
	...

0000000000080480 <set>:
   80480:	2a0003e0 	mov	w0, w0
   80484:	b9000001 	str	w1, [x0]
   80488:	d65f03c0 	ret
   8048c:	d503201f 	nop

0000000000080490 <reset>:
   80490:	d2800382 	mov	x2, #0x1c                  	// #28
   80494:	d2800481 	mov	x1, #0x24                  	// #36
   80498:	f2a7e202 	movk	x2, #0x3f10, lsl #16
   8049c:	f2a7e201 	movk	x1, #0x3f10, lsl #16
   804a0:	52800403 	mov	w3, #0x20                  	// #32
   804a4:	52ab4004 	mov	w4, #0x5a000000            	// #1509949440
   804a8:	72ab4003 	movk	w3, #0x5a00, lsl #16
   804ac:	b9000043 	str	w3, [x2]
   804b0:	2a040000 	orr	w0, w0, w4
   804b4:	b9000020 	str	w0, [x1]
   804b8:	d65f03c0 	ret
   804bc:	d503201f 	nop

00000000000804c0 <cancel_reset>:
   804c0:	d2800382 	mov	x2, #0x1c                  	// #28
   804c4:	d2800481 	mov	x1, #0x24                  	// #36
   804c8:	f2a7e202 	movk	x2, #0x3f10, lsl #16
   804cc:	f2a7e201 	movk	x1, #0x3f10, lsl #16
   804d0:	52ab4000 	mov	w0, #0x5a000000            	// #1509949440
   804d4:	b9000040 	str	w0, [x2]
   804d8:	b9000020 	str	w0, [x1]
   804dc:	d65f03c0 	ret

00000000000804e0 <uart_init>:
   804e0:	d2801281 	mov	x1, #0x94                  	// #148
   804e4:	528012c0 	mov	w0, #0x96                  	// #150
   804e8:	f2a7e401 	movk	x1, #0x3f20, lsl #16
   804ec:	b900003f 	str	wzr, [x1]
   804f0:	d503201f 	nop
   804f4:	71000400 	subs	w0, w0, #0x1
   804f8:	54ffffc1 	b.ne	804f0 <uart_init+0x10>  // b.any
   804fc:	d2801301 	mov	x1, #0x98                  	// #152
   80500:	52980002 	mov	w2, #0xc000                	// #49152
   80504:	f2a7e401 	movk	x1, #0x3f20, lsl #16
   80508:	528012c0 	mov	w0, #0x96                  	// #150
   8050c:	b9000022 	str	w2, [x1]
   80510:	d503201f 	nop
   80514:	71000400 	subs	w0, w0, #0x1
   80518:	54ffffc1 	b.ne	80510 <uart_init+0x30>  // b.any
   8051c:	d2801300 	mov	x0, #0x98                  	// #152
   80520:	d28a0081 	mov	x1, #0x5004                	// #20484
   80524:	f2a7e400 	movk	x0, #0x3f20, lsl #16
   80528:	f2a7e421 	movk	x1, #0x3f21, lsl #16
   8052c:	d28a0c03 	mov	x3, #0x5060                	// #20576
   80530:	d28a0982 	mov	x2, #0x504c                	// #20556
   80534:	b900001f 	str	wzr, [x0]
   80538:	f2a7e423 	movk	x3, #0x3f21, lsl #16
   8053c:	f2a7e422 	movk	x2, #0x3f21, lsl #16
   80540:	d28a0a05 	mov	x5, #0x5050                	// #20560
   80544:	b9400020 	ldr	w0, [x1]
   80548:	f2a7e425 	movk	x5, #0x3f21, lsl #16
   8054c:	d28a0889 	mov	x9, #0x5044                	// #20548
   80550:	52800064 	mov	w4, #0x3                   	// #3
   80554:	32000000 	orr	w0, w0, #0x1
   80558:	b9000020 	str	w0, [x1]
   8055c:	b900007f 	str	wzr, [x3]
   80560:	f2a7e429 	movk	x9, #0x3f21, lsl #16
   80564:	d28a0907 	mov	x7, #0x5048                	// #20552
   80568:	b9000044 	str	w4, [x2]
   8056c:	f2a7e427 	movk	x7, #0x3f21, lsl #16
   80570:	d28a0d06 	mov	x6, #0x5068                	// #20584
   80574:	b90000bf 	str	wzr, [x5]
   80578:	f2a7e426 	movk	x6, #0x3f21, lsl #16
   8057c:	b900013f 	str	wzr, [x9]
   80580:	528000c8 	mov	w8, #0x6                   	// #6
   80584:	b90000e8 	str	w8, [x7]
   80588:	528021c0 	mov	w0, #0x10e                 	// #270
   8058c:	d2800082 	mov	x2, #0x4                   	// #4
   80590:	b90000c0 	str	w0, [x6]
   80594:	f2a7e402 	movk	x2, #0x3f20, lsl #16
   80598:	b9000064 	str	w4, [x3]
   8059c:	91014021 	add	x1, x1, #0x50
   805a0:	52840005 	mov	w5, #0x2000                	// #8192
   805a4:	b9400040 	ldr	w0, [x2]
   805a8:	72a00025 	movk	w5, #0x1, lsl #16
   805ac:	120e6400 	and	w0, w0, #0xfffc0fff
   805b0:	2a050000 	orr	w0, w0, w5
   805b4:	b9000040 	str	w0, [x2]
   805b8:	b9400020 	ldr	w0, [x1]
   805bc:	360000c0 	tbz	w0, #0, 805d4 <uart_init+0xf4>
   805c0:	d28a0802 	mov	x2, #0x5040                	// #20544
   805c4:	f2a7e422 	movk	x2, #0x3f21, lsl #16
   805c8:	b9400040 	ldr	w0, [x2]
   805cc:	b9400020 	ldr	w0, [x1]
   805d0:	3707ffc0 	tbnz	w0, #0, 805c8 <uart_init+0xe8>
   805d4:	d65f03c0 	ret
   805d8:	d503201f 	nop
   805dc:	d503201f 	nop

00000000000805e0 <uart_send>:
   805e0:	d28a0a82 	mov	x2, #0x5054                	// #20564
   805e4:	f2a7e422 	movk	x2, #0x3f21, lsl #16
   805e8:	d503201f 	nop
   805ec:	b9400041 	ldr	w1, [x2]
   805f0:	362fffc1 	tbz	w1, #5, 805e8 <uart_send+0x8>
   805f4:	d28a0801 	mov	x1, #0x5040                	// #20544
   805f8:	f2a7e421 	movk	x1, #0x3f21, lsl #16
   805fc:	b9000020 	str	w0, [x1]
   80600:	d65f03c0 	ret

0000000000080604 <uart_getc>:
   80604:	d28a0a81 	mov	x1, #0x5054                	// #20564
   80608:	f2a7e421 	movk	x1, #0x3f21, lsl #16
   8060c:	d503201f 	nop
   80610:	d503201f 	nop
   80614:	b9400020 	ldr	w0, [x1]
   80618:	3607ffc0 	tbz	w0, #0, 80610 <uart_getc+0xc>
   8061c:	d28a0800 	mov	x0, #0x5040                	// #20544
   80620:	52800141 	mov	w1, #0xa                   	// #10
   80624:	f2a7e420 	movk	x0, #0x3f21, lsl #16
   80628:	b9400000 	ldr	w0, [x0]
   8062c:	12001c00 	and	w0, w0, #0xff
   80630:	7100341f 	cmp	w0, #0xd
   80634:	1a811000 	csel	w0, w0, w1, ne  // ne = any
   80638:	d65f03c0 	ret
   8063c:	d503201f 	nop

0000000000080640 <uart_puts>:
   80640:	39400001 	ldrb	w1, [x0]
   80644:	34000221 	cbz	w1, 80688 <uart_puts+0x48>
   80648:	d28a0a82 	mov	x2, #0x5054                	// #20564
   8064c:	d28a0804 	mov	x4, #0x5040                	// #20544
   80650:	f2a7e422 	movk	x2, #0x3f21, lsl #16
   80654:	f2a7e424 	movk	x4, #0x3f21, lsl #16
   80658:	528001a5 	mov	w5, #0xd                   	// #13
   8065c:	d503201f 	nop
   80660:	7100283f 	cmp	w1, #0xa
   80664:	54000140 	b.eq	8068c <uart_puts+0x4c>  // b.none
   80668:	38401403 	ldrb	w3, [x0], #1
   8066c:	d503201f 	nop
   80670:	d503201f 	nop
   80674:	b9400041 	ldr	w1, [x2]
   80678:	362fffc1 	tbz	w1, #5, 80670 <uart_puts+0x30>
   8067c:	b9000083 	str	w3, [x4]
   80680:	39400001 	ldrb	w1, [x0]
   80684:	35fffee1 	cbnz	w1, 80660 <uart_puts+0x20>
   80688:	d65f03c0 	ret
   8068c:	d503201f 	nop
   80690:	b9400041 	ldr	w1, [x2]
   80694:	362fffc1 	tbz	w1, #5, 8068c <uart_puts+0x4c>
   80698:	b9000085 	str	w5, [x4]
   8069c:	17fffff3 	b	80668 <uart_puts+0x28>

00000000000806a0 <uart_hex>:
   806a0:	a9bf7bfd 	stp	x29, x30, [sp, #-16]!
   806a4:	b0000001 	adrp	x1, 81000 <cat+0x250>
   806a8:	2a0003e6 	mov	w6, w0
   806ac:	910003fd 	mov	x29, sp
   806b0:	910b8020 	add	x0, x1, #0x2e0
   806b4:	97ffffe3 	bl	80640 <uart_puts>
   806b8:	d28a0a82 	mov	x2, #0x5054                	// #20564
   806bc:	d28a0800 	mov	x0, #0x5040                	// #20544
   806c0:	52800383 	mov	w3, #0x1c                  	// #28
   806c4:	52800ae7 	mov	w7, #0x57                  	// #87
   806c8:	52800605 	mov	w5, #0x30                  	// #48
   806cc:	f2a7e422 	movk	x2, #0x3f21, lsl #16
   806d0:	f2a7e420 	movk	x0, #0x3f21, lsl #16
   806d4:	d503201f 	nop
   806d8:	1ac324c1 	lsr	w1, w6, w3
   806dc:	12000c21 	and	w1, w1, #0xf
   806e0:	7100243f 	cmp	w1, #0x9
   806e4:	1a8580e4 	csel	w4, w7, w5, hi  // hi = pmore
   806e8:	0b010084 	add	w4, w4, w1
   806ec:	d503201f 	nop
   806f0:	d503201f 	nop
   806f4:	b9400041 	ldr	w1, [x2]
   806f8:	362fffc1 	tbz	w1, #5, 806f0 <uart_hex+0x50>
   806fc:	51001063 	sub	w3, w3, #0x4
   80700:	b9000004 	str	w4, [x0]
   80704:	3100107f 	cmn	w3, #0x4
   80708:	54fffe81 	b.ne	806d8 <uart_hex+0x38>  // b.any
   8070c:	a8c17bfd 	ldp	x29, x30, [sp], #16
   80710:	d65f03c0 	ret
	...

0000000000080720 <pow>:
   80720:	2a0003e2 	mov	w2, w0
   80724:	52800020 	mov	w0, #0x1                   	// #1
   80728:	7100003f 	cmp	w1, #0x0
   8072c:	5400008d 	b.le	8073c <pow+0x1c>
   80730:	1b027c00 	mul	w0, w0, w2
   80734:	71000421 	subs	w1, w1, #0x1
   80738:	54ffffc1 	b.ne	80730 <pow+0x10>  // b.any
   8073c:	d65f03c0 	ret

0000000000080740 <strcmp>:
   80740:	39400002 	ldrb	w2, [x0]
   80744:	35000082 	cbnz	w2, 80754 <strcmp+0x14>
   80748:	14000009 	b	8076c <strcmp+0x2c>
   8074c:	38401c02 	ldrb	w2, [x0, #1]!
   80750:	340000e2 	cbz	w2, 8076c <strcmp+0x2c>
   80754:	39400023 	ldrb	w3, [x1]
   80758:	91000421 	add	x1, x1, #0x1
   8075c:	6b02007f 	cmp	w3, w2
   80760:	54ffff60 	b.eq	8074c <strcmp+0xc>  // b.none
   80764:	52800020 	mov	w0, #0x1                   	// #1
   80768:	d65f03c0 	ret
   8076c:	39400020 	ldrb	w0, [x1]
   80770:	7100001f 	cmp	w0, #0x0
   80774:	1a9f07e0 	cset	w0, ne  // ne = any
   80778:	d65f03c0 	ret
   8077c:	d503201f 	nop

0000000000080780 <strlen>:
   80780:	39400001 	ldrb	w1, [x0]
   80784:	34000101 	cbz	w1, 807a4 <strlen+0x24>
   80788:	d1000403 	sub	x3, x0, #0x1
   8078c:	d2800021 	mov	x1, #0x1                   	// #1
   80790:	2a0103e0 	mov	w0, w1
   80794:	91000421 	add	x1, x1, #0x1
   80798:	38616862 	ldrb	w2, [x3, x1]
   8079c:	35ffffa2 	cbnz	w2, 80790 <strlen+0x10>
   807a0:	d65f03c0 	ret
   807a4:	52800000 	mov	w0, #0x0                   	// #0
   807a8:	d65f03c0 	ret
   807ac:	d503201f 	nop

00000000000807b0 <substr>:
   807b0:	6b03005f 	cmp	w2, w3
   807b4:	540001ac 	b.gt	807e8 <substr+0x38>
   807b8:	0b030043 	add	w3, w2, w3
   807bc:	6b03005f 	cmp	w2, w3
   807c0:	5400016a 	b.ge	807ec <substr+0x3c>  // b.tcont
   807c4:	93407c42 	sxtw	x2, w2
   807c8:	cb020025 	sub	x5, x1, x2
   807cc:	d503201f 	nop
   807d0:	38626804 	ldrb	w4, [x0, x2]
   807d4:	382268a4 	strb	w4, [x5, x2]
   807d8:	91000442 	add	x2, x2, #0x1
   807dc:	6b02007f 	cmp	w3, w2
   807e0:	54ffff8c 	b.gt	807d0 <substr+0x20>
   807e4:	3823c83f 	strb	wzr, [x1, w3, sxtw]
   807e8:	d65f03c0 	ret
   807ec:	2a0203e3 	mov	w3, w2
   807f0:	3823c83f 	strb	wzr, [x1, w3, sxtw]
   807f4:	17fffffd 	b	807e8 <substr+0x38>
   807f8:	d503201f 	nop
   807fc:	d503201f 	nop

0000000000080800 <reverse>:
   80800:	aa0003e2 	mov	x2, x0
   80804:	52800005 	mov	w5, #0x0                   	// #0
   80808:	385ff446 	ldrb	w6, [x2], #-1
   8080c:	340003c6 	cbz	w6, 80884 <reverse+0x84>
   80810:	d2800021 	mov	x1, #0x1                   	// #1
   80814:	d503201f 	nop
   80818:	2a0103e4 	mov	w4, w1
   8081c:	91000421 	add	x1, x1, #0x1
   80820:	38616843 	ldrb	w3, [x2, x1]
   80824:	35ffffa3 	cbnz	w3, 80818 <reverse+0x18>
   80828:	6b8404bf 	cmp	w5, w4, asr #1
   8082c:	540002ca 	b.ge	80884 <reverse+0x84>  // b.tcont
   80830:	d2800021 	mov	x1, #0x1                   	// #1
   80834:	d503201f 	nop
   80838:	2a0103e4 	mov	w4, w1
   8083c:	91000421 	add	x1, x1, #0x1
   80840:	38616843 	ldrb	w3, [x2, x1]
   80844:	35ffffa3 	cbnz	w3, 80838 <reverse+0x38>
   80848:	4b050084 	sub	w4, w4, w5
   8084c:	d2800021 	mov	x1, #0x1                   	// #1
   80850:	8b24c004 	add	x4, x0, w4, sxtw
   80854:	385ff087 	ldurb	w7, [x4, #-1]
   80858:	2a0103e4 	mov	w4, w1
   8085c:	91000421 	add	x1, x1, #0x1
   80860:	38616843 	ldrb	w3, [x2, x1]
   80864:	35ffffa3 	cbnz	w3, 80858 <reverse+0x58>
   80868:	4b050084 	sub	w4, w4, w5
   8086c:	110004a5 	add	w5, w5, #0x1
   80870:	8b24c004 	add	x4, x0, w4, sxtw
   80874:	381ff086 	sturb	w6, [x4, #-1]
   80878:	2a0703e6 	mov	w6, w7
   8087c:	39000007 	strb	w7, [x0]
   80880:	35fffc86 	cbnz	w6, 80810 <reverse+0x10>
   80884:	d65f03c0 	ret
   80888:	d503201f 	nop
   8088c:	d503201f 	nop

0000000000080890 <itoa>:
   80890:	2a0003e5 	mov	w5, w0
   80894:	aa0103e0 	mov	x0, x1
   80898:	340003a5 	cbz	w5, 8090c <itoa+0x7c>
   8089c:	d1000428 	sub	x8, x1, #0x1
   808a0:	528ccce1 	mov	w1, #0x6667                	// #26215
   808a4:	d2800027 	mov	x7, #0x1                   	// #1
   808a8:	72acccc1 	movk	w1, #0x6666, lsl #16
   808ac:	d503201f 	nop
   808b0:	9b217ca3 	smull	x3, w5, w1
   808b4:	2a0703e6 	mov	w6, w7
   808b8:	9362fc63 	asr	x3, x3, #34
   808bc:	4b857c63 	sub	w3, w3, w5, asr #31
   808c0:	0b030864 	add	w4, w3, w3, lsl #2
   808c4:	4b0404a4 	sub	w4, w5, w4, lsl #1
   808c8:	2a0303e5 	mov	w5, w3
   808cc:	1100c083 	add	w3, w4, #0x30
   808d0:	38276903 	strb	w3, [x8, x7]
   808d4:	910004e7 	add	x7, x7, #0x1
   808d8:	35fffec5 	cbnz	w5, 808b0 <itoa+0x20>
   808dc:	8b26c001 	add	x1, x0, w6, sxtw
   808e0:	6b06005f 	cmp	w2, w6
   808e4:	5400010d 	b.le	80904 <itoa+0x74>
   808e8:	93407cc3 	sxtw	x3, w6
   808ec:	52800601 	mov	w1, #0x30                  	// #48
   808f0:	38236801 	strb	w1, [x0, x3]
   808f4:	91000463 	add	x3, x3, #0x1
   808f8:	6b03005f 	cmp	w2, w3
   808fc:	54ffffac 	b.gt	808f0 <itoa+0x60>
   80900:	8b22c001 	add	x1, x0, w2, sxtw
   80904:	3900003f 	strb	wzr, [x1]
   80908:	17ffffbe 	b	80800 <reverse>
   8090c:	52800006 	mov	w6, #0x0                   	// #0
   80910:	17fffff4 	b	808e0 <itoa+0x50>

0000000000080914 <ftoa>:
   80914:	1e380009 	fcvtzs	w9, s0
   80918:	a9bf7bfd 	stp	x29, x30, [sp, #-16]!
   8091c:	2a0103e8 	mov	w8, w1
   80920:	910003fd 	mov	x29, sp
   80924:	34000b29 	cbz	w9, 80a88 <ftoa+0x174>
   80928:	528ccce7 	mov	w7, #0x6667                	// #26215
   8092c:	2a0903e4 	mov	w4, w9
   80930:	d1000406 	sub	x6, x0, #0x1
   80934:	d2800025 	mov	x5, #0x1                   	// #1
   80938:	72acccc7 	movk	w7, #0x6666, lsl #16
   8093c:	d503201f 	nop
   80940:	9b277c82 	smull	x2, w4, w7
   80944:	2a0503e1 	mov	w1, w5
   80948:	9362fc42 	asr	x2, x2, #34
   8094c:	4b847c42 	sub	w2, w2, w4, asr #31
   80950:	0b020843 	add	w3, w2, w2, lsl #2
   80954:	4b030483 	sub	w3, w4, w3, lsl #1
   80958:	2a0203e4 	mov	w4, w2
   8095c:	1100c062 	add	w2, w3, #0x30
   80960:	382568c2 	strb	w2, [x6, x5]
   80964:	910004a5 	add	x5, x5, #0x1
   80968:	35fffec4 	cbnz	w4, 80940 <ftoa+0x2c>
   8096c:	8b21c001 	add	x1, x0, w1, sxtw
   80970:	3900003f 	strb	wzr, [x1]
   80974:	97ffffa3 	bl	80800 <reverse>
   80978:	39400001 	ldrb	w1, [x0]
   8097c:	34000741 	cbz	w1, 80a64 <ftoa+0x150>
   80980:	d1000406 	sub	x6, x0, #0x1
   80984:	d2800022 	mov	x2, #0x1                   	// #1
   80988:	8b020004 	add	x4, x0, x2
   8098c:	aa0203e3 	mov	x3, x2
   80990:	91000442 	add	x2, x2, #0x1
   80994:	386268c1 	ldrb	w1, [x6, x2]
   80998:	35ffff81 	cbnz	w1, 80988 <ftoa+0x74>
   8099c:	7100011f 	cmp	w8, #0x0
   809a0:	340006a8 	cbz	w8, 80a74 <ftoa+0x160>
   809a4:	d503201f 	nop
   809a8:	1e220121 	scvtf	s1, w9
   809ac:	528005c1 	mov	w1, #0x2e                  	// #46
   809b0:	39000081 	strb	w1, [x4]
   809b4:	1e213800 	fsub	s0, s0, s1
   809b8:	5400014d 	b.le	809e0 <ftoa+0xcc>
   809bc:	2a0803e2 	mov	w2, w8
   809c0:	52800021 	mov	w1, #0x1                   	// #1
   809c4:	d503201f 	nop
   809c8:	0b010821 	add	w1, w1, w1, lsl #2
   809cc:	71000442 	subs	w2, w2, #0x1
   809d0:	531f7821 	lsl	w1, w1, #1
   809d4:	54ffffa1 	b.ne	809c8 <ftoa+0xb4>  // b.any
   809d8:	1e220021 	scvtf	s1, w1
   809dc:	1e210800 	fmul	s0, s0, s1
   809e0:	1e380004 	fcvtzs	w4, s0
   809e4:	91000467 	add	x7, x3, #0x1
   809e8:	8b070007 	add	x7, x0, x7
   809ec:	34000484 	cbz	w4, 80a7c <ftoa+0x168>
   809f0:	8b030002 	add	x2, x0, x3
   809f4:	528ccce0 	mov	w0, #0x6667                	// #26215
   809f8:	d2800026 	mov	x6, #0x1                   	// #1
   809fc:	72acccc0 	movk	w0, #0x6666, lsl #16
   80a00:	9b207c83 	smull	x3, w4, w0
   80a04:	93407cc1 	sxtw	x1, w6
   80a08:	9362fc63 	asr	x3, x3, #34
   80a0c:	4b847c63 	sub	w3, w3, w4, asr #31
   80a10:	0b030865 	add	w5, w3, w3, lsl #2
   80a14:	4b050485 	sub	w5, w4, w5, lsl #1
   80a18:	2a0303e4 	mov	w4, w3
   80a1c:	1100c0a3 	add	w3, w5, #0x30
   80a20:	38266843 	strb	w3, [x2, x6]
   80a24:	910004c6 	add	x6, x6, #0x1
   80a28:	35fffec4 	cbnz	w4, 80a00 <ftoa+0xec>
   80a2c:	8b21c0e0 	add	x0, x7, w1, sxtw
   80a30:	6b01011f 	cmp	w8, w1
   80a34:	5400010d 	b.le	80a54 <ftoa+0x140>
   80a38:	52800600 	mov	w0, #0x30                  	// #48
   80a3c:	d503201f 	nop
   80a40:	382168e0 	strb	w0, [x7, x1]
   80a44:	91000421 	add	x1, x1, #0x1
   80a48:	6b01011f 	cmp	w8, w1
   80a4c:	54ffffac 	b.gt	80a40 <ftoa+0x12c>
   80a50:	8b28c0e0 	add	x0, x7, w8, sxtw
   80a54:	3900001f 	strb	wzr, [x0]
   80a58:	aa0703e0 	mov	x0, x7
   80a5c:	a8c17bfd 	ldp	x29, x30, [sp], #16
   80a60:	17ffff68 	b	80800 <reverse>
   80a64:	aa0003e4 	mov	x4, x0
   80a68:	7100011f 	cmp	w8, #0x0
   80a6c:	d2800003 	mov	x3, #0x0                   	// #0
   80a70:	35fff9c8 	cbnz	w8, 809a8 <ftoa+0x94>
   80a74:	a8c17bfd 	ldp	x29, x30, [sp], #16
   80a78:	d65f03c0 	ret
   80a7c:	aa0703e0 	mov	x0, x7
   80a80:	d2800001 	mov	x1, #0x0                   	// #0
   80a84:	17ffffeb 	b	80a30 <ftoa+0x11c>
   80a88:	aa0003e1 	mov	x1, x0
   80a8c:	17ffffb9 	b	80970 <ftoa+0x5c>

0000000000080a90 <ls>:
   80a90:	a9bb7bfd 	stp	x29, x30, [sp, #-80]!
   80a94:	910003fd 	mov	x29, sp
   80a98:	a9025bf5 	stp	x21, x22, [sp, #32]
   80a9c:	b0000015 	adrp	x21, 81000 <cat+0x250>
   80aa0:	910c42b5 	add	x21, x21, #0x310
   80aa4:	a90363f7 	stp	x23, x24, [sp, #48]
   80aa8:	b0000017 	adrp	x23, 81000 <cat+0x250>
   80aac:	2a0103f8 	mov	w24, w1
   80ab0:	910be2f7 	add	x23, x23, #0x2f8
   80ab4:	a9046bf9 	stp	x25, x26, [sp, #64]
   80ab8:	aa0003f9 	mov	x25, x0
   80abc:	d2a10016 	mov	x22, #0x8000000             	// #134217728
   80ac0:	a90153f3 	stp	x19, x20, [sp, #16]
   80ac4:	d503201f 	nop
   80ac8:	9100dac2 	add	x2, x22, #0x36
   80acc:	9100fac5 	add	x5, x22, #0x3e
   80ad0:	52800003 	mov	w3, #0x0                   	// #0
   80ad4:	52800014 	mov	w20, #0x0                   	// #0
   80ad8:	14000018 	b	80b38 <ls+0xa8>
   80adc:	39400040 	ldrb	w0, [x2]
   80ae0:	12001c00 	and	w0, w0, #0xff
   80ae4:	7101181f 	cmp	w0, #0x46
   80ae8:	54000328 	b.hi	80b4c <ls+0xbc>  // b.pmore
   80aec:	39400040 	ldrb	w0, [x2]
   80af0:	531c6c63 	lsl	w3, w3, #4
   80af4:	3940a044 	ldrb	w4, [x2, #40]
   80af8:	0b200280 	add	w0, w20, w0, uxtb
   80afc:	12001c84 	and	w4, w4, #0xff
   80b00:	5100dc14 	sub	w20, w0, #0x37
   80b04:	9100a040 	add	x0, x2, #0x28
   80b08:	7101009f 	cmp	w4, #0x40
   80b0c:	54000329 	b.ls	80b70 <ls+0xe0>  // b.plast
   80b10:	3940a041 	ldrb	w1, [x2, #40]
   80b14:	12001c21 	and	w1, w1, #0xff
   80b18:	7101183f 	cmp	w1, #0x46
   80b1c:	540002a8 	b.hi	80b70 <ls+0xe0>  // b.pmore
   80b20:	39400000 	ldrb	w0, [x0]
   80b24:	91000442 	add	x2, x2, #0x1
   80b28:	0b200060 	add	w0, w3, w0, uxtb
   80b2c:	5100dc03 	sub	w3, w0, #0x37
   80b30:	eb05005f 	cmp	x2, x5
   80b34:	540002a0 	b.eq	80b88 <ls+0xf8>  // b.none
   80b38:	39400044 	ldrb	w4, [x2]
   80b3c:	531c6e94 	lsl	w20, w20, #4
   80b40:	12001c84 	and	w4, w4, #0xff
   80b44:	7101009f 	cmp	w4, #0x40
   80b48:	54fffca8 	b.hi	80adc <ls+0x4c>  // b.pmore
   80b4c:	39400044 	ldrb	w4, [x2]
   80b50:	531c6c63 	lsl	w3, w3, #4
   80b54:	9100a040 	add	x0, x2, #0x28
   80b58:	0b240294 	add	w20, w20, w4, uxtb
   80b5c:	3940a044 	ldrb	w4, [x2, #40]
   80b60:	5100c294 	sub	w20, w20, #0x30
   80b64:	12001c84 	and	w4, w4, #0xff
   80b68:	7101009f 	cmp	w4, #0x40
   80b6c:	54fffd28 	b.hi	80b10 <ls+0x80>  // b.pmore
   80b70:	39400004 	ldrb	w4, [x0]
   80b74:	91000442 	add	x2, x2, #0x1
   80b78:	0b240063 	add	w3, w3, w4, uxtb
   80b7c:	5100c063 	sub	w3, w3, #0x30
   80b80:	eb05005f 	cmp	x2, x5
   80b84:	54fffda1 	b.ne	80b38 <ls+0xa8>  // b.any
   80b88:	1101b873 	add	w19, w3, #0x6e
   80b8c:	72000681 	ands	w1, w20, #0x3
   80b90:	540000c0 	b.eq	80ba8 <ls+0x118>  // b.none
   80b94:	6b1403e0 	negs	w0, w20
   80b98:	12000400 	and	w0, w0, #0x3
   80b9c:	5a804420 	csneg	w0, w1, w0, mi  // mi = first
   80ba0:	4b000280 	sub	w0, w20, w0
   80ba4:	11001014 	add	w20, w0, #0x4
   80ba8:	72000661 	ands	w1, w19, #0x3
   80bac:	540000c0 	b.eq	80bc4 <ls+0x134>  // b.none
   80bb0:	6b1303e0 	negs	w0, w19
   80bb4:	12000400 	and	w0, w0, #0x3
   80bb8:	5a804420 	csneg	w0, w1, w0, mi  // mi = first
   80bbc:	4b000260 	sub	w0, w19, w0
   80bc0:	11001013 	add	w19, w0, #0x4
   80bc4:	3941bac3 	ldrb	w3, [x22, #110]
   80bc8:	9101bada 	add	x26, x22, #0x6e
   80bcc:	340004a3 	cbz	w3, 80c60 <ls+0x1d0>
   80bd0:	b0000000 	adrp	x0, 81000 <cat+0x250>
   80bd4:	2a0303e4 	mov	w4, w3
   80bd8:	910ba000 	add	x0, x0, #0x2e8
   80bdc:	9101bec1 	add	x1, x22, #0x6f
   80be0:	d2800002 	mov	x2, #0x0                   	// #0
   80be4:	52800a85 	mov	w5, #0x54                  	// #84
   80be8:	14000005 	b	80bfc <ls+0x16c>
   80bec:	38626824 	ldrb	w4, [x1, x2]
   80bf0:	91000442 	add	x2, x2, #0x1
   80bf4:	38626805 	ldrb	w5, [x0, x2]
   80bf8:	340009a4 	cbz	w4, 80d2c <ls+0x29c>
   80bfc:	6b0400bf 	cmp	w5, w4
   80c00:	54ffff60 	b.eq	80bec <ls+0x15c>  // b.none
   80c04:	2a0303e4 	mov	w4, w3
   80c08:	9101bec0 	add	x0, x22, #0x6f
   80c0c:	d2800002 	mov	x2, #0x0                   	// #0
   80c10:	528005c5 	mov	w5, #0x2e                  	// #46
   80c14:	14000005 	b	80c28 <ls+0x198>
   80c18:	38626804 	ldrb	w4, [x0, x2]
   80c1c:	91000442 	add	x2, x2, #0x1
   80c20:	38626ae5 	ldrb	w5, [x23, x2]
   80c24:	34000944 	cbz	w4, 80d4c <ls+0x2bc>
   80c28:	6b0400bf 	cmp	w5, w4
   80c2c:	54ffff60 	b.eq	80c18 <ls+0x188>  // b.none
   80c30:	340001d8 	cbz	w24, 80c68 <ls+0x1d8>
   80c34:	aa1903e2 	mov	x2, x25
   80c38:	14000003 	b	80c44 <ls+0x1b4>
   80c3c:	38401f43 	ldrb	w3, [x26, #1]!
   80c40:	34000263 	cbz	w3, 80c8c <ls+0x1fc>
   80c44:	39400040 	ldrb	w0, [x2]
   80c48:	91000442 	add	x2, x2, #0x1
   80c4c:	6b03001f 	cmp	w0, w3
   80c50:	54ffff60 	b.eq	80c3c <ls+0x1ac>  // b.none
   80c54:	0b130283 	add	w3, w20, w19
   80c58:	8b23c2d6 	add	x22, x22, w3, sxtw
   80c5c:	17ffff9b 	b	80ac8 <ls+0x38>
   80c60:	aa1903e2 	mov	x2, x25
   80c64:	35000158 	cbnz	w24, 80c8c <ls+0x1fc>
   80c68:	aa1a03e0 	mov	x0, x26
   80c6c:	97fffe75 	bl	80640 <uart_puts>
   80c70:	aa1503e0 	mov	x0, x21
   80c74:	97fffe73 	bl	80640 <uart_puts>
   80c78:	3941bac3 	ldrb	w3, [x22, #110]
   80c7c:	35fffdc3 	cbnz	w3, 80c34 <ls+0x1a4>
   80c80:	0b130283 	add	w3, w20, w19
   80c84:	8b23c2d6 	add	x22, x22, w3, sxtw
   80c88:	17ffff90 	b	80ac8 <ls+0x38>
   80c8c:	39400040 	ldrb	w0, [x2]
   80c90:	7100001f 	cmp	w0, #0x0
   80c94:	7a400b04 	ccmp	w24, #0x0, #0x4, eq  // eq = none
   80c98:	54fffde0 	b.eq	80c54 <ls+0x1c4>  // b.none
   80c9c:	7100029f 	cmp	w20, #0x0
   80ca0:	5400038d 	b.le	80d10 <ls+0x280>
   80ca4:	93407e63 	sxtw	x3, w19
   80ca8:	51000680 	sub	w0, w20, #0x1
   80cac:	910006c1 	add	x1, x22, #0x1
   80cb0:	8b030000 	add	x0, x0, x3
   80cb4:	8b0302d6 	add	x22, x22, x3
   80cb8:	8b010013 	add	x19, x0, x1
   80cbc:	d503201f 	nop
   80cc0:	394002c0 	ldrb	w0, [x22]
   80cc4:	12001c00 	and	w0, w0, #0xff
   80cc8:	97fffe46 	bl	805e0 <uart_send>
   80ccc:	394002c4 	ldrb	w4, [x22]
   80cd0:	92401c84 	and	x4, x4, #0xff
   80cd4:	39400081 	ldrb	w1, [x4]
   80cd8:	34000401 	cbz	w1, 80d58 <ls+0x2c8>
   80cdc:	d1002484 	sub	x4, x4, #0x9
   80ce0:	d2800140 	mov	x0, #0xa                   	// #10
   80ce4:	14000003 	b	80cf0 <ls+0x260>
   80ce8:	39400061 	ldrb	w1, [x3]
   80cec:	340003a1 	cbz	w1, 80d60 <ls+0x2d0>
   80cf0:	39400002 	ldrb	w2, [x0]
   80cf4:	8b040003 	add	x3, x0, x4
   80cf8:	91000400 	add	x0, x0, #0x1
   80cfc:	6b01005f 	cmp	w2, w1
   80d00:	54ffff40 	b.eq	80ce8 <ls+0x258>  // b.none
   80d04:	910006d6 	add	x22, x22, #0x1
   80d08:	eb16027f 	cmp	x19, x22
   80d0c:	54fffda1 	b.ne	80cc0 <ls+0x230>  // b.any
   80d10:	52800020 	mov	w0, #0x1                   	// #1
   80d14:	a94153f3 	ldp	x19, x20, [sp, #16]
   80d18:	a9425bf5 	ldp	x21, x22, [sp, #32]
   80d1c:	a94363f7 	ldp	x23, x24, [sp, #48]
   80d20:	a9446bf9 	ldp	x25, x26, [sp, #64]
   80d24:	a8c57bfd 	ldp	x29, x30, [sp], #80
   80d28:	d65f03c0 	ret
   80d2c:	35fff6c5 	cbnz	w5, 80c04 <ls+0x174>
   80d30:	52800000 	mov	w0, #0x0                   	// #0
   80d34:	a94153f3 	ldp	x19, x20, [sp, #16]
   80d38:	a9425bf5 	ldp	x21, x22, [sp, #32]
   80d3c:	a94363f7 	ldp	x23, x24, [sp, #48]
   80d40:	a9446bf9 	ldp	x25, x26, [sp, #64]
   80d44:	a8c57bfd 	ldp	x29, x30, [sp], #80
   80d48:	d65f03c0 	ret
   80d4c:	34fff745 	cbz	w5, 80c34 <ls+0x1a4>
   80d50:	35fff738 	cbnz	w24, 80c34 <ls+0x1a4>
   80d54:	17ffffc5 	b	80c68 <ls+0x1d8>
   80d58:	d2800140 	mov	x0, #0xa                   	// #10
   80d5c:	d503201f 	nop
   80d60:	39400000 	ldrb	w0, [x0]
   80d64:	35fffd00 	cbnz	w0, 80d04 <ls+0x274>
   80d68:	528001a0 	mov	w0, #0xd                   	// #13
   80d6c:	910006d6 	add	x22, x22, #0x1
   80d70:	97fffe1c 	bl	805e0 <uart_send>
   80d74:	eb16027f 	cmp	x19, x22
   80d78:	54fffa41 	b.ne	80cc0 <ls+0x230>  // b.any
   80d7c:	17ffffe5 	b	80d10 <ls+0x280>

0000000000080d80 <checkcat>:
   80d80:	39400001 	ldrb	w1, [x0]
   80d84:	71018c3f 	cmp	w1, #0x63
   80d88:	54000101 	b.ne	80da8 <checkcat+0x28>  // b.any
   80d8c:	39400401 	ldrb	w1, [x0, #1]
   80d90:	7101843f 	cmp	w1, #0x61
   80d94:	540000a1 	b.ne	80da8 <checkcat+0x28>  // b.any
   80d98:	39400800 	ldrb	w0, [x0, #2]
   80d9c:	7101d01f 	cmp	w0, #0x74
   80da0:	1a9f17e0 	cset	w0, eq  // eq = none
   80da4:	d65f03c0 	ret
   80da8:	52800000 	mov	w0, #0x0                   	// #0
   80dac:	d65f03c0 	ret

0000000000080db0 <cat>:
   80db0:	a9bc7bfd 	stp	x29, x30, [sp, #-64]!
   80db4:	910003fd 	mov	x29, sp
   80db8:	a90153f3 	stp	x19, x20, [sp, #16]
   80dbc:	39400001 	ldrb	w1, [x0]
   80dc0:	34001601 	cbz	w1, 81080 <cat+0x2d0>
   80dc4:	d1000405 	sub	x5, x0, #0x1
   80dc8:	d2800021 	mov	x1, #0x1                   	// #1
   80dcc:	d503201f 	nop
   80dd0:	51000423 	sub	w3, w1, #0x1
   80dd4:	2a0103e4 	mov	w4, w1
   80dd8:	91000421 	add	x1, x1, #0x1
   80ddc:	386168a2 	ldrb	w2, [x5, x1]
   80de0:	35ffff82 	cbnz	w2, 80dd0 <cat+0x20>
   80de4:	a902ffff 	stp	xzr, xzr, [sp, #40]
   80de8:	9100a3f3 	add	x19, sp, #0x28
   80dec:	b9003bff 	str	wzr, [sp, #56]
   80df0:	71001c9f 	cmp	w4, #0x7
   80df4:	540001cd 	b.le	80e2c <cat+0x7c>
   80df8:	d2800081 	mov	x1, #0x4                   	// #4
   80dfc:	d503201f 	nop
   80e00:	8b010265 	add	x5, x19, x1
   80e04:	38616806 	ldrb	w6, [x0, x1]
   80e08:	91000421 	add	x1, x1, #0x1
   80e0c:	51000422 	sub	w2, w1, #0x1
   80e10:	381fc0a6 	sturb	w6, [x5, #-4]
   80e14:	6b03005f 	cmp	w2, w3
   80e18:	54ffff4b 	b.lt	80e00 <cat+0x50>  // b.tstop
   80e1c:	71000c7f 	cmp	w3, #0x3
   80e20:	528000a0 	mov	w0, #0x5                   	// #5
   80e24:	1a80c084 	csel	w4, w4, w0, gt
   80e28:	3824ca7f 	strb	wzr, [x19, w4, sxtw]
   80e2c:	b0000008 	adrp	x8, 81000 <cat+0x250>
   80e30:	910ba108 	add	x8, x8, #0x2e8
   80e34:	d2a10007 	mov	x7, #0x8000000             	// #134217728
   80e38:	52800089 	mov	w9, #0x4                   	// #4
   80e3c:	d503201f 	nop
   80e40:	9100d8e0 	add	x0, x7, #0x36
   80e44:	9100f8e5 	add	x5, x7, #0x3e
   80e48:	52800001 	mov	w1, #0x0                   	// #0
   80e4c:	52800002 	mov	w2, #0x0                   	// #0
   80e50:	14000018 	b	80eb0 <cat+0x100>
   80e54:	39400003 	ldrb	w3, [x0]
   80e58:	12001c63 	and	w3, w3, #0xff
   80e5c:	7101187f 	cmp	w3, #0x46
   80e60:	54000328 	b.hi	80ec4 <cat+0x114>  // b.pmore
   80e64:	39400003 	ldrb	w3, [x0]
   80e68:	531c6c21 	lsl	w1, w1, #4
   80e6c:	9100a004 	add	x4, x0, #0x28
   80e70:	0b230042 	add	w2, w2, w3, uxtb
   80e74:	3940a003 	ldrb	w3, [x0, #40]
   80e78:	5100dc42 	sub	w2, w2, #0x37
   80e7c:	12001c63 	and	w3, w3, #0xff
   80e80:	7101007f 	cmp	w3, #0x40
   80e84:	54000329 	b.ls	80ee8 <cat+0x138>  // b.plast
   80e88:	3940a003 	ldrb	w3, [x0, #40]
   80e8c:	12001c63 	and	w3, w3, #0xff
   80e90:	7101187f 	cmp	w3, #0x46
   80e94:	540002a8 	b.hi	80ee8 <cat+0x138>  // b.pmore
   80e98:	39400083 	ldrb	w3, [x4]
   80e9c:	91000400 	add	x0, x0, #0x1
   80ea0:	0b230021 	add	w1, w1, w3, uxtb
   80ea4:	5100dc21 	sub	w1, w1, #0x37
   80ea8:	eb05001f 	cmp	x0, x5
   80eac:	540002a0 	b.eq	80f00 <cat+0x150>  // b.none
   80eb0:	39400003 	ldrb	w3, [x0]
   80eb4:	531c6c42 	lsl	w2, w2, #4
   80eb8:	12001c63 	and	w3, w3, #0xff
   80ebc:	7101007f 	cmp	w3, #0x40
   80ec0:	54fffca8 	b.hi	80e54 <cat+0xa4>  // b.pmore
   80ec4:	39400003 	ldrb	w3, [x0]
   80ec8:	531c6c21 	lsl	w1, w1, #4
   80ecc:	9100a004 	add	x4, x0, #0x28
   80ed0:	0b230042 	add	w2, w2, w3, uxtb
   80ed4:	3940a003 	ldrb	w3, [x0, #40]
   80ed8:	5100c042 	sub	w2, w2, #0x30
   80edc:	12001c63 	and	w3, w3, #0xff
   80ee0:	7101007f 	cmp	w3, #0x40
   80ee4:	54fffd28 	b.hi	80e88 <cat+0xd8>  // b.pmore
   80ee8:	39400083 	ldrb	w3, [x4]
   80eec:	91000400 	add	x0, x0, #0x1
   80ef0:	0b230021 	add	w1, w1, w3, uxtb
   80ef4:	5100c021 	sub	w1, w1, #0x30
   80ef8:	eb05001f 	cmp	x0, x5
   80efc:	54fffda1 	b.ne	80eb0 <cat+0x100>  // b.any
   80f00:	1101b821 	add	w1, w1, #0x6e
   80f04:	72000443 	ands	w3, w2, #0x3
   80f08:	540000c0 	b.eq	80f20 <cat+0x170>  // b.none
   80f0c:	6b0203e0 	negs	w0, w2
   80f10:	12000400 	and	w0, w0, #0x3
   80f14:	5a804460 	csneg	w0, w3, w0, mi  // mi = first
   80f18:	4b000120 	sub	w0, w9, w0
   80f1c:	0b000042 	add	w2, w2, w0
   80f20:	72000423 	ands	w3, w1, #0x3
   80f24:	540000c0 	b.eq	80f3c <cat+0x18c>  // b.none
   80f28:	6b0103e0 	negs	w0, w1
   80f2c:	12000400 	and	w0, w0, #0x3
   80f30:	5a804460 	csneg	w0, w3, w0, mi  // mi = first
   80f34:	4b000120 	sub	w0, w9, w0
   80f38:	0b000021 	add	w1, w1, w0
   80f3c:	3941b8e3 	ldrb	w3, [x7, #110]
   80f40:	9101b8e6 	add	x6, x7, #0x6e
   80f44:	340002e3 	cbz	w3, 80fa0 <cat+0x1f0>
   80f48:	2a0303e4 	mov	w4, w3
   80f4c:	9101bcea 	add	x10, x7, #0x6f
   80f50:	d2800000 	mov	x0, #0x0                   	// #0
   80f54:	52800a85 	mov	w5, #0x54                  	// #84
   80f58:	14000005 	b	80f6c <cat+0x1bc>
   80f5c:	38606944 	ldrb	w4, [x10, x0]
   80f60:	91000400 	add	x0, x0, #0x1
   80f64:	38606905 	ldrb	w5, [x8, x0]
   80f68:	34000624 	cbz	w4, 8102c <cat+0x27c>
   80f6c:	6b0400bf 	cmp	w5, w4
   80f70:	54ffff60 	b.eq	80f5c <cat+0x1ac>  // b.none
   80f74:	aa1303e0 	mov	x0, x19
   80f78:	14000003 	b	80f84 <cat+0x1d4>
   80f7c:	38401cc3 	ldrb	w3, [x6, #1]!
   80f80:	34000143 	cbz	w3, 80fa8 <cat+0x1f8>
   80f84:	39400004 	ldrb	w4, [x0]
   80f88:	91000400 	add	x0, x0, #0x1
   80f8c:	6b03009f 	cmp	w4, w3
   80f90:	54ffff60 	b.eq	80f7c <cat+0x1cc>  // b.none
   80f94:	0b010041 	add	w1, w2, w1
   80f98:	8b21c0e7 	add	x7, x7, w1, sxtw
   80f9c:	17ffffa9 	b	80e40 <cat+0x90>
   80fa0:	aa1303e0 	mov	x0, x19
   80fa4:	d503201f 	nop
   80fa8:	39400000 	ldrb	w0, [x0]
   80fac:	35ffff40 	cbnz	w0, 80f94 <cat+0x1e4>
   80fb0:	7100005f 	cmp	w2, #0x0
   80fb4:	5400036d 	b.le	81020 <cat+0x270>
   80fb8:	93407c21 	sxtw	x1, w1
   80fbc:	51000453 	sub	w19, w2, #0x1
   80fc0:	8b010273 	add	x19, x19, x1
   80fc4:	910004e0 	add	x0, x7, #0x1
   80fc8:	8b0100f4 	add	x20, x7, x1
   80fcc:	8b000273 	add	x19, x19, x0
   80fd0:	39400280 	ldrb	w0, [x20]
   80fd4:	12001c00 	and	w0, w0, #0xff
   80fd8:	97fffd82 	bl	805e0 <uart_send>
   80fdc:	39400284 	ldrb	w4, [x20]
   80fe0:	92401c84 	and	x4, x4, #0xff
   80fe4:	39400081 	ldrb	w1, [x4]
   80fe8:	340003a1 	cbz	w1, 8105c <cat+0x2ac>
   80fec:	d1002484 	sub	x4, x4, #0x9
   80ff0:	d2800140 	mov	x0, #0xa                   	// #10
   80ff4:	14000003 	b	81000 <cat+0x250>
   80ff8:	39400061 	ldrb	w1, [x3]
   80ffc:	34000321 	cbz	w1, 81060 <cat+0x2b0>
   81000:	39400002 	ldrb	w2, [x0]
   81004:	8b040003 	add	x3, x0, x4
   81008:	91000400 	add	x0, x0, #0x1
   8100c:	6b01005f 	cmp	w2, w1
   81010:	54ffff40 	b.eq	80ff8 <cat+0x248>  // b.none
   81014:	91000694 	add	x20, x20, #0x1
   81018:	eb14027f 	cmp	x19, x20
   8101c:	54fffda1 	b.ne	80fd0 <cat+0x220>  // b.any
   81020:	a94153f3 	ldp	x19, x20, [sp, #16]
   81024:	a8c47bfd 	ldp	x29, x30, [sp], #64
   81028:	d65f03c0 	ret
   8102c:	35fffa45 	cbnz	w5, 80f74 <cat+0x1c4>
   81030:	90000000 	adrp	x0, 81000 <cat+0x250>
   81034:	910a6000 	add	x0, x0, #0x298
   81038:	97fffd82 	bl	80640 <uart_puts>
   8103c:	aa1303e0 	mov	x0, x19
   81040:	97fffd80 	bl	80640 <uart_puts>
   81044:	90000000 	adrp	x0, 81000 <cat+0x250>
   81048:	910c0000 	add	x0, x0, #0x300
   8104c:	97fffd7d 	bl	80640 <uart_puts>
   81050:	a94153f3 	ldp	x19, x20, [sp, #16]
   81054:	a8c47bfd 	ldp	x29, x30, [sp], #64
   81058:	d65f03c0 	ret
   8105c:	d2800140 	mov	x0, #0xa                   	// #10
   81060:	39400000 	ldrb	w0, [x0]
   81064:	35fffd80 	cbnz	w0, 81014 <cat+0x264>
   81068:	528001a0 	mov	w0, #0xd                   	// #13
   8106c:	91000694 	add	x20, x20, #0x1
   81070:	97fffd5c 	bl	805e0 <uart_send>
   81074:	eb14027f 	cmp	x19, x20
   81078:	54fffac1 	b.ne	80fd0 <cat+0x220>  // b.any
   8107c:	17ffffe9 	b	81020 <cat+0x270>
   81080:	9100a3f3 	add	x19, sp, #0x28
   81084:	a902ffff 	stp	xzr, xzr, [sp, #40]
   81088:	b9003bff 	str	wzr, [sp, #56]
   8108c:	17ffff68 	b	80e2c <cat+0x7c>

0000000000081090 <shell>:
   81090:	a9be7bfd 	stp	x29, x30, [sp, #-32]!
   81094:	910003fd 	mov	x29, sp
   81098:	f9000bf3 	str	x19, [sp, #16]
   8109c:	aa0003f3 	mov	x19, x0
   810a0:	97fffd59 	bl	80604 <uart_getc>
   810a4:	12001c02 	and	w2, w0, #0xff
   810a8:	2a0003e1 	mov	w1, w0
   810ac:	2a0203e0 	mov	w0, w2
   810b0:	7100285f 	cmp	w2, #0xa
   810b4:	54000120 	b.eq	810d8 <shell+0x48>  // b.none
   810b8:	38001662 	strb	w2, [x19], #1
   810bc:	97fffd49 	bl	805e0 <uart_send>
   810c0:	97fffd51 	bl	80604 <uart_getc>
   810c4:	12001c02 	and	w2, w0, #0xff
   810c8:	2a0003e1 	mov	w1, w0
   810cc:	2a0203e0 	mov	w0, w2
   810d0:	7100285f 	cmp	w2, #0xa
   810d4:	54ffff21 	b.ne	810b8 <shell+0x28>  // b.any
   810d8:	3900027f 	strb	wzr, [x19]
   810dc:	12001c20 	and	w0, w1, #0xff
   810e0:	97fffd40 	bl	805e0 <uart_send>
   810e4:	f9400bf3 	ldr	x19, [sp, #16]
   810e8:	90000000 	adrp	x0, 81000 <cat+0x250>
   810ec:	a8c27bfd 	ldp	x29, x30, [sp], #32
   810f0:	910c6000 	add	x0, x0, #0x318
   810f4:	17fffd53 	b	80640 <uart_puts>
   810f8:	d503201f 	nop
   810fc:	d503201f 	nop

0000000000081100 <print_welcome>:
   81100:	90000000 	adrp	x0, 81000 <cat+0x250>
   81104:	910c8000 	add	x0, x0, #0x320
   81108:	17fffd4e 	b	80640 <uart_puts>

Disassembly of section .rodata:

0000000000081110 <.rodata>:
   81110:	00002023 	udf	#8227
   81114:	00000000 	udf	#0
   81118:	6c6c6568 	ldnp	d8, d25, [x11, #-320]
   8111c:	0000006f 	udf	#111
   81120:	6c6c6548 	ldnp	d8, d25, [x10, #-320]
   81124:	6f57206f 	umlal2	v15.4s, v3.8h, v7.h[1]
   81128:	21646c72 	.inst	0x21646c72 ; undefined
   8112c:	0000000a 	udf	#10
   81130:	706c6568 	adr	x8, 159ddf <__bss_end+0xd88bf>
   81134:	00000000 	udf	#0
   81138:	6c6c6568 	ldnp	d8, d25, [x11, #-320]
   8113c:	70203a6f 	adr	x15, c188b <__bss_end+0x4036b>
   81140:	746e6972 	.inst	0x746e6972 ; undefined
   81144:	6c654820 	ldnp	d0, d18, [x1, #-432]
   81148:	57206f6c 	.inst	0x57206f6c ; undefined
   8114c:	646c726f 	.inst	0x646c726f ; undefined
   81150:	00000a21 	udf	#2593
   81154:	00000000 	udf	#0
   81158:	706c6568 	adr	x8, 159e07 <__bss_end+0xd88e7>
   8115c:	7270203a 	.inst	0x7270203a ; undefined
   81160:	20746e69 	.inst	0x20746e69 ; undefined
   81164:	206c6c61 	.inst	0x206c6c61 ; undefined
   81168:	69617661 	ldpsw	x1, x29, [x19, #-248]
   8116c:	6c62616c 	ldnp	d12, d24, [x11, #-480]
   81170:	6f632065 	umlal2	v5.4s, v3.8h, v3.h[2]
   81174:	6e616d6d 	umin	v13.8h, v11.8h, v1.8h
   81178:	000a7364 	.inst	0x000a7364 ; undefined
   8117c:	00000000 	udf	#0
   81180:	656d6974 	fnmls	z20.h, p2/m, z11.h, z13.h
   81184:	6d617473 	ldp	d19, d29, [x3, #-496]
   81188:	70203a70 	adr	x16, c18d7 <__bss_end+0x403b7>
   8118c:	746e6972 	.inst	0x746e6972 ; undefined
   81190:	65687420 	fnmls	z0.h, p5/m, z1.h, z8.h
   81194:	6d697420 	ldp	d0, d29, [x1, #-368]
   81198:	74732065 	.inst	0x74732065 ; undefined
   8119c:	2e706d61 	umin	v1.4h, v11.4h, v16.4h
   811a0:	0000000a 	udf	#10
   811a4:	00000000 	udf	#0
   811a8:	6f666e69 	.inst	0x6f666e69 ; undefined
   811ac:	6567203a 	fmls	z26.h, p0/m, z1.h, z7.h
   811b0:	68742074 	.inst	0x68742074 ; undefined
   811b4:	61682065 	.inst	0x61682065 ; undefined
   811b8:	61776472 	.inst	0x61776472 ; undefined
   811bc:	73276572 	.inst	0x73276572 ; undefined
   811c0:	666e6920 	.inst	0x666e6920 ; undefined
   811c4:	616d726f 	.inst	0x616d726f ; undefined
   811c8:	6e6f6974 	.inst	0x6e6f6974 ; undefined
   811cc:	0000000a 	udf	#10
   811d0:	6f626572 	sqshlu	v18.2d, v11.2d, #34
   811d4:	203a746f 	.inst	0x203a746f ; undefined
   811d8:	6f626572 	sqshlu	v18.2d, v11.2d, #34
   811dc:	7320746f 	.inst	0x7320746f ; undefined
   811e0:	65747379 	fnmls	z25.h, p4/m, z27.h, z20.h
   811e4:	00000a6d 	udf	#2669
   811e8:	656d6974 	fnmls	z20.h, p2/m, z11.h, z13.h
   811ec:	6d617473 	ldp	d19, d29, [x3, #-496]
   811f0:	00000070 	udf	#112
   811f4:	00000000 	udf	#0
   811f8:	0000005b 	udf	#91
   811fc:	00000000 	udf	#0
   81200:	00000a5d 	udf	#2653
   81204:	00000000 	udf	#0
   81208:	6f666e69 	.inst	0x6f666e69 ; undefined
   8120c:	00000000 	udf	#0
   81210:	6220794d 	.inst	0x6220794d ; undefined
   81214:	6472616f 	.inst	0x6472616f ; undefined
   81218:	76657220 	.inst	0x76657220 ; undefined
   8121c:	6f697369 	fcmla	v9.8h, v27.8h, v9.h[1], #270
   81220:	7369206e 	.inst	0x7369206e ; undefined
   81224:	0000203a 	udf	#8250
   81228:	4120794d 	.inst	0x4120794d ; undefined
   8122c:	6d204d52 	stp	d18, d19, [x10, #-512]
   81230:	726f6d65 	.inst	0x726f6d65 ; undefined
   81234:	61622079 	.inst	0x61622079 ; undefined
   81238:	61206573 	.inst	0x61206573 ; undefined
   8123c:	65726464 	fnmls	z4.h, p1/m, z3.h, z18.h
   81240:	69207373 	stgp	x19, x28, [x27, #-1024]
   81244:	00203a73 	.inst	0x00203a73 ; NYI
   81248:	4120794d 	.inst	0x4120794d ; undefined
   8124c:	6d204d52 	stp	d18, d19, [x10, #-512]
   81250:	726f6d65 	.inst	0x726f6d65 ; undefined
   81254:	69732079 	ldpsw	x25, x8, [x3, #-104]
   81258:	6920657a 	stgp	x26, x25, [x11, #-1024]
   8125c:	00203a73 	.inst	0x00203a73 ; NYI
   81260:	6f626572 	sqshlu	v18.2d, v11.2d, #34
   81264:	0000746f 	udf	#29807
   81268:	75706e69 	.inst	0x75706e69 ; undefined
   8126c:	20632074 	.inst	0x20632074 ; undefined
   81270:	63206f74 	.inst	0x63206f74 ; undefined
   81274:	65636e61 	fnmls	z1.h, p3/m, z19.h, z3.h
   81278:	6572206c 	fmls	z12.h, p0/m, z3.h, z18.h
   8127c:	0a746573 	bic	w19, w11, w20, lsr #25
	...
   81288:	00000063 	udf	#99
   8128c:	00000000 	udf	#0
   81290:	0000736c 	udf	#29548
   81294:	00000000 	udf	#0
   81298:	6f727245 	fcmla	v5.8h, v18.8h, v18.h[1], #270
   8129c:	00203a72 	.inst	0x00203a72 ; NYI
   812a0:	6d6f6320 	ldp	d0, d24, [x25, #-272]
   812a4:	646e616d 	.inst	0x646e616d ; undefined
   812a8:	746f6e20 	.inst	0x746f6e20 ; undefined
   812ac:	756f6620 	.inst	0x756f6620 ; undefined
   812b0:	2021646e 	.inst	0x2021646e ; undefined
   812b4:	20797254 	.inst	0x20797254 ; undefined
   812b8:	6c65683c 	ldnp	d28, d26, [x1, #-432]
   812bc:	74203e70 	.inst	0x74203e70 ; undefined
   812c0:	6863206f 	.inst	0x6863206f ; undefined
   812c4:	206b6365 	.inst	0x206b6365 ; undefined
   812c8:	206c6c61 	.inst	0x206c6c61 ; undefined
   812cc:	69617661 	ldpsw	x1, x29, [x19, #-248]
   812d0:	6c62616c 	ldnp	d12, d24, [x11, #-480]
   812d4:	6f632065 	umlal2	v5.4s, v3.8h, v3.h[2]
   812d8:	6e616d6d 	umin	v13.8h, v11.8h, v1.8h
   812dc:	000a7364 	.inst	0x000a7364 ; undefined
   812e0:	00007830 	udf	#30768
   812e4:	00000000 	udf	#0
   812e8:	49415254 	.inst	0x49415254 ; undefined
   812ec:	2152454c 	.inst	0x2152454c ; undefined
   812f0:	00002121 	udf	#8481
   812f4:	00000000 	udf	#0
   812f8:	0000002e 	udf	#46
   812fc:	00000000 	udf	#0
   81300:	6c696620 	ldnp	d0, d25, [x17, #-368]
   81304:	6f6e2065 	umlal2	v5.4s, v3.8h, v14.h[2]
   81308:	6f662074 	umlal2	v20.4s, v3.8h, v6.h[2]
   8130c:	21646e75 	.inst	0x21646e75 ; undefined
   81310:	0000000a 	udf	#10
   81314:	00000000 	udf	#0
   81318:	0000000d 	udf	#13
   8131c:	00000000 	udf	#0
   81320:	205f200a 	.inst	0x205f200a ; undefined
   81324:	205f2020 	.inst	0x205f2020 ; undefined
   81328:	20202020 	.inst	0x20202020 ; undefined
   8132c:	5f205f20 	.inst	0x5f205f20 ; undefined
   81330:	20202020 	.inst	0x20202020 ; undefined
   81334:	20202020 	.inst	0x20202020 ; undefined
   81338:	205f5f20 	.inst	0x205f5f20 ; undefined
   8133c:	20202020 	.inst	0x20202020 ; undefined
   81340:	5f202020 	.inst	0x5f202020 ; undefined
   81344:	2020205f 	.inst	0x2020205f ; undefined
   81348:	20202020 	.inst	0x20202020 ; undefined
   8134c:	205f2020 	.inst	0x205f2020 ; undefined
   81350:	20202020 	.inst	0x20202020 ; undefined
   81354:	7c0a205f 	stur	h31, [x2, #162]
   81358:	7c207c20 	.inst	0x7c207c20 ; undefined
   8135c:	5f207c20 	.inst	0x5f207c20 ; undefined
   81360:	207c5f5f 	.inst	0x207c5f5f ; undefined
   81364:	207c207c 	.inst	0x207c207c ; undefined
   81368:	205f5f5f 	.inst	0x205f5f5f ; undefined
   8136c:	5c202020 	ldr	d0, c1770 <__bss_end+0x40250>
   81370:	20205c20 	.inst	0x20205c20 ; undefined
   81374:	20202020 	.inst	0x20202020 ; undefined
   81378:	5f2f202f 	.inst	0x5f2f202f ; undefined
   8137c:	5f20205f 	.inst	0x5f20205f ; undefined
   81380:	7c5f5f20 	ldr	h0, [x25, #-11]!
   81384:	5f207c20 	.inst	0x5f207c20 ; undefined
   81388:	7c207c5f 	.inst	0x7c207c5f ; undefined
   8138c:	7c207c0a 	.inst	0x7c207c0a ; undefined
   81390:	7c207c5f 	.inst	0x7c207c5f ; undefined
   81394:	205f202f 	.inst	0x205f202f ; undefined
   81398:	207c205c 	.inst	0x207c205c ; undefined
   8139c:	5f202f7c 	.inst	0x5f202f7c ; undefined
   813a0:	20205c20 	.inst	0x20205c20 ; undefined
   813a4:	205c2020 	.inst	0x205c2020 ; undefined
   813a8:	5c2f205c 	ldr	d28, df7b0 <__bss_end+0x5e290>
   813ac:	2f202f20 	.inst	0x2f202f20 ; undefined
   813b0:	5c205f20 	ldr	d0, c1f94 <__bss_end+0x40a74>
   813b4:	5f27207c 	.inst	0x5f27207c ; undefined
   813b8:	7c207c5f 	.inst	0x7c207c5f ; undefined
   813bc:	605f202f 	.inst	0x605f202f ; undefined
   813c0:	7c0a7c20 	str	h0, [x1, #167]!
   813c4:	205f2020 	.inst	0x205f2020 ; undefined
   813c8:	20207c20 	.inst	0x20207c20 ; undefined
   813cc:	202f5f5f 	.inst	0x202f5f5f ; undefined
   813d0:	207c207c 	.inst	0x207c207c ; undefined
   813d4:	20295f28 	.inst	0x20295f28 ; undefined
   813d8:	2020207c 	.inst	0x2020207c ; undefined
   813dc:	56205c20 	.inst	0x56205c20 ; undefined
   813e0:	20562020 	.inst	0x20562020 ; undefined
   813e4:	5f28202f 	.inst	0x5f28202f ; undefined
   813e8:	207c2029 	.inst	0x207c2029 ; undefined
   813ec:	7c20207c 	.inst	0x7c20207c ; undefined
   813f0:	28207c20 	stnp	w0, wzr, [x1, #-256]
   813f4:	7c207c5f 	.inst	0x7c207c5f ; undefined
   813f8:	7c5f7c0a 	ldr	h10, [x0, #-9]!
   813fc:	7c5f7c20 	ldr	h0, [x1, #-9]!
   81400:	5f5f5f5c 	.inst	0x5f5f5f5c ; undefined
   81404:	5f7c5f7c 	.inst	0x5f7c5f7c ; undefined
   81408:	5f5f5c7c 	.inst	0x5f5f5c7c ; undefined
   8140c:	2920285f 	stp	wzr, w10, [x2, #-256]
   81410:	20202020 	.inst	0x20202020 ; undefined
   81414:	5c2f5f5c 	ldr	d28, dfffc <__bss_end+0x5eadc>
   81418:	5c202f5f 	ldr	d31, c1a00 <__bss_end+0x404e0>
   8141c:	2f5f5f5f 	.inst	0x2f5f5f5f ; undefined
   81420:	207c5f7c 	.inst	0x207c5f7c ; undefined
   81424:	7c5f7c20 	ldr	h0, [x1, #-9]!
   81428:	2c5f5f5c 	ldnp	s28, s23, [x26, #248]
   8142c:	200a7c5f 	.inst	0x200a7c5f ; undefined
   81430:	20202020 	.inst	0x20202020 ; undefined
   81434:	20202020 	.inst	0x20202020 ; undefined
   81438:	20202020 	.inst	0x20202020 ; undefined
   8143c:	20202020 	.inst	0x20202020 ; undefined
   81440:	7c202020 	.inst	0x7c202020 ; undefined
   81444:	2020202f 	.inst	0x2020202f ; undefined
   81448:	20202020 	.inst	0x20202020 ; undefined
   8144c:	20202020 	.inst	0x20202020 ; undefined
   81450:	20202020 	.inst	0x20202020 ; undefined
   81454:	20202020 	.inst	0x20202020 ; undefined
   81458:	20202020 	.inst	0x20202020 ; undefined
   8145c:	20202020 	.inst	0x20202020 ; undefined
   81460:	20202020 	.inst	0x20202020 ; undefined
   81464:	Address 0x0000000000081464 is out of bounds.


Disassembly of section .got:

0000000000081468 <_GLOBAL_OFFSET_TABLE_>:
	...
   81470:	00081490 	.inst	0x00081490 ; undefined
   81474:	00000000 	udf	#0

Disassembly of section .got.plt:

0000000000081478 <.got.plt>:
	...

Disassembly of section .bss:

0000000000081490 <mailbox>:
	...

Disassembly of section .debug_line:

0000000000000000 <.debug_line>:
       0:	00000053 	udf	#83
       4:	00080005 	.inst	0x00080005 ; undefined
       8:	0000002a 	udf	#42
       c:	fb010104 	.inst	0xfb010104 ; undefined
      10:	01000d0e 	.inst	0x01000d0e ; undefined
      14:	00010101 	.inst	0x00010101 ; undefined
      18:	00010000 	.inst	0x00010000 ; undefined
      1c:	01010100 	.inst	0x01010100 ; undefined
      20:	0000011f 	udf	#287
      24:	01020000 	.inst	0x01020000 ; undefined
      28:	020f021f 	.inst	0x020f021f ; undefined
      2c:	0000001f 	udf	#31
      30:	00001f00 	udf	#7936
      34:	09000000 	.inst	0x09000000 ; undefined
      38:	08000002 	stxrb	w0, w2, [x0]
      3c:	00000000 	udf	#0
      40:	011f0300 	.inst	0x011f0300 ; undefined
      44:	21222121 	.inst	0x21222121 ; undefined
      48:	21232124 	.inst	0x21232124 ; undefined
      4c:	21212122 	.inst	0x21212122 ; undefined
      50:	06022223 	.inst	0x06022223 ; undefined
      54:	55010100 	.inst	0x55010100 ; undefined
      58:	05000001 	orr	z1.s, z1.s, #0x1
      5c:	42000800 	.inst	0x42000800 ; undefined
      60:	04000000 	add	z0.b, p0/m, z0.b, z0.b
      64:	0efb0101 	.inst	0x0efb0101 ; undefined
      68:	0101000d 	.inst	0x0101000d ; undefined
      6c:	00000101 	udf	#257
      70:	00000100 	udf	#256
      74:	1f010101 	fmadd	s1, s8, s1, s0
      78:	00000002 	udf	#2
      7c:	00002e00 	udf	#11776
      80:	1f010200 	fmadd	s0, s16, s1, s0
      84:	27060f02 	.inst	0x27060f02 ; undefined
      88:	00000000 	udf	#0
      8c:	00000027 	udf	#39
      90:	00003500 	udf	#13568
      94:	003e0100 	.inst	0x003e0100 ; NYI
      98:	45010000 	.inst	0x45010000 ; undefined
      9c:	01000000 	.inst	0x01000000 ; undefined
      a0:	0000004c 	udf	#76
      a4:	000d0501 	.inst	0x000d0501 ; undefined
      a8:	00500209 	.inst	0x00500209 ; undefined
      ac:	00000008 	udf	#8
      b0:	05170000 	mov	z0.b, p7/z, #0
      b4:	0d051305 	.inst	0x0d051305 ; undefined
      b8:	03601106 	.inst	0x03601106 ; undefined
      bc:	09052078 	.inst	0x09052078 ; undefined
      c0:	1c0d0532 	ldr	s18, 1a164 <__bss_size+0x1a152>
      c4:	0b031205 	add	w5, w16, w3, lsl #4
      c8:	270b053c 	.inst	0x270b053c ; undefined
      cc:	6e030d05 	mov	v5.b[1], v8.b[1]
      d0:	75050520 	.inst	0x75050520 ; undefined
      d4:	052f2106 	mov	z6.b, z8.b[7]
      d8:	132f1309 	.inst	0x132f1309 ; undefined
      dc:	060d0530 	.inst	0x060d0530 ; undefined
      e0:	3c0b0501 	str	b1, [x8], #176
      e4:	21060d05 	.inst	0x21060d05 ; undefined
      e8:	7a030505 	.inst	0x7a030505 ; undefined
      ec:	1309052e 	sbfiz	w14, w9, #23, #2
      f0:	0530132f 	ext	z15.b, z15.b, z25.b, #132
      f4:	0501060d 	orr	z13.b, z13.b, #0x1
      f8:	0e053c0b 	umov	w11, v0.b[2]
      fc:	12052306 	and	w6, w24, #0xf800000f
     100:	10050106 	adr	x6, a120 <__bss_size+0xa10e>
     104:	060d053c 	.inst	0x060d053c ; undefined
     108:	2f2f2f21 	.inst	0x2f2f2f21 ; undefined
     10c:	4c07053d 	.inst	0x4c07053d ; undefined
     110:	01060b05 	.inst	0x01060b05 ; undefined
     114:	053c0905 	ext	z5.b, z5.b, z8.b, #226
     118:	13210606 	.inst	0x13210606 ; undefined
     11c:	0b053414 	add	w20, w0, w5, lsl #13
     120:	06050106 	.inst	0x06050106 ; undefined
     124:	06202e20 	.inst	0x06202e20 ; undefined
     128:	052f3d2f 	.inst	0x052f3d2f ; undefined
     12c:	0b054c07 	add	w7, w0, w5, lsl #19
     130:	09050106 	.inst	0x09050106 ; undefined
     134:	0606054a 	.inst	0x0606054a ; undefined
     138:	210d0521 	.inst	0x210d0521 ; undefined
     13c:	302c1406 	adr	x6, 583bd <__bss_size+0x583ab>
     140:	0521061e 	ext	z30.b, z30.b, z16.b, #9
     144:	0501061d 	orr	z29.b, z29.b, #0x1
     148:	21064a0d 	.inst	0x21064a0d ; undefined
     14c:	053d213d 	mov	z29.b, z9.b[14]
     150:	0501061d 	orr	z29.b, z29.b, #0x1
     154:	21062e0d 	.inst	0x21062e0d ; undefined
     158:	1d053d3d 	.inst	0x1d053d3d ; undefined
     15c:	0d050106 	.inst	0x0d050106 ; undefined
     160:	0521062e 	ext	z14.b, z14.b, z17.b, #9
     164:	12054c0e 	and	w14, w0, #0xf8007fff
     168:	10050106 	adr	x6, a188 <__bss_size+0xa176>
     16c:	060d054a 	.inst	0x060d054a ; undefined
     170:	2f3d3d21 	.inst	0x2f3d3d21 ; undefined
     174:	01061105 	.inst	0x01061105 ; undefined
     178:	054a0f05 	.inst	0x054a0f05 ; undefined
     17c:	05210611 	ext	z17.b, z17.b, z16.b, #9
     180:	0b053107 	add	w7, w8, w5, lsl #12
     184:	09050106 	.inst	0x09050106 ; undefined
     188:	0603054a 	.inst	0x0603054a ; undefined
     18c:	4c070521 	.inst	0x4c070521 ; undefined
     190:	01060a05 	.inst	0x01060a05 ; undefined
     194:	052e0905 	ext	z5.b, z5.b, z8.b, #114
     198:	05210603 	ext	z3.b, z3.b, z16.b, #9
     19c:	0e053f07 	umov	w7, v24.b[2]
     1a0:	0a052f3d 	and	w29, w25, w5, lsl #11
     1a4:	053c4403 	.inst	0x053c4403 ; undefined
     1a8:	0201060e 	.inst	0x0201060e ; undefined
     1ac:	01010001 	.inst	0x01010001 ; undefined
     1b0:	0000021d 	udf	#541
     1b4:	00080005 	.inst	0x00080005 ; undefined
     1b8:	00000033 	udf	#51
     1bc:	fb010104 	.inst	0xfb010104 ; undefined
     1c0:	01000d0e 	.inst	0x01000d0e ; undefined
     1c4:	00010101 	.inst	0x00010101 ; undefined
     1c8:	00010000 	.inst	0x00010000 ; undefined
     1cc:	01010100 	.inst	0x01010100 ; undefined
     1d0:	0000021f 	udf	#543
     1d4:	002e0000 	.inst	0x002e0000 ; NYI
     1d8:	01020000 	.inst	0x01020000 ; undefined
     1dc:	030f021f 	.inst	0x030f021f ; undefined
     1e0:	0000005b 	udf	#91
     1e4:	00005b01 	udf	#23297
     1e8:	003e0100 	.inst	0x003e0100 ; NYI
     1ec:	05010000 	orr	z0.s, z0.s, #0x1
     1f0:	02090001 	.inst	0x02090001 ; undefined
     1f4:	000802e0 	.inst	0x000802e0 ; undefined
     1f8:	00000000 	udf	#0
     1fc:	13050517 	sbfiz	w23, w8, #27, #2
     200:	01061805 	.inst	0x01061805 ; undefined
     204:	05302305 	mov	z5.q, q24
     208:	23051e12 	.inst	0x23051e12 ; undefined
     20c:	00050522 	.inst	0x00050522 ; undefined
     210:	06010402 	.inst	0x06010402 ; undefined
     214:	0008052e 	.inst	0x0008052e ; undefined
     218:	01010402 	.inst	0x01010402 ; undefined
     21c:	02002305 	.inst	0x02002305 ; undefined
     220:	05200104 	ext	z4.b, z4.b, z8.b, #0
     224:	11053005 	add	w5, w0, #0x14c
     228:	27050106 	.inst	0x27050106 ; undefined
     22c:	1c110524 	ldr	s4, 222d0 <__bss_size+0x222be>
     230:	1e270526 	fccmp	s9, s7, #0x6, eq  // eq = none
     234:	03221105 	.inst	0x03221105 ; undefined
     238:	0505207a 	.inst	0x0505207a ; undefined
     23c:	01040200 	.inst	0x01040200 ; undefined
     240:	09052206 	.inst	0x09052206 ; undefined
     244:	01040200 	.inst	0x01040200 ; undefined
     248:	000c0514 	.inst	0x000c0514 ; undefined
     24c:	01010402 	.inst	0x01010402 ; undefined
     250:	02002705 	.inst	0x02002705 ; undefined
     254:	05200104 	ext	z4.b, z4.b, z8.b, #0
     258:	04020009 	.inst	0x04020009 ; undefined
     25c:	27051401 	.inst	0x27051401 ; undefined
     260:	01040200 	.inst	0x01040200 ; undefined
     264:	11051006 	add	w6, w0, #0x144
     268:	200b0530 	.inst	0x200b0530 ; undefined
     26c:	30060d05 	adr	x5, c40d <__bss_size+0xc3fb>
     270:	01061b05 	.inst	0x01061b05 ; undefined
     274:	05201e05 	ext	z5.b, z5.b, z16.b, #7
     278:	1e05201b 	.inst	0x1e05201b ; undefined
     27c:	23010520 	.inst	0x23010520 ; undefined
     280:	30061a05 	adr	x5, c5c1 <__bss_size+0xc5af>
     284:	05130505 	mov	z5.b, p3/z, #40
     288:	3f010610 	.inst	0x3f010610 ; undefined
     28c:	0605051d 	.inst	0x0605051d ; undefined
     290:	06100521 	.inst	0x06100521 ; undefined
     294:	05051e14 	.inst	0x05051e14 ; undefined
     298:	10052206 	adr	x6, a6d8 <__bss_size+0xa6c6>
     29c:	051f1306 	mov	z6.b, p15/z, #-104
     2a0:	05210605 	ext	z5.b, z5.b, z16.b, #9
     2a4:	6a030612 	ands	w18, w16, w3, lsl #1
     2a8:	03100501 	.inst	0x03100501 ; undefined
     2ac:	05052016 	.inst	0x05052016 ; undefined
     2b0:	23052106 	.inst	0x23052106 ; undefined
     2b4:	016b0306 	.inst	0x016b0306 ; undefined
     2b8:	15031005 	b	40c42cc <__bss_end+0x4042dac>
     2bc:	06050520 	.inst	0x06050520 ; undefined
     2c0:	06230521 	.inst	0x06230521 ; undefined
     2c4:	05016a03 	orr	z3.s, z3.s, #0xfff8000f
     2c8:	20160310 	.inst	0x20160310 ; undefined
     2cc:	22060505 	.inst	0x22060505 ; undefined
     2d0:	01061005 	.inst	0x01061005 ; undefined
     2d4:	21060505 	.inst	0x21060505 ; undefined
     2d8:	14016303 	b	58ee4 <__bss_size+0x58ed2>
     2dc:	01080514 	.inst	0x01080514 ; undefined
     2e0:	05202305 	.inst	0x05202305 ; undefined
     2e4:	11053005 	add	w5, w0, #0x14c
     2e8:	27050106 	.inst	0x27050106 ; undefined
     2ec:	1c110524 	ldr	s4, 22390 <__bss_size+0x2237e>
     2f0:	1e270526 	fccmp	s9, s7, #0x6, eq  // eq = none
     2f4:	03221105 	.inst	0x03221105 ; undefined
     2f8:	0505207a 	.inst	0x0505207a ; undefined
     2fc:	09052206 	.inst	0x09052206 ; undefined
     300:	010c0514 	.inst	0x010c0514 ; undefined
     304:	05202705 	.inst	0x05202705 ; undefined
     308:	27051409 	.inst	0x27051409 ; undefined
     30c:	11051006 	add	w6, w0, #0x144
     310:	200b0530 	.inst	0x200b0530 ; undefined
     314:	30060d05 	adr	x5, c4b5 <__bss_size+0xc4a3>
     318:	01061b05 	.inst	0x01061b05 ; undefined
     31c:	0301052e 	.inst	0x0301052e ; undefined
     320:	13050110 	sbfiz	w16, w8, #27, #1
     324:	05053006 	.inst	0x05053006 ; undefined
     328:	06100513 	.inst	0x06100513 ; undefined
     32c:	051d3f01 	.inst	0x051d3f01 ; undefined
     330:	05210605 	ext	z5.b, z5.b, z16.b, #9
     334:	1e140610 	.inst	0x1e140610 ; undefined
     338:	22060505 	.inst	0x22060505 ; undefined
     33c:	13061005 	sbfiz	w5, w0, #26, #5
     340:	0605051f 	.inst	0x0605051f ; undefined
     344:	06120521 	.inst	0x06120521 ; undefined
     348:	05015d03 	orr	z3.h, z3.h, #0x3fe0
     34c:	20230310 	.inst	0x20230310 ; undefined
     350:	21060505 	.inst	0x21060505 ; undefined
     354:	03062305 	.inst	0x03062305 ; undefined
     358:	1005015e 	adr	x30, a380 <__bss_size+0xa36e>
     35c:	05202203 	.inst	0x05202203 ; undefined
     360:	05210605 	ext	z5.b, z5.b, z16.b, #9
     364:	5d030623 	.inst	0x5d030623 ; undefined
     368:	03100501 	.inst	0x03100501 ; undefined
     36c:	05052023 	.inst	0x05052023 ; undefined
     370:	10052106 	adr	x6, a790 <__bss_size+0xa77e>
     374:	05050106 	.inst	0x05050106 ; undefined
     378:	10052206 	adr	x6, a7b8 <__bss_size+0xa7a6>
     37c:	05050106 	.inst	0x05050106 ; undefined
     380:	55032106 	.inst	0x55032106 ; undefined
     384:	05221401 	ext	z1.b, z1.b, z0.b, #21
     388:	23050108 	.inst	0x23050108 ; undefined
     38c:	30050520 	adr	x0, a431 <__bss_size+0xa41f>
     390:	01061105 	.inst	0x01061105 ; undefined
     394:	05242705 	.inst	0x05242705 ; undefined
     398:	05261c11 	ext	z17.b, z17.b, z0.b, #55
     39c:	11051e27 	add	w7, w17, #0x147
     3a0:	207a0322 	.inst	0x207a0322 ; undefined
     3a4:	22060505 	.inst	0x22060505 ; undefined
     3a8:	05140905 	mov	z5.b, p4/z, #72
     3ac:	2705010c 	.inst	0x2705010c ; undefined
     3b0:	14090520 	b	241830 <__bss_end+0x1c0310>
     3b4:	10062705 	adr	x5, c894 <__bss_size+0xc882>
     3b8:	05301105 	ext	z5.b, z5.b, z8.b, #132
     3bc:	0d05200b 	.inst	0x0d05200b ; undefined
     3c0:	1b053006 	madd	w6, w0, w5, w12
     3c4:	052e0106 	ext	z6.b, z6.b, z8.b, #112
     3c8:	011e0301 	.inst	0x011e0301 ; undefined
     3cc:	01000102 	.inst	0x01000102 ; undefined
     3d0:	0000b101 	udf	#45313
     3d4:	08000500 	stxrb	w0, w0, [x8]
     3d8:	00002e00 	udf	#11776
     3dc:	01010400 	.inst	0x01010400 ; undefined
     3e0:	000d0efb 	.inst	0x000d0efb ; undefined
     3e4:	01010101 	.inst	0x01010101 ; undefined
     3e8:	01000000 	.inst	0x01000000 ; undefined
     3ec:	01010000 	.inst	0x01010000 ; undefined
     3f0:	00021f01 	.inst	0x00021f01 ; undefined
     3f4:	2e000000 	ext	v0.8b, v0.8b, v0.8b, #0
     3f8:	02000000 	.inst	0x02000000 ; undefined
     3fc:	0f021f01 	.inst	0x0f021f01 ; undefined
     400:	00006902 	udf	#26882
     404:	00690100 	.inst	0x00690100 ; undefined
     408:	05010000 	orr	z0.s, z0.s, #0x1
     40c:	02090025 	.inst	0x02090025 ; undefined
     410:	00080480 	.inst	0x00080480 ; undefined
     414:	00000000 	udf	#0
     418:	13050516 	sbfiz	w22, w8, #27, #2
     41c:	01060605 	.inst	0x01060605 ; undefined
     420:	05201905 	ext	z5.b, z5.b, z8.b, #6
     424:	15052101 	b	4148828 <__bss_end+0x40c7308>
     428:	03053006 	.inst	0x03053006 ; undefined
     42c:	0d060513 	.inst	0x0d060513 ; undefined
     430:	05130505 	mov	z5.b, p3/z, #40
     434:	05010619 	orr	z25.b, z25.b, #0x1
     438:	19055d03 	.inst	0x19055d03 ; undefined
     43c:	03052e1b 	.inst	0x03052e1b ; undefined
     440:	06051706 	.inst	0x06051706 ; undefined
     444:	05017a03 	orr	z3.s, z3.s, #0xfffe0003
     448:	03051305 	.inst	0x03051305 ; undefined
     44c:	19051706 	cpyfpwt	[x6]!, [x5]!, x24!
     450:	0105201b 	.inst	0x0105201b ; undefined
     454:	06150518 	.inst	0x06150518 ; undefined
     458:	13030530 	sbfiz	w16, w9, #29, #2
     45c:	76030605 	.inst	0x76030605 ; undefined
     460:	13050501 	sbfiz	w1, w8, #27, #2
     464:	01061905 	.inst	0x01061905 ; undefined
     468:	06030566 	.inst	0x06030566 ; undefined
     46c:	05010a03 	orr	z3.s, z3.s, #0x8000ffff
     470:	01750306 	.inst	0x01750306 ; undefined
     474:	05130505 	mov	z5.b, p3/z, #40
     478:	20010619 	.inst	0x20010619 ; undefined
     47c:	0b030105 	add	w5, w8, w3
     480:	00010201 	.inst	0x00010201 ; undefined
     484:	02e00101 	.inst	0x02e00101 ; undefined
     488:	00050000 	.inst	0x00050000 ; undefined
     48c:	002e0008 	.inst	0x002e0008 ; NYI
     490:	01040000 	.inst	0x01040000 ; undefined
     494:	0d0efb01 	.inst	0x0d0efb01 ; undefined
     498:	01010100 	.inst	0x01010100 ; undefined
     49c:	00000001 	udf	#1
     4a0:	01000001 	.inst	0x01000001 ; undefined
     4a4:	021f0101 	.inst	0x021f0101 ; undefined
     4a8:	00000000 	udf	#0
     4ac:	0000002e 	udf	#46
     4b0:	021f0102 	.inst	0x021f0102 ; undefined
     4b4:	0079020f 	.inst	0x0079020f ; undefined
     4b8:	79010000 	strh	w0, [x0, #128]
     4bc:	01000000 	.inst	0x01000000 ; undefined
     4c0:	09000105 	.inst	0x09000105 ; undefined
     4c4:	0804e002 	stlxrb	w4, w2, [x0]
     4c8:	00000000 	udf	#0
     4cc:	012d0300 	.inst	0x012d0300 ; undefined
     4d0:	14130505 	b	4c18e4 <__bss_end+0x4403c4>
     4d4:	01060c05 	.inst	0x01060c05 ; undefined
     4d8:	4b060505 	sub	w5, w8, w6, lsl #1
     4dc:	05010c05 	orr	z5.h, z5.h, #0x8000
     4e0:	19050112 	stlurb	w18, [x8, #80]
     4e4:	03040200 	.inst	0x03040200 ; undefined
     4e8:	00120501 	.inst	0x00120501 ; undefined
     4ec:	20030402 	.inst	0x20030402 ; undefined
     4f0:	03040200 	.inst	0x03040200 ; undefined
     4f4:	02000106 	.inst	0x02000106 ; undefined
     4f8:	05200304 	ext	z4.b, z4.b, z24.b, #0
     4fc:	05260605 	ext	z5.b, z5.b, z16.b, #49
     500:	4a010610 	eor	w16, w16, w1, lsl #1
     504:	21060505 	.inst	0x21060505 ; undefined
     508:	05010c05 	orr	z5.h, z5.h, #0x8000
     50c:	19050112 	stlurb	w18, [x8, #80]
     510:	03040200 	.inst	0x03040200 ; undefined
     514:	00120501 	.inst	0x00120501 ; undefined
     518:	20030402 	.inst	0x20030402 ; undefined
     51c:	03040200 	.inst	0x03040200 ; undefined
     520:	02000106 	.inst	0x02000106 ; undefined
     524:	05200304 	ext	z4.b, z4.b, z24.b, #0
     528:	05210605 	ext	z5.b, z5.b, z16.b, #9
     52c:	05010610 	orr	z16.b, z16.b, #0x1
     530:	10052311 	adr	x17, a990 <__bss_size+0xa97e>
     534:	2311051d 	.inst	0x2311051d ; undefined
     538:	05211205 	ext	z5.b, z5.b, z16.b, #12
     53c:	10052111 	adr	x17, a95c <__bss_size+0xa94a>
     540:	0605051b 	.inst	0x0605051b ; undefined
     544:	06120523 	.inst	0x06120523 ; undefined
     548:	21110513 	.inst	0x21110513 ; undefined
     54c:	21231d21 	.inst	0x21231d21 ; undefined
     550:	05051e1e 	.inst	0x05051e1e ; undefined
     554:	12052f06 	and	w6, w24, #0xf800007f
     558:	05050106 	.inst	0x05050106 ; undefined
     55c:	11052106 	add	w6, w8, #0x148
     560:	1d211406 	.inst	0x1d211406 ; undefined
     564:	21060505 	.inst	0x21060505 ; undefined
     568:	14061105 	b	18497c <__bss_end+0x10345c>
     56c:	05211205 	ext	z5.b, z5.b, z16.b, #12
     570:	05051d11 	.inst	0x05051d11 ; undefined
     574:	12052106 	and	w6, w8, #0xf800000f
     578:	11051406 	add	w6, w0, #0x145
     57c:	0605051e 	.inst	0x0605051e ; undefined
     580:	06110521 	.inst	0x06110521 ; undefined
     584:	06050501 	.inst	0x06050501 ; undefined
     588:	0612052f 	.inst	0x0612052f ; undefined
     58c:	26060501 	.inst	0x26060501 ; undefined
     590:	7a031205 	.inst	0x7a031205 ; undefined
     594:	06050520 	.inst	0x06050520 ; undefined
     598:	06060521 	.inst	0x06060521 ; undefined
     59c:	1b120517 	madd	w23, w8, w18, w1
     5a0:	25060505 	cmpge	p5.b, p1/z, z8.b, #6
     5a4:	19060805 	.inst	0x19060805 ; undefined
     5a8:	1e1b0605 	.inst	0x1e1b0605 ; undefined
     5ac:	21060505 	.inst	0x21060505 ; undefined
     5b0:	13060605 	sbfiz	w5, w16, #26, #2
     5b4:	0605051f 	.inst	0x0605051f ; undefined
     5b8:	06060521 	.inst	0x06060521 ; undefined
     5bc:	06050501 	.inst	0x06050501 ; undefined
     5c0:	060e0521 	.inst	0x060e0521 ; undefined
     5c4:	06020501 	.inst	0x06020501 ; undefined
     5c8:	01080524 	.inst	0x01080524 ; undefined
     5cc:	13052006 	sbfx	w6, w0, #5, #4
     5d0:	03052021 	.inst	0x03052021 ; undefined
     5d4:	13052006 	sbfx	w6, w0, #5, #4
     5d8:	08050106 	stxrb	w5, w6, [x8]
     5dc:	01051f06 	.inst	0x01051f06 ; undefined
     5e0:	20053106 	.inst	0x20053106 ; undefined
     5e4:	25054106 	and	p6.b, p0/z, p8.b, p5.b
     5e8:	05051906 	.inst	0x05051906 ; undefined
     5ec:	01040200 	.inst	0x01040200 ; undefined
     5f0:	08052e06 	stxrb	w5, w6, [x16]
     5f4:	01040200 	.inst	0x01040200 ; undefined
     5f8:	00230501 	.inst	0x00230501 ; NYI
     5fc:	20010402 	.inst	0x20010402 ; undefined
     600:	02002505 	.inst	0x02002505 ; undefined
     604:	01060104 	.inst	0x01060104 ; undefined
     608:	02002305 	.inst	0x02002305 ; undefined
     60c:	05200104 	ext	z4.b, z4.b, z8.b, #0
     610:	05250605 	ext	z5.b, z5.b, z16.b, #41
     614:	0501060f 	orr	z15.b, z15.b, #0x1
     618:	12053d01 	and	w1, w8, #0xf80007ff
     61c:	25052506 	cmplt	p6.b, p1/z, z8.b, #5
     620:	05051606 	.inst	0x05051606 ; undefined
     624:	01040200 	.inst	0x01040200 ; undefined
     628:	02003906 	.inst	0x02003906 ; undefined
     62c:	05150104 	mov	z4.b, p5/z, #8
     630:	04020008 	.inst	0x04020008 ; undefined
     634:	23050101 	.inst	0x23050101 ; undefined
     638:	01040200 	.inst	0x01040200 ; undefined
     63c:	00250520 	.inst	0x00250520 ; NYI
     640:	06010402 	.inst	0x06010402 ; undefined
     644:	00230501 	.inst	0x00230501 ; NYI
     648:	20010402 	.inst	0x20010402 ; undefined
     64c:	22060505 	.inst	0x22060505 ; undefined
     650:	01060e05 	.inst	0x01060e05 ; undefined
     654:	05221805 	ext	z5.b, z5.b, z0.b, #22
     658:	06051e0e 	.inst	0x06051e0e ; undefined
     65c:	0605052e 	.inst	0x0605052e ; undefined
     660:	06180522 	.inst	0x06180522 ; undefined
     664:	21010501 	.inst	0x21010501 ; undefined
     668:	06190520 	.inst	0x06190520 ; undefined
     66c:	13050533 	sbfiz	w19, w9, #27, #2
     670:	05010b05 	orr	z5.s, z5.s, #0x80ffffff
     674:	66030625 	.inst	0x66030625 ; undefined
     678:	250f052e 	cmpge	p14.b, p1/z, z9.b, #15
     67c:	051b2505 	.inst	0x051b2505 ; undefined
     680:	053c250f 	.inst	0x053c250f ; undefined
     684:	17030609 	b	fffffffffc0c1ea8 <__bss_end+0xfffffffffc040988>
     688:	060b0501 	.inst	0x060b0501 ; undefined
     68c:	06090501 	.inst	0x06090501 ; undefined
     690:	05010630 	orr	z16.b, z16.b, #0x3
     694:	5b030606 	.inst	0x5b030606 ; undefined
     698:	27050520 	.inst	0x27050520 ; undefined
     69c:	05010805 	orr	z5.s, z5.s, #0x80000000
     6a0:	25052023 	cmplt	p3.b, p0/z, z1.b, #5
     6a4:	23050106 	.inst	0x23050106 ; undefined
     6a8:	06050520 	.inst	0x06050520 ; undefined
     6ac:	060f0525 	.inst	0x060f0525 ; undefined
     6b0:	0b052001 	add	w1, w0, w5, lsl #8
     6b4:	01150306 	.inst	0x01150306 ; undefined
     6b8:	34060105 	cbz	w5, c6d8 <__bss_size+0xc6c6>
     6bc:	03060505 	.inst	0x03060505 ; undefined
     6c0:	08052060 	stxrb	w5, w0, [x3]
     6c4:	20230501 	.inst	0x20230501 ; undefined
     6c8:	01062505 	.inst	0x01062505 ; undefined
     6cc:	05202305 	.inst	0x05202305 ; undefined
     6d0:	05250605 	ext	z5.b, z5.b, z16.b, #41
     6d4:	0501060f 	orr	z15.b, z15.b, #0x1
     6d8:	1f052101 	fmadd	s1, s8, s5, s8
     6dc:	201f0306 	.inst	0x201f0306 ; undefined
     6e0:	13130505 	sbfiz	w5, w8, #13, #2
     6e4:	061f0513 	.inst	0x061f0513 ; undefined
     6e8:	2305050f 	.inst	0x2305050f ; undefined
     6ec:	051d1f05 	mov	z5.b, p13/z, #-8
     6f0:	1f053105 	fmadd	s5, s8, s5, s12
     6f4:	1505051d 	b	4141b68 <__bss_end+0x40c0648>
     6f8:	0f052106 	.inst	0x0f052106 ; undefined
     6fc:	06250501 	.inst	0x06250501 ; undefined
     700:	05015703 	orr	z3.b, z3.b, #0x44
     704:	0a05250f 	and	w15, w8, w5, lsl #9
     708:	05202403 	.inst	0x05202403 ; undefined
     70c:	25052414 	cmple	p4.b, p1/z, z0.b, #5
     710:	052e5303 	.inst	0x052e5303 ; undefined
     714:	052e250f 	.inst	0x052e250f ; undefined
     718:	26030609 	.inst	0x26030609 ; undefined
     71c:	060d0501 	.inst	0x060d0501 ; undefined
     720:	200a0501 	.inst	0x200a0501 ; undefined
     724:	22060905 	.inst	0x22060905 ; undefined
     728:	01061405 	.inst	0x01061405 ; undefined
     72c:	052e0a05 	ext	z5.b, z5.b, z16.b, #114
     730:	05210609 	ext	z9.b, z9.b, z16.b, #9
     734:	014b0306 	.inst	0x014b0306 ; undefined
     738:	05270505 	ext	z5.b, z5.b, z8.b, #57
     73c:	23050108 	.inst	0x23050108 ; undefined
     740:	06250520 	.inst	0x06250520 ; undefined
     744:	20230501 	.inst	0x20230501 ; undefined
     748:	25060505 	cmpge	p5.b, p1/z, z8.b, #6
     74c:	03061405 	.inst	0x03061405 ; undefined
     750:	0f050124 	.inst	0x0f050124 ; undefined
     754:	20205c03 	.inst	0x20205c03 ; undefined
     758:	03061405 	.inst	0x03061405 ; undefined
     75c:	0f050124 	.inst	0x0f050124 ; undefined
     760:	06010501 	.inst	0x06010501 ; undefined
     764:	00020235 	.inst	0x00020235 ; undefined
     768:	0a6f0101 	bic	w1, w8, w15, lsr #0
     76c:	00050000 	.inst	0x00050000 ; undefined
     770:	002e0008 	.inst	0x002e0008 ; NYI
     774:	01040000 	.inst	0x01040000 ; undefined
     778:	0d0efb01 	.inst	0x0d0efb01 ; undefined
     77c:	01010100 	.inst	0x01010100 ; undefined
     780:	00000001 	udf	#1
     784:	01000001 	.inst	0x01000001 ; undefined
     788:	021f0101 	.inst	0x021f0101 ; undefined
     78c:	00000000 	udf	#0
     790:	0000002e 	udf	#46
     794:	021f0102 	.inst	0x021f0102 ; undefined
     798:	0087020f 	.inst	0x0087020f ; undefined
     79c:	87010000 	.inst	0x87010000 ; undefined
     7a0:	01000000 	.inst	0x01000000 ; undefined
     7a4:	09000105 	.inst	0x09000105 ; undefined
     7a8:	08072002 	stxrb	w7, w2, [x0]
     7ac:	00000000 	udf	#0
     7b0:	05051500 	.inst	0x05051500 ; undefined
     7b4:	16051313 	b	fffffffff8145400 <__bss_end+0xfffffffff80c3ee0>
     7b8:	06010501 	.inst	0x06010501 ; undefined
     7bc:	21090510 	.inst	0x21090510 ; undefined
     7c0:	05211605 	ext	z5.b, z5.b, z16.b, #13
     7c4:	04020009 	.inst	0x04020009 ; undefined
     7c8:	05300602 	ext	z2.b, z2.b, z16.b, #129
     7cc:	04020010 	.inst	0x04020010 ; undefined
     7d0:	05010602 	orr	z2.b, z2.b, #0x1
     7d4:	04020023 	.inst	0x04020023 ; undefined
     7d8:	051e0602 	mov	z2.b, p14/z, #48
     7dc:	04020016 	.inst	0x04020016 ; undefined
     7e0:	02000102 	.inst	0x02000102 ; undefined
     7e4:	20060204 	.inst	0x20060204 ; undefined
     7e8:	05250105 	ext	z5.b, z5.b, z8.b, #40
     7ec:	0522061c 	ext	z28.b, z28.b, z16.b, #17
     7f0:	0f051309 	fmla	v9.4h, v24.4h, v5.h[0]
     7f4:	203c0601 	.inst	0x203c0601 ; undefined
     7f8:	21061105 	.inst	0x21061105 ; undefined
     7fc:	13051313 	sbfiz	w19, w24, #27, #5
     800:	12051006 	and	w6, w0, #0xf8000000
     804:	060f0522 	.inst	0x060f0522 ; undefined
     808:	0613051d 	.inst	0x0613051d ; undefined
     80c:	2e220513 	uhadd	v19.8b, v8.8b, v2.8b
     810:	05260105 	ext	z5.b, z5.b, z8.b, #48
     814:	051e0609 	mov	z9.b, p14/z, #48
     818:	0501060b 	orr	z11.b, z11.b, #0x1
     81c:	31063e01 	adds	w1, w16, #0x18f
     820:	13130505 	sbfiz	w5, w8, #13, #2
     824:	05140905 	mov	z5.b, p4/z, #72
     828:	0501060c 	orr	z12.b, z12.b, #0x1
     82c:	054c0609 	.inst	0x054c0609 ; undefined
     830:	0501060a 	orr	z10.b, z10.b, #0x1
     834:	051c060b 	mov	z11.b, p12/z, #48
     838:	09050105 	.inst	0x09050105 ; undefined
     83c:	060c0514 	.inst	0x060c0514 ; undefined
     840:	01052001 	.inst	0x01052001 ; undefined
     844:	03090534 	.inst	0x03090534 ; undefined
     848:	05052077 	.inst	0x05052077 ; undefined
     84c:	01052806 	.inst	0x01052806 ; undefined
     850:	3d051306 	str	b6, [x24, #324]
     854:	02053006 	.inst	0x02053006 ; undefined
     858:	06040513 	.inst	0x06040513 ; undefined
     85c:	06130501 	.inst	0x06130501 ; undefined
     860:	061a0530 	.inst	0x061a0530 ; undefined
     864:	20130501 	.inst	0x20130501 ; undefined
     868:	0603053c 	.inst	0x0603053c ; undefined
     86c:	0616052f 	.inst	0x0616052f ; undefined
     870:	20130501 	.inst	0x20130501 ; undefined
     874:	1f062105 	fmadd	s5, s8, s6, s8
     878:	06011305 	.inst	0x06011305 ; undefined
     87c:	06020520 	.inst	0x06020520 ; undefined
     880:	060c0531 	.inst	0x060c0531 ; undefined
     884:	01052001 	.inst	0x01052001 ; undefined
     888:	1c130513 	ldr	s19, 26928 <__bss_size+0x26916>
     88c:	23060205 	.inst	0x23060205 ; undefined
     890:	01060c05 	.inst	0x01060c05 ; undefined
     894:	06010520 	.inst	0x06010520 ; undefined
     898:	053c3003 	tbl	z3.b, {z0.b}, z28.b
     89c:	14131305 	b	4c54b0 <__bss_end+0x443f90>
     8a0:	03060e05 	.inst	0x03060e05 ; undefined
     8a4:	05017fbe 	.inst	0x05017fbe ; undefined
     8a8:	00c2030d 	.inst	0x00c2030d ; undefined
     8ac:	06140520 	.inst	0x06140520 ; undefined
     8b0:	03050520 	.inst	0x03050520 ; undefined
     8b4:	14017fb9 	b	60798 <__bss_size+0x60786>
     8b8:	14090513 	b	241d04 <__bss_end+0x1c07e4>
     8bc:	01060e05 	.inst	0x01060e05 ; undefined
     8c0:	20200c05 	.inst	0x20200c05 ; undefined
     8c4:	30060905 	adr	x5, c9e5 <__bss_size+0xc9d3>
     8c8:	01060a05 	.inst	0x01060a05 ; undefined
     8cc:	1c060b05 	ldr	s5, ca2c <__bss_size+0xca1a>
     8d0:	05010505 	orr	z5.h, z5.h, #0x1ff
     8d4:	0c051409 	.inst	0x0c051409 ; undefined
     8d8:	05200106 	ext	z6.b, z6.b, z8.b, #0
     8dc:	06330605 	.inst	0x06330605 ; undefined
     8e0:	03140501 	.inst	0x03140501 ; undefined
     8e4:	052e013d 	ext	z29.b, z29.b, z9.b, #112
     8e8:	40030609 	.inst	0x40030609 ; undefined
     8ec:	060a052e 	.inst	0x060a052e ; undefined
     8f0:	060b0501 	.inst	0x060b0501 ; undefined
     8f4:	0105051c 	.inst	0x0105051c ; undefined
     8f8:	05140905 	mov	z5.b, p4/z, #72
     8fc:	2001060c 	.inst	0x2001060c ; undefined
     900:	33060505 	bfi	w5, w8, #26, #2
     904:	1c050106 	ldr	s6, a924 <__bss_size+0xa912>
     908:	05013f03 	orr	z3.b, z3.b, #0x22
     90c:	0905200e 	.inst	0x0905200e ; undefined
     910:	05053d06 	.inst	0x05053d06 ; undefined
     914:	017fb603 	.inst	0x017fb603 ; undefined
     918:	14090515 	b	241d6c <__bss_end+0x1c084c>
     91c:	060a0514 	.inst	0x060a0514 ; undefined
     920:	060b0501 	.inst	0x060b0501 ; undefined
     924:	0105051c 	.inst	0x0105051c ; undefined
     928:	05140905 	mov	z5.b, p4/z, #72
     92c:	2001060c 	.inst	0x2001060c ; undefined
     930:	33060505 	bfi	w5, w8, #26, #2
     934:	15050106 	b	4140d4c <__bss_end+0x40bf82c>
     938:	0100c003 	.inst	0x0100c003 ; undefined
     93c:	20201e05 	.inst	0x20201e05 ; undefined
     940:	2f060905 	.inst	0x2f060905 ; undefined
     944:	0e062605 	.inst	0x0e062605 ; undefined
     948:	05240e05 	ext	z5.b, z5.b, z16.b, #35
     94c:	051c0626 	mov	z6.b, p12/z, #49
     950:	05050114 	.inst	0x05050114 ; undefined
     954:	017fb903 	.inst	0x017fb903 ; undefined
     958:	09051314 	.inst	0x09051314 ; undefined
     95c:	060c0514 	.inst	0x060c0514 ; undefined
     960:	01052001 	.inst	0x01052001 ; undefined
     964:	0100c803 	.inst	0x0100c803 ; undefined
     968:	3c4b0306 	ldur	b6, [x24, #176]
     96c:	13130505 	sbfiz	w5, w8, #13, #2
     970:	10060105 	adr	x5, c990 <__bss_size+0xc97e>
     974:	22060c05 	.inst	0x22060c05 ; undefined
     978:	10060105 	adr	x5, c998 <__bss_size+0xc986>
     97c:	05220c05 	ext	z5.b, z5.b, z0.b, #19
     980:	0c052f17 	.inst	0x0c052f17 ; undefined
     984:	2117051f 	.inst	0x2117051f ; undefined
     988:	2e060905 	ext	v5.8b, v8.8b, v6.8b, #1
     98c:	01061705 	.inst	0x01061705 ; undefined
     990:	05200e05 	ext	z5.b, z5.b, z16.b, #3
     994:	0b052017 	add	w23, w0, w5, lsl #8
     998:	1f1d054b 	fmadd	s11, s10, s29, s1
     99c:	05201205 	ext	z5.b, z5.b, z16.b, #4
     9a0:	05210609 	ext	z9.b, z9.b, z16.b, #9
     9a4:	2006100c 	.inst	0x2006100c ; undefined
     9a8:	0a030805 	and	w5, w0, w3, lsl #2
     9ac:	060e0520 	.inst	0x060e0520 ; undefined
     9b0:	0612051d 	.inst	0x0612051d ; undefined
     9b4:	0609053d 	.inst	0x0609053d ; undefined
     9b8:	06120520 	.inst	0x06120520 ; undefined
     9bc:	060e0501 	.inst	0x060e0501 ; undefined
     9c0:	0520061f 	ext	z31.b, z31.b, z16.b, #1
     9c4:	05053108 	.inst	0x05053108 ; undefined
     9c8:	0c052006 	.inst	0x0c052006 ; undefined
     9cc:	05050106 	.inst	0x05050106 ; undefined
     9d0:	09052106 	.inst	0x09052106 ; undefined
     9d4:	20740306 	.inst	0x20740306 ; undefined
     9d8:	03060105 	.inst	0x03060105 ; undefined
     9dc:	05052e11 	.inst	0x05052e11 ; undefined
     9e0:	06090514 	.inst	0x06090514 ; undefined
     9e4:	06050501 	.inst	0x06050501 ; undefined
     9e8:	06051523 	.inst	0x06051523 ; undefined
     9ec:	05016503 	orr	z3.h, z3.h, #0x1ff0
     9f0:	0105150c 	.inst	0x0105150c ; undefined
     9f4:	01100306 	.inst	0x01100306 ; undefined
     9f8:	70030c05 	adr	x5, 6b7b <__bss_size+0x6b69>
     9fc:	2117053c 	.inst	0x2117053c ; undefined
     a00:	051f0c05 	mov	z5.b, p15/z, #96
     a04:	09053d17 	.inst	0x09053d17 ; undefined
     a08:	17052e06 	b	fffffffffc14c220 <__bss_end+0xfffffffffc0cad00>
     a0c:	0e050106 	tbl	v6.8b, {v8.16b}, v5.8b
     a10:	20170520 	.inst	0x20170520 ; undefined
     a14:	054b0b05 	.inst	0x054b0b05 ; undefined
     a18:	12051f1d 	and	w29, w24, #0xf8000007
     a1c:	06090520 	.inst	0x06090520 ; undefined
     a20:	100c0521 	adr	x1, 18ac4 <__bss_size+0x18ab2>
     a24:	08052006 	stxrb	w5, w6, [x0]
     a28:	05200a03 	ext	z3.b, z3.b, z16.b, #2
     a2c:	051d060e 	mov	z14.b, p13/z, #48
     a30:	0c051505 	.inst	0x0c051505 ; undefined
     a34:	05050106 	.inst	0x05050106 ; undefined
     a38:	20062106 	.inst	0x20062106 ; undefined
     a3c:	015e0306 	.inst	0x015e0306 ; undefined
     a40:	05140905 	mov	z5.b, p4/z, #72
     a44:	0501060c 	orr	z12.b, z12.b, #0x1
     a48:	054c0609 	.inst	0x054c0609 ; undefined
     a4c:	05050e0b 	.inst	0x05050e0b ; undefined
     a50:	14090501 	b	241e54 <__bss_end+0x1c0934>
     a54:	2e060c05 	.inst	0x2e060c05 ; undefined
     a58:	06050520 	.inst	0x06050520 ; undefined
     a5c:	06010633 	.inst	0x06010633 ; undefined
     a60:	05012c03 	orr	z3.h, z3.h, #0x800
     a64:	05010608 	orr	z8.b, z8.b, #0x1
     a68:	3c790317 	.inst	0x3c790317 ; undefined
     a6c:	05281005 	ext	z5.b, z5.b, z0.b, #68
     a70:	2e78030b 	uaddl	v11.4s, v24.4h, v24.4h
     a74:	28060905 	stnp	w5, w2, [x8, #48]
     a78:	03050517 	.inst	0x03050517 ; undefined
     a7c:	14017fb0 	b	6093c <__bss_size+0x6092a>
     a80:	01160513 	.inst	0x01160513 ; undefined
     a84:	2d060905 	stp	s5, s2, [x8, #48]
     a88:	10053106 	adr	x6, b0a8 <__bss_size+0xb096>
     a8c:	16050106 	b	fffffffff8140ea4 <__bss_end+0xfffffffff80bf984>
     a90:	2210051e 	.inst	0x2210051e ; undefined
     a94:	1e062305 	.inst	0x1e062305 ; undefined
     a98:	05011605 	orr	z5.b, z5.b, #0x40
     a9c:	cd030617 	.inst	0xcd030617 ; undefined
     aa0:	0f052000 	.inst	0x0f052000 ; undefined
     aa4:	06050520 	.inst	0x06050520 ; undefined
     aa8:	207fb703 	.inst	0x207fb703 ; undefined
     aac:	09050106 	.inst	0x09050106 ; undefined
     ab0:	00cb0306 	.inst	0x00cb0306 ; undefined
     ab4:	06220501 	.inst	0x06220501 ; undefined
     ab8:	20090520 	.inst	0x20090520 ; undefined
     abc:	03060605 	.inst	0x03060605 ; undefined
     ac0:	0c052059 	.inst	0x0c052059 ; undefined
     ac4:	06170515 	.inst	0x06170515 ; undefined
     ac8:	1f0c052f 	fmadd	s15, s9, s12, s1
     acc:	05211705 	ext	z5.b, z5.b, z24.b, #13
     ad0:	05200609 	ext	z9.b, z9.b, z16.b, #1
     ad4:	05010617 	orr	z23.b, z23.b, #0x1
     ad8:	1705200e 	b	fffffffffc148b10 <__bss_end+0xfffffffffc0c75f0>
     adc:	4b0b0520 	sub	w0, w9, w11, lsl #1
     ae0:	051f1d05 	mov	z5.b, p15/z, #-24
     ae4:	09052012 	.inst	0x09052012 ; undefined
     ae8:	0c052106 	.inst	0x0c052106 ; undefined
     aec:	06080510 	.inst	0x06080510 ; undefined
     af0:	052e0a03 	ext	z3.b, z3.b, z16.b, #114
     af4:	051d060e 	mov	z14.b, p13/z, #48
     af8:	052f0612 	ext	z18.b, z18.b, z16.b, #121
     afc:	052e0609 	ext	z9.b, z9.b, z16.b, #113
     b00:	05010612 	orr	z18.b, z18.b, #0x1
     b04:	061f060e 	.inst	0x061f060e ; undefined
     b08:	31080520 	adds	w0, w9, #0x201
     b0c:	20060505 	.inst	0x20060505 ; undefined
     b10:	01060c05 	.inst	0x01060c05 ; undefined
     b14:	21060505 	.inst	0x21060505 ; undefined
     b18:	03060105 	.inst	0x03060105 ; undefined
     b1c:	0505201b 	.inst	0x0505201b ; undefined
     b20:	20206503 	.inst	0x20206503 ; undefined
     b24:	60030c05 	.inst	0x60030c05 ; undefined
     b28:	03080501 	.inst	0x03080501 ; undefined
     b2c:	11052031 	add	w17, w1, #0x148
     b30:	05204f03 	.inst	0x05204f03 ; undefined
     b34:	06250605 	.inst	0x06250605 ; undefined
     b38:	2c030601 	stnp	s1, s1, [x16, #24]
     b3c:	06080501 	.inst	0x06080501 ; undefined
     b40:	03010501 	.inst	0x03010501 ; undefined
     b44:	0905200a 	.inst	0x0905200a ; undefined
     b48:	205b032c 	.inst	0x205b032c ; undefined
     b4c:	130c052e 	sbfiz	w14, w9, #20, #2
     b50:	06010520 	.inst	0x06010520 ; undefined
     b54:	05203603 	.inst	0x05203603 ; undefined
     b58:	13141305 	sbfiz	w5, w24, #12, #5
     b5c:	05131313 	mov	z19.b, p3/z, #-104
     b60:	79030601 	strh	w1, [x16, #386]
     b64:	030d0501 	.inst	0x030d0501 ; undefined
     b68:	01053c28 	.inst	0x01053c28 ; undefined
     b6c:	052e5803 	.inst	0x052e5803 ; undefined
     b70:	7fac0310 	.inst	0x7fac0310 ; undefined
     b74:	03010520 	.inst	0x03010520 ; undefined
     b78:	052000d4 	ext	z20.b, z20.b, z6.b, #0
     b7c:	7fac0310 	.inst	0x7fac0310 ; undefined
     b80:	03010520 	.inst	0x03010520 ; undefined
     b84:	052000d4 	ext	z20.b, z20.b, z6.b, #0
     b88:	01052f1d 	.inst	0x01052f1d ; undefined
     b8c:	0605051f 	.inst	0x0605051f ; undefined
     b90:	052e0903 	ext	z3.b, z3.b, z8.b, #114
     b94:	14131309 	b	4c57b8 <__bss_end+0x444298>
     b98:	05010d05 	orr	z5.h, z5.h, #0x80ff
     b9c:	13050116 	sbfiz	w22, w8, #27, #1
     ba0:	051f2c06 	.inst	0x051f2c06 ; undefined
     ba4:	04020011 	.inst	0x04020011 ; undefined
     ba8:	05330601 	ext	z1.b, z1.b, z16.b, #153
     bac:	0402003d 	.inst	0x0402003d ; undefined
     bb0:	05110601 	mov	z1.b, p1/z, #48
     bb4:	04020034 	.inst	0x04020034 ; undefined
     bb8:	3c052e01 	str	b1, [x16, #82]!
     bbc:	2527052f 	whilelt	p15.b, w9, w7
     bc0:	051f1605 	mov	z5.b, p15/z, #-80
     bc4:	16051c2e 	b	fffffffff8147c7c <__bss_end+0xfffffffff80c675c>
     bc8:	1c1b0524 	ldr	s4, 36c6c <__bss_size+0x36c5a>
     bcc:	24060d05 	cmphs	p5.b, p3/z, z8.b, z6.b
     bd0:	05151105 	mov	z5.b, p5/z, #-120
     bd4:	051d060f 	mov	z15.b, p13/z, #48
     bd8:	04020011 	.inst	0x04020011 ; undefined
     bdc:	052f0601 	ext	z1.b, z1.b, z16.b, #121
     be0:	0402003d 	.inst	0x0402003d ; undefined
     be4:	05110601 	mov	z1.b, p1/z, #48
     be8:	04020034 	.inst	0x04020034 ; undefined
     bec:	3c052e01 	str	b1, [x16, #82]!
     bf0:	0316052f 	.inst	0x0316052f ; undefined
     bf4:	2e052079 	ext	v25.8b, v3.8b, v5.8b, #4
     bf8:	201b0527 	.inst	0x201b0527 ; undefined
     bfc:	03061a05 	.inst	0x03061a05 ; undefined
     c00:	16052079 	b	fffffffff8148de4 <__bss_end+0xfffffffff80c78c4>
     c04:	2f0d0501 	ushr	v1.8b, v8.8b, #3
     c08:	05151105 	mov	z5.b, p5/z, #-120
     c0c:	050f0616 	.inst	0x050f0616 ; undefined
     c10:	16052127 	b	fffffffff81490ac <__bss_end+0xfffffffff80c7b8c>
     c14:	200f051f 	.inst	0x200f051f ; undefined
     c18:	05313c05 	.inst	0x05313c05 ; undefined
     c1c:	05202327 	.inst	0x05202327 ; undefined
     c20:	16051d2e 	b	fffffffff81480d8 <__bss_end+0xfffffffff80c6bb8>
     c24:	1e1b0522 	.inst	0x1e1b0522 ; undefined
     c28:	22060d05 	.inst	0x22060d05 ; undefined
     c2c:	05151105 	mov	z5.b, p5/z, #-120
     c30:	050f0616 	.inst	0x050f0616 ; undefined
     c34:	3c05200f 	stur	b15, [x0, #82]
     c38:	03160531 	.inst	0x03160531 ; undefined
     c3c:	2e052077 	ext	v23.8b, v3.8b, v5.8b, #4
     c40:	05200903 	ext	z3.b, z3.b, z8.b, #2
     c44:	1a05201b 	.inst	0x1a05201b ; undefined
     c48:	20770306 	.inst	0x20770306 ; undefined
     c4c:	06011605 	.inst	0x06011605 ; undefined
     c50:	0609052e 	.inst	0x0609052e ; undefined
     c54:	05010c03 	orr	z3.h, z3.h, #0x8000
     c58:	05010613 	orr	z19.b, z19.b, #0x1
     c5c:	05220609 	ext	z9.b, z9.b, z16.b, #17
     c60:	0501060b 	orr	z11.b, z11.b, #0x1
     c64:	052f060d 	ext	z13.b, z13.b, z16.b, #121
     c68:	0501062a 	orr	z10.b, z10.b, #0x3
     c6c:	17053c1d 	b	fffffffffc14fce0 <__bss_end+0xfffffffffc0ce7c0>
     c70:	06090520 	.inst	0x06090520 ; undefined
     c74:	060b0522 	.inst	0x060b0522 ; undefined
     c78:	060d0501 	.inst	0x060d0501 ; undefined
     c7c:	062a052f 	.inst	0x062a052f ; undefined
     c80:	3c1d0501 	str	b1, [x8], #-48
     c84:	05201705 	ext	z5.b, z5.b, z24.b, #5
     c88:	05220609 	ext	z9.b, z9.b, z16.b, #17
     c8c:	8603060f 	.inst	0x8603060f ; undefined
     c90:	1205017f 	and	wsp, w11, #0x8000000
     c94:	2000fa03 	.inst	0x2000fa03 ; undefined
     c98:	22060905 	.inst	0x22060905 ; undefined
     c9c:	83030505 	.inst	0x83030505 ; undefined
     ca0:	0f05017f 	.inst	0x0f05017f ; undefined
     ca4:	06100513 	.inst	0x06100513 ; undefined
     ca8:	1b0f0525 	madd	w5, w9, w15, w1
     cac:	05251005 	ext	z5.b, z5.b, z0.b, #44
     cb0:	054a1b0f 	.inst	0x054a1b0f ; undefined
     cb4:	0f053310 	.inst	0x0f053310 ; undefined
     cb8:	0611051b 	.inst	0x0611051b ; undefined
     cbc:	05131321 	mov	z1.b, p3/z, #-103
     cc0:	13050f0f 	sbfiz	w15, w24, #27, #4
     cc4:	052e1306 	ext	z6.b, z6.b, z24.b, #116
     cc8:	054a1f0f 	.inst	0x054a1f0f ; undefined
     ccc:	0f053310 	.inst	0x0f053310 ; undefined
     cd0:	0611051b 	.inst	0x0611051b ; undefined
     cd4:	05131321 	mov	z1.b, p3/z, #-103
     cd8:	13050f0f 	sbfiz	w15, w24, #27, #4
     cdc:	052e1306 	ext	z6.b, z6.b, z24.b, #116
     ce0:	04020027 	.inst	0x04020027 ; undefined
     ce4:	00fe0301 	.inst	0x00fe0301 ; undefined
     ce8:	04020001 	.inst	0x04020001 ; undefined
     cec:	0f053c01 	.inst	0x0f053c01 ; undefined
     cf0:	017f8103 	.inst	0x017f8103 ; undefined
     cf4:	06110520 	.inst	0x06110520 ; undefined
     cf8:	05131321 	mov	z1.b, p3/z, #-103
     cfc:	05100613 	mov	z19.b, p0/z, #48
     d00:	0f052212 	.inst	0x0f052212 ; undefined
     d04:	13051d06 	sbfx	w6, w8, #5, #3
     d08:	052e1306 	ext	z6.b, z6.b, z24.b, #116
     d0c:	8a030609 	and	x9, x16, x3, lsl #1
     d10:	1d050101 	.inst	0x1d050101 ; undefined
     d14:	10050106 	adr	x6, ad34 <__bss_size+0xad22>
     d18:	060a0520 	.inst	0x060a0520 ; undefined
     d1c:	05205703 	.inst	0x05205703 ; undefined
     d20:	05130613 	mov	z19.b, p3/z, #48
     d24:	9d03060f 	.inst	0x9d03060f ; undefined
     d28:	0106207f 	.inst	0x0106207f ; undefined
     d2c:	ff032705 	.inst	0xff032705 ; undefined
     d30:	0d050100 	.inst	0x0d050100 ; undefined
     d34:	052f2f06 	tbx	z6.b, z24.b, z15.b
     d38:	05053009 	.inst	0x05053009 ; undefined
     d3c:	017efc03 	.inst	0x017efc03 ; undefined
     d40:	06130f05 	.inst	0x06130f05 ; undefined
     d44:	0609052e 	.inst	0x0609052e ; undefined
     d48:	01018b03 	.inst	0x01018b03 ; undefined
     d4c:	01061d05 	.inst	0x01061d05 ; undefined
     d50:	05201005 	ext	z5.b, z5.b, z0.b, #4
     d54:	5703060a 	.inst	0x5703060a ; undefined
     d58:	03090520 	.inst	0x03090520 ; undefined
     d5c:	05207fa3 	.inst	0x05207fa3 ; undefined
     d60:	fe03062a 	.inst	0xfe03062a ; undefined
     d64:	1b050100 	madd	w0, w8, w5, w0
     d68:	30054b06 	adr	x6, b6c9 <__bss_size+0xb6b7>
     d6c:	05582f06 	mov	z6.h, p8/z, #30720
     d70:	052e0611 	ext	z17.b, z17.b, z16.b, #113
     d74:	0501061b 	orr	z27.b, z27.b, #0x1
     d78:	2f062011 	.inst	0x2f062011 ; undefined
     d7c:	01061c05 	.inst	0x01061c05 ; undefined
     d80:	03060505 	.inst	0x03060505 ; undefined
     d84:	05207ef9 	.inst	0x05207ef9 ; undefined
     d88:	1c05130f 	ldr	s15, afe8 <__bss_size+0xafd6>
     d8c:	01860306 	.inst	0x01860306 ; undefined
     d90:	030f0501 	.inst	0x030f0501 ; undefined
     d94:	3c207efa 	.inst	0x3c207efa ; undefined
     d98:	0611052e 	.inst	0x0611052e ; undefined
     d9c:	1305132f 	sbfiz	w15, w25, #27, #5
     da0:	11051106 	add	w6, w8, #0x144
     da4:	12053006 	and	w6, w0, #0xf80000ff
     da8:	0f050106 	.inst	0x0f050106 ; undefined
     dac:	13051d06 	sbfx	w6, w8, #5, #3
     db0:	052e1306 	ext	z6.b, z6.b, z24.b, #116
     db4:	04020028 	.inst	0x04020028 ; undefined
     db8:	83030602 	.inst	0x83030602 ; undefined
     dbc:	1b050101 	madd	w1, w8, w5, w0
     dc0:	02040200 	.inst	0x02040200 ; undefined
     dc4:	04020001 	.inst	0x04020001 ; undefined
     dc8:	00200602 	.inst	0x00200602 ; NYI
     dcc:	2e020402 	.inst	0x2e020402 ; undefined
     dd0:	05161405 	mov	z5.b, p6/z, #-96
     dd4:	2e202601 	uhsub	v1.8b, v16.8b, v0.8b
     dd8:	06090520 	.inst	0x06090520 ; undefined
     ddc:	2e7ef703 	.inst	0x2e7ef703 ; undefined
     de0:	01060b05 	.inst	0x01060b05 ; undefined
     de4:	f8031405 	str	x5, [x0], #49
     de8:	01052000 	.inst	0x01052000 ; undefined
     dec:	20201103 	.inst	0x20201103 ; undefined
     df0:	0905202e 	.inst	0x0905202e ; undefined
     df4:	7ef70306 	.inst	0x7ef70306 ; undefined
     df8:	060b052e 	.inst	0x060b052e ; undefined
     dfc:	27052001 	.inst	0x27052001 ; undefined
     e00:	0100fa03 	.inst	0x0100fa03 ; undefined
     e04:	81030f05 	.inst	0x81030f05 ; undefined
     e08:	09052e7f 	.inst	0x09052e7f ; undefined
     e0c:	0b053306 	add	w6, w24, w5, lsl #12
     e10:	3d050106 	str	b6, [x8, #320]
     e14:	01040200 	.inst	0x01040200 ; undefined
     e18:	01810306 	.inst	0x01810306 ; undefined
     e1c:	001b052e 	.inst	0x001b052e ; undefined
     e20:	06010402 	.inst	0x06010402 ; undefined
     e24:	003d051e 	.inst	0x003d051e ; NYI
     e28:	22010402 	.inst	0x22010402 ; undefined
     e2c:	02002805 	.inst	0x02002805 ; undefined
     e30:	1e060104 	.inst	0x1e060104 ; undefined
     e34:	02001b05 	.inst	0x02001b05 ; undefined
     e38:	05010104 	orr	z4.s, z4.s, #0x1ff
     e3c:	3c0c031a 	stur	b26, [x24, #192]
     e40:	13130205 	sbfiz	w5, w16, #13, #1
     e44:	05010605 	orr	z5.b, z5.b, #0x1
     e48:	03050113 	.inst	0x03050113 ; undefined
     e4c:	06050513 	.inst	0x06050513 ; undefined
     e50:	06190501 	.inst	0x06190501 ; undefined
     e54:	0113053b 	.inst	0x0113053b ; undefined
     e58:	05130305 	mov	z5.b, p3/z, #24
     e5c:	05010605 	orr	z5.b, z5.b, #0x1
     e60:	053b0619 	ext	z25.b, z25.b, z16.b, #217
     e64:	03050113 	.inst	0x03050113 ; undefined
     e68:	06050513 	.inst	0x06050513 ; undefined
     e6c:	01052001 	.inst	0x01052001 ; undefined
     e70:	1d210531 	.inst	0x1d210531 ; undefined
     e74:	15010520 	b	40422f4 <__bss_end+0x3fc0dd4>
     e78:	22061905 	.inst	0x22061905 ; undefined
     e7c:	03130505 	.inst	0x03130505 ; undefined
     e80:	14017ef0 	b	60a40 <__bss_size+0x60a2e>
     e84:	14090513 	b	2422d0 <__bss_end+0x1c0db0>
     e88:	03061905 	.inst	0x03061905 ; undefined
     e8c:	0501018a 	orr	z10.s, z10.s, #0x1fff
     e90:	7ef6030c 	.inst	0x7ef6030c ; undefined
     e94:	0905583c 	.inst	0x0905583c ; undefined
     e98:	0a052206 	and	w6, w16, w5, lsl #8
     e9c:	0b050106 	add	w6, w8, w5
     ea0:	05051c06 	.inst	0x05051c06 ; undefined
     ea4:	14090501 	b	2422a8 <__bss_end+0x1c0d88>
     ea8:	01060c05 	.inst	0x01060c05 ; undefined
     eac:	06050520 	.inst	0x06050520 ; undefined
     eb0:	06010633 	.inst	0x06010633 ; undefined
     eb4:	01018703 	.inst	0x01018703 ; undefined
     eb8:	13131314 	sbfiz	w20, w24, #13, #5
     ebc:	0a051313 	and	w19, w24, w5, lsl #4
     ec0:	05050106 	.inst	0x05050106 ; undefined
     ec4:	06053d06 	.inst	0x06053d06 ; undefined
     ec8:	017ef403 	.inst	0x017ef403 ; undefined
     ecc:	05130205 	mov	z5.b, p3/z, #16
     ed0:	05010604 	orr	z4.b, z4.b, #0x1
     ed4:	054d0603 	.inst	0x054d0603 ; undefined
     ed8:	2d010613 	stp	s19, s1, [x16, #8]
     edc:	21052120 	.inst	0x21052120 ; undefined
     ee0:	13051f06 	sbfx	w6, w24, #5, #3
     ee4:	31020501 	adds	w1, w8, #0x81
     ee8:	0f062105 	.inst	0x0f062105 ; undefined
     eec:	230c052e 	.inst	0x230c052e ; undefined
     ef0:	03100520 	.inst	0x03100520 ; undefined
     ef4:	1d050169 	.inst	0x1d050169 ; undefined
     ef8:	3c01b503 	str	b3, [x8], #27
     efc:	03060505 	.inst	0x03060505 ; undefined
     f00:	09052e6c 	.inst	0x09052e6c ; undefined
     f04:	05141313 	mov	z19.b, p4/z, #-104
     f08:	1605010d 	b	fffffffff814133c <__bss_end+0xfffffffff80bfe1c>
     f0c:	06130501 	.inst	0x06130501 ; undefined
     f10:	11051f2c 	add	w12, w25, #0x147
     f14:	01040200 	.inst	0x01040200 ; undefined
     f18:	3d053306 	str	b6, [x24, #332]
     f1c:	01040200 	.inst	0x01040200 ; undefined
     f20:	34051106 	cbz	w6, b140 <__bss_size+0xb12e>
     f24:	01040200 	.inst	0x01040200 ; undefined
     f28:	2f3c052e 	ushr	v14.2s, v9.2s, #4
     f2c:	20252705 	.inst	0x20252705 ; undefined
     f30:	051b2e05 	.inst	0x051b2e05 ; undefined
     f34:	1b052416 	madd	w22, w0, w5, w9
     f38:	060d051c 	.inst	0x060d051c ; undefined
     f3c:	15110524 	b	44423cc <__bss_end+0x43c0eac>
     f40:	0f061605 	orr	v5.2s, #0xd0
     f44:	05200f05 	ext	z5.b, z5.b, z24.b, #3
     f48:	04020011 	.inst	0x04020011 ; undefined
     f4c:	052f0601 	ext	z1.b, z1.b, z16.b, #121
     f50:	0402003d 	.inst	0x0402003d ; undefined
     f54:	05110601 	mov	z1.b, p1/z, #48
     f58:	04020034 	.inst	0x04020034 ; undefined
     f5c:	3c052e01 	str	b1, [x16, #82]!
     f60:	0316052f 	.inst	0x0316052f ; undefined
     f64:	2e052079 	ext	v25.8b, v3.8b, v5.8b, #4
     f68:	201b0527 	.inst	0x201b0527 ; undefined
     f6c:	03061a05 	.inst	0x03061a05 ; undefined
     f70:	16052079 	b	fffffffff8149154 <__bss_end+0xfffffffff80c7c34>
     f74:	2f0d0501 	ushr	v1.8b, v8.8b, #3
     f78:	05151105 	mov	z5.b, p5/z, #-120
     f7c:	050f0616 	.inst	0x050f0616 ; undefined
     f80:	16052127 	b	fffffffff814941c <__bss_end+0xfffffffff80c7efc>
     f84:	200f051f 	.inst	0x200f051f ; undefined
     f88:	05313c05 	.inst	0x05313c05 ; undefined
     f8c:	05202327 	.inst	0x05202327 ; undefined
     f90:	16051d2e 	b	fffffffff8148448 <__bss_end+0xfffffffff80c6f28>
     f94:	1e1b0522 	.inst	0x1e1b0522 ; undefined
     f98:	22060d05 	.inst	0x22060d05 ; undefined
     f9c:	05151105 	mov	z5.b, p5/z, #-120
     fa0:	050f0616 	.inst	0x050f0616 ; undefined
     fa4:	3c05200f 	stur	b15, [x0, #82]
     fa8:	03160531 	.inst	0x03160531 ; undefined
     fac:	2e052077 	ext	v23.8b, v3.8b, v5.8b, #4
     fb0:	05200903 	ext	z3.b, z3.b, z8.b, #2
     fb4:	1a05201b 	.inst	0x1a05201b ; undefined
     fb8:	20770306 	.inst	0x20770306 ; undefined
     fbc:	06011605 	.inst	0x06011605 ; undefined
     fc0:	0602052e 	.inst	0x0602052e ; undefined
     fc4:	05010d03 	orr	z3.h, z3.h, #0x80ff
     fc8:	0501060c 	orr	z12.b, z12.b, #0x1
     fcc:	05220609 	ext	z9.b, z9.b, z16.b, #17
     fd0:	0501060b 	orr	z11.b, z11.b, #0x1
     fd4:	052f060d 	ext	z13.b, z13.b, z16.b, #121
     fd8:	0501062a 	orr	z10.b, z10.b, #0x3
     fdc:	17053c1d 	b	fffffffffc150050 <__bss_end+0xfffffffffc0ceb30>
     fe0:	06090520 	.inst	0x06090520 ; undefined
     fe4:	060b0522 	.inst	0x060b0522 ; undefined
     fe8:	060d0501 	.inst	0x060d0501 ; undefined
     fec:	062a052f 	.inst	0x062a052f ; undefined
     ff0:	3c1d0501 	str	b1, [x8], #-48
     ff4:	05201705 	ext	z5.b, z5.b, z24.b, #5
     ff8:	05220609 	ext	z9.b, z9.b, z16.b, #17
     ffc:	c103060f 	.inst	0xc103060f ; undefined
    1000:	1205017e 	and	w30, w11, #0x8000000
    1004:	2001bf03 	.inst	0x2001bf03 ; undefined
    1008:	22060205 	.inst	0x22060205 ; undefined
    100c:	be030505 	.inst	0xbe030505 ; undefined
    1010:	0f05017e 	.inst	0x0f05017e ; undefined
    1014:	05660613 	ext	z19.b, {z16.b, z17.b}, #49
    1018:	0f053310 	.inst	0x0f053310 ; undefined
    101c:	0611051b 	.inst	0x0611051b ; undefined
    1020:	05131321 	mov	z1.b, p3/z, #-103
    1024:	13050f0f 	sbfiz	w15, w24, #27, #4
    1028:	0b051306 	add	w6, w24, w5, lsl #4
    102c:	0f052e32 	.inst	0x0f052e32 ; undefined
    1030:	1105200d 	add	w13, w0, #0x148
    1034:	13132106 	sbfiz	w6, w8, #13, #9
    1038:	10061305 	adr	x5, d298 <__bss_size+0xd286>
    103c:	05221205 	ext	z5.b, z5.b, z16.b, #20
    1040:	051d060f 	mov	z15.b, p13/z, #48
    1044:	2e130613 	.inst	0x2e130613 ; undefined
    1048:	03060905 	.inst	0x03060905 ; undefined
    104c:	050101cf 	orr	z15.s, z15.s, #0x7fff
    1050:	0501061d 	orr	z29.b, z29.b, #0x1
    1054:	0a052010 	and	w16, w0, w5, lsl #8
    1058:	20560306 	.inst	0x20560306 ; undefined
    105c:	13061305 	sbfiz	w5, w24, #26, #5
    1060:	d9030f05 	.inst	0xd9030f05 ; undefined
    1064:	052e207e 	mov	z30.h, z3.h[3]
    1068:	05170609 	mov	z9.b, p7/z, #48
    106c:	2e01060b 	.inst	0x2e01060b ; undefined
    1070:	03061b05 	.inst	0x03061b05 ; undefined
    1074:	050101c4 	orr	z4.s, z4.s, #0x7fff
    1078:	202f0630 	.inst	0x202f0630 ; undefined
    107c:	58061105 	ldr	x5, d29c <__bss_size+0xd28a>
    1080:	01061b05 	.inst	0x01061b05 ; undefined
    1084:	06201105 	.inst	0x06201105 ; undefined
    1088:	061c052f 	.inst	0x061c052f ; undefined
    108c:	06050501 	.inst	0x06050501 ; undefined
    1090:	207eb403 	.inst	0x207eb403 ; undefined
    1094:	05130f05 	mov	z5.b, p3/z, #120
    1098:	cb03061c 	sub	x28, x16, x3, lsl #1
    109c:	0f050101 	.inst	0x0f050101 ; undefined
    10a0:	207eb503 	.inst	0x207eb503 ; undefined
    10a4:	11052e3c 	add	w28, w17, #0x14b
    10a8:	05132f06 	.inst	0x05132f06 ; undefined
    10ac:	05110613 	mov	z19.b, p1/z, #48
    10b0:	05300611 	ext	z17.b, z17.b, z16.b, #129
    10b4:	05010612 	orr	z18.b, z18.b, #0x1
    10b8:	051d060f 	mov	z15.b, p13/z, #48
    10bc:	2e130613 	.inst	0x2e130613 ; undefined
    10c0:	02002805 	.inst	0x02002805 ; undefined
    10c4:	03060204 	.inst	0x03060204 ; undefined
    10c8:	050101c8 	orr	z8.s, z8.s, #0x7fff
    10cc:	0402001b 	.inst	0x0402001b ; undefined
    10d0:	02000102 	.inst	0x02000102 ; undefined
    10d4:	20060204 	.inst	0x20060204 ; undefined
    10d8:	02040200 	.inst	0x02040200 ; undefined
    10dc:	0301052e 	.inst	0x0301052e ; undefined
    10e0:	09050109 	.inst	0x09050109 ; undefined
    10e4:	7eb30306 	.inst	0x7eb30306 ; undefined
    10e8:	060b053c 	.inst	0x060b053c ; undefined
    10ec:	06052001 	.inst	0x06052001 ; undefined
    10f0:	01bd0306 	.inst	0x01bd0306 ; undefined
    10f4:	3d070501 	str	b1, [x8, #449]
    10f8:	052f0a05 	ext	z5.b, z5.b, z16.b, #122
    10fc:	01053d06 	.inst	0x01053d06 ; undefined
    1100:	010d0306 	.inst	0x010d0306 ; undefined
    1104:	ae030f05 	.inst	0xae030f05 ; undefined
    1108:	09053c7e 	.inst	0x09053c7e ; undefined
    110c:	0b052506 	add	w6, w8, w5, lsl #9
    1110:	3d050106 	str	b6, [x8, #320]
    1114:	01040200 	.inst	0x01040200 ; undefined
    1118:	01c60306 	.inst	0x01c60306 ; undefined
    111c:	001b052e 	.inst	0x001b052e ; undefined
    1120:	06010402 	.inst	0x06010402 ; undefined
    1124:	003d051e 	.inst	0x003d051e ; NYI
    1128:	22010402 	.inst	0x22010402 ; undefined
    112c:	02002805 	.inst	0x02002805 ; undefined
    1130:	1e060104 	.inst	0x1e060104 ; undefined
    1134:	02001b05 	.inst	0x02001b05 ; undefined
    1138:	00010104 	.inst	0x00010104 ; undefined
    113c:	06010402 	.inst	0x06010402 ; undefined
    1140:	0605053c 	.inst	0x0605053c ; undefined
    1144:	017eca03 	.inst	0x017eca03 ; undefined
    1148:	03060106 	.inst	0x03060106 ; undefined
    114c:	14010187 	b	41768 <__bss_size+0x41756>
    1150:	13131313 	sbfiz	w19, w24, #13, #5
    1154:	060a0513 	.inst	0x060a0513 ; undefined
    1158:	06050520 	.inst	0x06050520 ; undefined
    115c:	0306052f 	.inst	0x0306052f ; undefined
    1160:	05017ef4 	.inst	0x05017ef4 ; undefined
    1164:	19051302 	stlurb	w2, [x24, #81]
    1168:	2001bd03 	.inst	0x2001bd03 ; undefined
    116c:	053c0106 	ext	z6.b, z6.b, z8.b, #224
    1170:	13210605 	.inst	0x13210605 ; undefined
    1174:	13090513 	sbfiz	w19, w8, #23, #2
    1178:	01060d05 	.inst	0x01060d05 ; undefined
    117c:	05200b05 	ext	z5.b, z5.b, z24.b, #2
    1180:	05210609 	ext	z9.b, z9.b, z16.b, #9
    1184:	0511060d 	mov	z13.b, p1/z, #48
    1188:	18052209 	ldr	w9, b5c8 <__bss_size+0xb5b6>
    118c:	09052e1f 	.inst	0x09052e1f ; undefined
    1190:	20062106 	.inst	0x20062106 ; undefined
    1194:	13060e05 	sbfiz	w5, w16, #26, #4
    1198:	130d0505 	sbfiz	w5, w8, #19, #2
    119c:	05130905 	mov	z5.b, p3/z, #72
    11a0:	0501060d 	orr	z13.b, z13.b, #0x1
    11a4:	0905200b 	.inst	0x0905200b ; undefined
    11a8:	0d052106 	.inst	0x0d052106 ; undefined
    11ac:	09051106 	.inst	0x09051106 ; undefined
    11b0:	1f180522 	fmadd	s2, s9, s24, s1
    11b4:	0609052e 	.inst	0x0609052e ; undefined
    11b8:	052e0621 	ext	z1.b, z1.b, z17.b, #113
    11bc:	0513060e 	mov	z14.b, p3/z, #48
    11c0:	01051305 	.inst	0x01051305 ; undefined
    11c4:	05051306 	.inst	0x05051306 ; undefined
    11c8:	2101051f 	.inst	0x2101051f ; undefined
    11cc:	051f0505 	mov	z5.b, p15/z, #40
    11d0:	054d0615 	.inst	0x054d0615 ; undefined
    11d4:	18131305 	ldr	w5, 27434 <__bss_size+0x27422>
    11d8:	01000302 	.inst	0x01000302 ; undefined
    11dc:	Address 0x00000000000011dc is out of bounds.


Disassembly of section .debug_line_str:

0000000000000000 <.debug_line_str>:
   0:	6d6f682f 	ldp	d15, d26, [x1, #-272]
   4:	61792f65 	.inst	0x61792f65 ; undefined
   8:	72702f6f 	.inst	0x72702f6f ; undefined
   c:	63656a6f 	.inst	0x63656a6f ; undefined
  10:	4f2f7374 	.inst	0x4f2f7374 ; undefined
  14:	2f494453 	.inst	0x2f494453 ; undefined
  18:	6e72656b 	umax	v11.8h, v11.8h, v18.8h
  1c:	73006c65 	.inst	0x73006c65 ; undefined
  20:	74726174 	.inst	0x74726174 ; undefined
  24:	6d00532e 	stp	d14, d20, [x25]
  28:	2e6e6961 	.inst	0x2e6e6961 ; undefined
  2c:	2e2e0063 	uaddl	v3.8h, v3.8b, v14.8b
  30:	62696c2f 	.inst	0x62696c2f ; undefined
  34:	62657200 	.inst	0x62657200 ; undefined
  38:	2e746f6f 	umin	v15.4h, v27.4h, v20.4h
  3c:	626d0068 	.inst	0x626d0068 ; undefined
  40:	682e786f 	.inst	0x682e786f ; undefined
  44:	72617500 	.inst	0x72617500 ; undefined
  48:	00682e74 	.inst	0x00682e74 ; undefined
  4c:	6c697475 	ldnp	d21, d29, [x3, #-368]
  50:	00682e73 	.inst	0x00682e73 ; undefined
  54:	6c2f2e2e 	stnp	d14, d11, [x17, #-272]
  58:	6d2f6269 	stp	d9, d24, [x19, #-272]
  5c:	2e786f62 	umin	v2.4h, v27.4h, v24.4h
  60:	2e2e0063 	uaddl	v3.8h, v3.8b, v14.8b
  64:	62696c2f 	.inst	0x62696c2f ; undefined
  68:	6265722f 	.inst	0x6265722f ; undefined
  6c:	2e746f6f 	umin	v15.4h, v27.4h, v20.4h
  70:	2e2e0063 	uaddl	v3.8h, v3.8b, v14.8b
  74:	62696c2f 	.inst	0x62696c2f ; undefined
  78:	7261752f 	.inst	0x7261752f ; undefined
  7c:	00632e74 	.inst	0x00632e74 ; undefined
  80:	6c2f2e2e 	stnp	d14, d11, [x17, #-272]
  84:	752f6269 	.inst	0x752f6269 ; undefined
  88:	736c6974 	.inst	0x736c6974 ; undefined
  8c:	Address 0x000000000000008c is out of bounds.


Disassembly of section .debug_info:

0000000000000000 <.debug_info>:
       0:	00000024 	udf	#36
       4:	08010005 	stxrb	w1, w5, [x0]
       8:	00000000 	udf	#0
       c:	00000001 	udf	#1
      10:	08000000 	stxrb	w0, w0, [x0]
      14:	00000000 	udf	#0
      18:	00005000 	udf	#20480
      1c:	00080000 	.inst	0x00080000 ; undefined
      20:	00270000 	.inst	0x00270000 ; NYI
      24:	80010000 	.inst	0x80010000 ; undefined
      28:	00000684 	udf	#1668
      2c:	08010005 	stxrb	w1, w5, [x0]
      30:	00000014 	udf	#20
      34:	0000330e 	udf	#13070
      38:	00271d00 	.inst	0x00271d00 ; NYI
      3c:	00000000 	udf	#0
      40:	00260000 	.inst	0x00260000 ; NYI
	...
      4c:	00570000 	.inst	0x00570000 ; undefined
      50:	4d0f0000 	.inst	0x4d0f0000 ; undefined
      54:	3a000000 	adcs	w0, w0, w0
      58:	09000000 	.inst	0x09000000 ; undefined
      5c:	0000003f 	udf	#63
      60:	2a0a0023 	orr	w3, w1, w10
      64:	08000000 	stxrb	w0, w0, [x0]
      68:	00bd0708 	.inst	0x00bd0708 ; undefined
      6c:	04080000 	smax	z0.b, p0/m, z0.b, z0.b
      70:	0000c207 	udf	#49671
      74:	00460a00 	.inst	0x00460a00 ; undefined
      78:	e2100000 	.inst	0xe2100000 ; undefined
      7c:	03000000 	.inst	0x03000000 ; undefined
      80:	003a1e03 	.inst	0x003a1e03 ; NYI
      84:	63110000 	.inst	0x63110000 ; undefined
      88:	05007461 	orr	z1.h, z1.h, #0x3c
      8c:	0070060a 	.inst	0x0070060a ; undefined
      90:	70030000 	adr	x0, 6093 <__bss_size+0x6081>
      94:	00000000 	udf	#0
      98:	00760812 	.inst	0x00760812 ; undefined
      9c:	01080000 	.inst	0x01080000 ; undefined
      a0:	0001bb08 	.inst	0x0001bb08 ; undefined
      a4:	00d40b00 	.inst	0x00d40b00 ; undefined
      a8:	91090000 	add	x0, x0, #0x240
      ac:	91000000 	add	x0, x0, #0x0
      b0:	03000000 	.inst	0x03000000 ; undefined
      b4:	00000070 	udf	#112
      b8:	05041300 	.inst	0x05041300 ; undefined
      bc:	00746e69 	.inst	0x00746e69 ; undefined
      c0:	00736c14 	.inst	0x00736c14 ; undefined
      c4:	91050805 	add	x5, x0, #0x142
      c8:	b2000000 	orr	x0, x0, #0x100000001
      cc:	03000000 	.inst	0x03000000 ; undefined
      d0:	00000070 	udf	#112
      d4:	00009103 	udf	#37123
      d8:	4b050000 	sub	w0, w0, w5
      dc:	02000001 	.inst	0x02000001 ; undefined
      e0:	0000bf02 	udf	#48898
      e4:	07000600 	.inst	0x07000600 ; undefined
      e8:	00000152 	udf	#338
      ec:	00d00102 	.inst	0x00d00102 ; undefined
      f0:	91030000 	add	x0, x0, #0xc0
      f4:	00000000 	udf	#0
      f8:	00011d05 	.inst	0x00011d05 ; undefined
      fc:	dd1b0300 	.inst	0xdd1b0300 ; undefined
     100:	06000000 	.inst	0x06000000 ; undefined
     104:	01420700 	.inst	0x01420700 ; undefined
     108:	05040000 	.inst	0x05040000 ; undefined
     10c:	000000ee 	udf	#238
     110:	00004603 	udf	#17923
     114:	2f050000 	.inst	0x2f050000 ; undefined
     118:	03000001 	.inst	0x03000001 ; undefined
     11c:	0000fb1a 	udf	#64282
     120:	07000600 	.inst	0x07000600 ; undefined
     124:	000000cf 	udf	#207
     128:	01160605 	.inst	0x01160605 ; undefined
     12c:	16030000 	b	fffffffff80c012c <__bss_end+0xfffffffff803ec0c>
     130:	03000001 	.inst	0x03000001 ; undefined
     134:	00000070 	udf	#112
     138:	00009103 	udf	#37123
     13c:	04080000 	smax	z0.b, p0/m, z0.b, z0.b
     140:	00011704 	.inst	0x00011704 ; undefined
     144:	00fe0b00 	.inst	0x00fe0b00 ; undefined
     148:	91020000 	add	x0, x0, #0x80
     14c:	36000000 	tbz	w0, #0, 14c <__bss_size+0x13a>
     150:	03000001 	.inst	0x03000001 ; undefined
     154:	00000070 	udf	#112
     158:	00007003 	udf	#28675
     15c:	29070000 	stp	w0, w0, [x0, #56]
     160:	05000001 	orr	z1.s, z1.s, #0x1
     164:	0001470c 	.inst	0x0001470c ; undefined
     168:	00700300 	.inst	0x00700300 ; undefined
     16c:	07000000 	.inst	0x07000000 ; undefined
     170:	000000ea 	udf	#234
     174:	01580404 	.inst	0x01580404 ; undefined
     178:	70030000 	adr	x0, 617b <__bss_size+0x6169>
     17c:	00000000 	udf	#0
     180:	0000af05 	udf	#44805
     184:	650b0500 	.inst	0x650b0500 ; undefined
     188:	06000001 	.inst	0x06000001 ; undefined
     18c:	00f40500 	.inst	0x00f40500 ; undefined
     190:	01040000 	.inst	0x01040000 ; undefined
     194:	00000172 	udf	#370
     198:	dd150006 	.inst	0xdd150006 ; undefined
     19c:	01000000 	.inst	0x01000000 ; undefined
     1a0:	00500606 	.inst	0x00500606 ; undefined
     1a4:	00000008 	udf	#8
     1a8:	02900000 	.inst	0x02900000 ; undefined
     1ac:	00000000 	udf	#0
     1b0:	9c010000 	ldr	q0, 21b0 <__bss_size+0x219e>
     1b4:	0000067b 	udf	#1659
     1b8:	00000c16 	udf	#3094
     1bc:	00066000 	.inst	0x00066000 ; undefined
     1c0:	00a91700 	.inst	0x00a91700 ; undefined
     1c4:	0b010000 	add	w0, w0, w1
     1c8:	00067b0e 	.inst	0x00067b0e ; undefined
     1cc:	50910200 	adr	x0, fffffffffff2220e <__bss_end+0xffffffffffea0cee>
     1d0:	08014c18 	stxrb	w1, w24, [x0]
     1d4:	00000000 	udf	#0
     1d8:	00004000 	udf	#16384
     1dc:	00000000 	udf	#0
     1e0:	00026000 	.inst	0x00026000 ; undefined
     1e4:	010e0c00 	.inst	0x010e0c00 ; undefined
     1e8:	3f180000 	.inst	0x3f180000 ; undefined
     1ec:	0e000000 	tbl	v0.8b, {v0.16b}, v0.8b
     1f0:	0c000000 	st4	{v0.8b-v3.8b}, [x0]
     1f4:	0c000000 	st4	{v0.8b-v3.8b}, [x0]
     1f8:	00000105 	udf	#261
     1fc:	00003f22 	udf	#16162
     200:	00001d00 	udf	#7424
     204:	00001b00 	udf	#6912
     208:	74731900 	.inst	0x74731900 ; undefined
     20c:	1a010072 	adc	w18, w3, w1
     210:	00067b0b 	.inst	0x00067b0b ; undefined
     214:	68910200 	stgp	x0, x0, [x16], #544
     218:	08016c02 	stxrb	w1, w2, [x0]
     21c:	00000000 	udf	#0
     220:	0000fb00 	udf	#64256
     224:	00020d00 	.inst	0x00020d00 ; undefined
     228:	50010100 	adr	x0, 224a <__bss_size+0x2238>
     22c:	01008c02 	.inst	0x01008c02 ; undefined
     230:	36015101 	tbz	w1, #0, 2c50 <__bss_size+0x2c3e>
     234:	01780200 	.inst	0x01780200 ; undefined
     238:	00000008 	udf	#8
     23c:	01470000 	.inst	0x01470000 ; undefined
     240:	022c0000 	.inst	0x022c0000 ; undefined
     244:	01010000 	.inst	0x01010000 ; undefined
     248:	f8030950 	sttr	x16, [x10, #48]
     24c:	00000811 	udf	#2065
     250:	00000000 	udf	#0
     254:	08018002 	stlxrb	w1, w2, [x0]
     258:	00000000 	udf	#0
     25c:	00014700 	.inst	0x00014700 ; undefined
     260:	00024400 	.inst	0x00024400 ; undefined
     264:	50010100 	adr	x0, 2286 <__bss_size+0x2274>
     268:	00008c02 	udf	#35842
     26c:	08018c0d 	stlxrb	w1, w13, [x0]
     270:	00000000 	udf	#0
     274:	00014700 	.inst	0x00014700 ; undefined
     278:	50010100 	adr	x0, 229a <__bss_size+0x2288>
     27c:	12000309 	and	w9, w24, #0x1
     280:	00000008 	udf	#8
     284:	00000000 	udf	#0
     288:	0800b802 	stlxrb	w0, w2, [x0]
     28c:	00000000 	udf	#0
     290:	00014700 	.inst	0x00014700 ; undefined
     294:	00027800 	.inst	0x00027800 ; undefined
     298:	50010100 	adr	x0, 22ba <__bss_size+0x22a8>
     29c:	00008502 	udf	#34050
     2a0:	0800c002 	stlxrb	w0, w2, [x0]
     2a4:	00000000 	udf	#0
     2a8:	00013600 	.inst	0x00013600 ; undefined
     2ac:	00029000 	.inst	0x00029000 ; undefined
     2b0:	50010100 	adr	x0, 22d2 <__bss_size+0x22c0>
     2b4:	00008302 	udf	#33538
     2b8:	0800cc02 	stlxrb	w0, w2, [x0]
     2bc:	00000000 	udf	#0
     2c0:	00011d00 	.inst	0x00011d00 ; undefined
     2c4:	0002ae00 	.inst	0x0002ae00 ; undefined
     2c8:	50010100 	adr	x0, 22ea <__bss_size+0x22d8>
     2cc:	01008302 	.inst	0x01008302 ; undefined
     2d0:	84025101 	ld1b	{z1.s}, p4/z, [x8, z2.s, uxtw]
     2d4:	d8020000 	prfm	pldl1keep, 42d4 <__bss_size+0x42c2>
     2d8:	00000800 	udf	#2048
     2dc:	47000000 	.inst	0x47000000 ; undefined
     2e0:	cd000001 	.inst	0xcd000001 ; undefined
     2e4:	01000002 	.inst	0x01000002 ; undefined
     2e8:	03095001 	.inst	0x03095001 ; undefined
     2ec:	00081120 	.inst	0x00081120 ; undefined
     2f0:	00000000 	udf	#0
     2f4:	00e00200 	.inst	0x00e00200 ; undefined
     2f8:	00000008 	udf	#8
     2fc:	01470000 	.inst	0x01470000 ; undefined
     300:	02e50000 	.inst	0x02e50000 ; undefined
     304:	01010000 	.inst	0x01010000 ; undefined
     308:	00850250 	.inst	0x00850250 ; undefined
     30c:	00e80200 	.inst	0x00e80200 ; undefined
     310:	00000008 	udf	#8
     314:	01360000 	.inst	0x01360000 ; undefined
     318:	02fd0000 	.inst	0x02fd0000 ; undefined
     31c:	01010000 	.inst	0x01010000 ; undefined
     320:	00830250 	.inst	0x00830250 ; undefined
     324:	00f40200 	.inst	0x00f40200 ; undefined
     328:	00000008 	udf	#8
     32c:	011d0000 	.inst	0x011d0000 ; undefined
     330:	031b0000 	.inst	0x031b0000 ; undefined
     334:	01010000 	.inst	0x01010000 ; undefined
     338:	00830250 	.inst	0x00830250 ; undefined
     33c:	02510101 	.inst	0x02510101 ; undefined
     340:	02000084 	.inst	0x02000084 ; undefined
     344:	00080104 	.inst	0x00080104 ; undefined
     348:	00000000 	udf	#0
     34c:	0000011d 	udf	#285
     350:	00000339 	udf	#825
     354:	02500101 	.inst	0x02500101 ; undefined
     358:	01010083 	.inst	0x01010083 ; undefined
     35c:	00870251 	.inst	0x00870251 ; undefined
     360:	01100200 	.inst	0x01100200 ; undefined
     364:	00000008 	udf	#8
     368:	01470000 	.inst	0x01470000 ; undefined
     36c:	03580000 	.inst	0x03580000 ; undefined
     370:	01010000 	.inst	0x01010000 ; undefined
     374:	38030950 	sttrb	w16, [x10, #48]
     378:	00000811 	udf	#2065
     37c:	00000000 	udf	#0
     380:	08011802 	stxrb	w1, w2, [x0]
     384:	00000000 	udf	#0
     388:	00014700 	.inst	0x00014700 ; undefined
     38c:	00037700 	.inst	0x00037700 ; undefined
     390:	50010100 	adr	x0, 23b2 <__bss_size+0x23a0>
     394:	11580309 	add	w9, w24, #0x600, lsl #12
     398:	00000008 	udf	#8
     39c:	02000000 	.inst	0x02000000 ; undefined
     3a0:	00080120 	.inst	0x00080120 ; undefined
     3a4:	00000000 	udf	#0
     3a8:	00000147 	udf	#327
     3ac:	00000396 	udf	#918
     3b0:	09500101 	.inst	0x09500101 ; undefined
     3b4:	08118003 	stlxrb	w17, w3, [x0]
     3b8:	00000000 	udf	#0
     3bc:	2c020000 	stnp	s0, s0, [x0, #16]
     3c0:	00000801 	udf	#2049
     3c4:	47000000 	.inst	0x47000000 ; undefined
     3c8:	b5000001 	cbnz	x1, 3c8 <__bss_size+0x3b6>
     3cc:	01000003 	.inst	0x01000003 ; undefined
     3d0:	03095001 	.inst	0x03095001 ; undefined
     3d4:	000811a8 	.inst	0x000811a8 ; undefined
     3d8:	00000000 	udf	#0
     3dc:	01380200 	.inst	0x01380200 ; undefined
     3e0:	00000008 	udf	#8
     3e4:	01470000 	.inst	0x01470000 ; undefined
     3e8:	03d40000 	.inst	0x03d40000 ; undefined
     3ec:	01010000 	.inst	0x01010000 ; undefined
     3f0:	d0030950 	adrp	x16, 612a000 <__bss_end+0x60a8ae0>
     3f4:	00000811 	udf	#2065
     3f8:	00000000 	udf	#0
     3fc:	08014802 	stxrb	w1, w2, [x0]
     400:	00000000 	udf	#0
     404:	00011d00 	.inst	0x00011d00 ; undefined
     408:	0003f200 	.inst	0x0003f200 ; undefined
     40c:	50010100 	adr	x0, 242e <__bss_size+0x241c>
     410:	01008302 	.inst	0x01008302 ; undefined
     414:	88025101 	stxr	w2, w1, [x8]
     418:	a0020000 	.inst	0xa0020000 ; undefined
     41c:	00000801 	udf	#2049
     420:	1d000000 	.inst	0x1d000000 ; undefined
     424:	17000001 	b	fffffffffc000428 <__bss_end+0xfffffffffbf7ef08>
     428:	01000004 	.inst	0x01000004 ; undefined
     42c:	83025001 	.inst	0x83025001 ; undefined
     430:	51010100 	sub	w0, w8, #0x40
     434:	12080309 	and	w9, w24, #0x1000000
     438:	00000008 	udf	#8
     43c:	04000000 	add	z0.b, p0/m, z0.b, z0.b
     440:	000801a8 	.inst	0x000801a8 ; undefined
     444:	00000000 	udf	#0
     448:	000000ee 	udf	#238
     44c:	0801c002 	stlxrb	w1, w2, [x0]
     450:	00000000 	udf	#0
     454:	00014700 	.inst	0x00014700 ; undefined
     458:	00044300 	.inst	0x00044300 ; undefined
     45c:	50010100 	adr	x0, 247e <__bss_size+0x246c>
     460:	12100309 	and	w9, w24, #0x10000
     464:	00000008 	udf	#8
     468:	04000000 	add	z0.b, p0/m, z0.b, z0.b
     46c:	000801d4 	.inst	0x000801d4 ; undefined
     470:	00000000 	udf	#0
     474:	000000dd 	udf	#221
     478:	0801e002 	stlxrb	w1, w2, [x0]
     47c:	00000000 	udf	#0
     480:	00014700 	.inst	0x00014700 ; undefined
     484:	00046900 	.inst	0x00046900 ; undefined
     488:	50010100 	adr	x0, 24aa <__bss_size+0x2498>
     48c:	06409103 	.inst	0x06409103 ; undefined
     490:	01e40400 	.inst	0x01e40400 ; undefined
     494:	00000008 	udf	#8
     498:	00d00000 	.inst	0x00d00000 ; undefined
     49c:	f0020000 	adrp	x0, 4003000 <__bss_end+0x3f81ae0>
     4a0:	00000801 	udf	#2049
     4a4:	47000000 	.inst	0x47000000 ; undefined
     4a8:	95000001 	bl	40004ac <__bss_end+0x3f7ef8c>
     4ac:	01000004 	.inst	0x01000004 ; undefined
     4b0:	03095001 	.inst	0x03095001 ; undefined
     4b4:	00081228 	.inst	0x00081228 ; undefined
     4b8:	00000000 	udf	#0
     4bc:	01fc0400 	.inst	0x01fc0400 ; undefined
     4c0:	00000008 	udf	#8
     4c4:	00dd0000 	.inst	0x00dd0000 ; undefined
     4c8:	08020000 	stxrb	w2, w0, [x0]
     4cc:	00000802 	udf	#2050
     4d0:	47000000 	.inst	0x47000000 ; undefined
     4d4:	bb000001 	.inst	0xbb000001 ; undefined
     4d8:	01000004 	.inst	0x01000004 ; undefined
     4dc:	91035001 	add	x1, x0, #0xd4
     4e0:	02000640 	.inst	0x02000640 ; undefined
     4e4:	00080214 	.inst	0x00080214 ; undefined
     4e8:	00000000 	udf	#0
     4ec:	00000147 	udf	#327
     4f0:	000004da 	udf	#1242
     4f4:	09500101 	.inst	0x09500101 ; undefined
     4f8:	08124803 	stxrb	w18, w3, [x0]
     4fc:	00000000 	udf	#0
     500:	20040000 	.inst	0x20040000 ; undefined
     504:	00000802 	udf	#2050
     508:	dd000000 	.inst	0xdd000000 ; undefined
     50c:	02000000 	.inst	0x02000000 ; undefined
     510:	0008022c 	.inst	0x0008022c ; undefined
     514:	00000000 	udf	#0
     518:	00000147 	udf	#327
     51c:	00000500 	udf	#1280
     520:	03500101 	.inst	0x03500101 ; undefined
     524:	00064091 	.inst	0x00064091 ; undefined
     528:	08024002 	stxrb	w2, w2, [x0]
     52c:	00000000 	udf	#0
     530:	00011d00 	.inst	0x00011d00 ; undefined
     534:	00052500 	.inst	0x00052500 ; undefined
     538:	50010100 	adr	x0, 255a <__bss_size+0x2548>
     53c:	01008302 	.inst	0x01008302 ; undefined
     540:	03095101 	.inst	0x03095101 ; undefined
     544:	00081260 	.inst	0x00081260 ; undefined
     548:	00000000 	udf	#0
     54c:	02500400 	.inst	0x02500400 ; undefined
     550:	00000008 	udf	#8
     554:	00bf0000 	.inst	0x00bf0000 ; undefined
     558:	5c020000 	ldr	d0, 4558 <__bss_size+0x4546>
     55c:	00000802 	udf	#2050
     560:	47000000 	.inst	0x47000000 ; undefined
     564:	51000001 	sub	w1, w0, #0x0
     568:	01000005 	.inst	0x01000005 ; undefined
     56c:	03095001 	.inst	0x03095001 ; undefined
     570:	00081268 	.inst	0x00081268 ; undefined
     574:	00000000 	udf	#0
     578:	02640200 	.inst	0x02640200 ; undefined
     57c:	00000008 	udf	#8
     580:	01360000 	.inst	0x01360000 ; undefined
     584:	05690000 	ext	z0.b, {z0.b, z1.b}, #72
     588:	01010000 	.inst	0x01010000 ; undefined
     58c:	00830250 	.inst	0x00830250 ; undefined
     590:	02740200 	.inst	0x02740200 ; undefined
     594:	00000008 	udf	#8
     598:	011d0000 	.inst	0x011d0000 ; undefined
     59c:	058e0000 	.inst	0x058e0000 ; undefined
     5a0:	01010000 	.inst	0x01010000 ; undefined
     5a4:	00830250 	.inst	0x00830250 ; undefined
     5a8:	09510101 	.inst	0x09510101 ; undefined
     5ac:	08128803 	stlxrb	w18, w3, [x0]
     5b0:	00000000 	udf	#0
     5b4:	7c040000 	stur	h0, [x0, #64]
     5b8:	00000802 	udf	#2050
     5bc:	b2000000 	orr	x0, x0, #0x100000001
     5c0:	02000000 	.inst	0x02000000 ; undefined
     5c4:	00080290 	.inst	0x00080290 ; undefined
     5c8:	00000000 	udf	#0
     5cc:	0000011d 	udf	#285
     5d0:	000005c0 	udf	#1472
     5d4:	02500101 	.inst	0x02500101 ; undefined
     5d8:	01010083 	.inst	0x01010083 ; undefined
     5dc:	90030951 	adrp	x17, 6128000 <__bss_end+0x60a6ae0>
     5e0:	00000812 	udf	#2066
     5e4:	00000000 	udf	#0
     5e8:	0802a002 	stlxrb	w2, w2, [x0]
     5ec:	00000000 	udf	#0
     5f0:	00009800 	udf	#38912
     5f4:	0005dd00 	.inst	0x0005dd00 ; undefined
     5f8:	50010100 	adr	x0, 261a <__bss_size+0x2608>
     5fc:	01008302 	.inst	0x01008302 ; undefined
     600:	30015101 	adr	x1, 3021 <__bss_size+0x300f>
     604:	02ac0200 	.inst	0x02ac0200 ; undefined
     608:	00000008 	udf	#8
     60c:	007d0000 	.inst	0x007d0000 ; undefined
     610:	05f50000 	.inst	0x05f50000 ; undefined
     614:	01010000 	.inst	0x01010000 ; undefined
     618:	00830250 	.inst	0x00830250 ; undefined
     61c:	02b80200 	.inst	0x02b80200 ; undefined
     620:	00000008 	udf	#8
     624:	005e0000 	.inst	0x005e0000 ; undefined
     628:	060d0000 	.inst	0x060d0000 ; undefined
     62c:	01010000 	.inst	0x01010000 ; undefined
     630:	00830250 	.inst	0x00830250 ; undefined
     634:	02c80200 	.inst	0x02c80200 ; undefined
     638:	00000008 	udf	#8
     63c:	01470000 	.inst	0x01470000 ; undefined
     640:	062c0000 	.inst	0x062c0000 ; undefined
     644:	01010000 	.inst	0x01010000 ; undefined
     648:	98030950 	ldrsw	x16, 6770 <__bss_size+0x675e>
     64c:	00000812 	udf	#2066
     650:	00000000 	udf	#0
     654:	0802d002 	stlxrb	w2, w2, [x0]
     658:	00000000 	udf	#0
     65c:	00014700 	.inst	0x00014700 ; undefined
     660:	00064400 	.inst	0x00064400 ; undefined
     664:	50010100 	adr	x0, 2686 <__bss_size+0x2674>
     668:	00008302 	udf	#33538
     66c:	0802dc0d 	stlxrb	w2, w13, [x0]
     670:	00000000 	udf	#0
     674:	00014700 	.inst	0x00014700 ; undefined
     678:	50010100 	adr	x0, 269a <__bss_size+0x2688>
     67c:	12a00309 	mov	w9, #0xffe7ffff            	// #-1572865
     680:	00000008 	udf	#8
     684:	00000000 	udf	#0
     688:	0800a804 	stlxrb	w0, w4, [x0]
     68c:	00000000 	udf	#0
     690:	00016500 	.inst	0x00016500 ; undefined
     694:	00ac0400 	.inst	0x00ac0400 ; undefined
     698:	00000008 	udf	#8
     69c:	01580000 	.inst	0x01580000 ; undefined
     6a0:	1a000000 	adc	w0, w0, w0
     6a4:	00000076 	udf	#118
     6a8:	00003f09 	udf	#16137
     6ac:	00001300 	udf	#4864
     6b0:	0000013e 	udf	#318
     6b4:	08010005 	stxrb	w1, w5, [x0]
     6b8:	00000180 	udf	#384
     6bc:	00003307 	udf	#13063
     6c0:	00541d00 	.inst	0x00541d00 ; undefined
     6c4:	00000000 	udf	#0
     6c8:	02e00000 	.inst	0x02e00000 ; undefined
     6cc:	00000008 	udf	#8
     6d0:	01940000 	.inst	0x01940000 ; undefined
     6d4:	00000000 	udf	#0
     6d8:	01b00000 	.inst	0x01b00000 ; undefined
     6dc:	4f080000 	.inst	0x4f080000 ; undefined
     6e0:	3e000000 	.inst	0x3e000000 ; undefined
     6e4:	09000000 	.inst	0x09000000 ; undefined
     6e8:	00000043 	udf	#67
     6ec:	2e020023 	ext	v3.8b, v1.8b, v2.8b, #0
     6f0:	03000000 	.inst	0x03000000 ; undefined
     6f4:	0000bd08 	udf	#48392
     6f8:	c2040300 	.inst	0xc2040300 ; undefined
     6fc:	02000000 	.inst	0x02000000 ; undefined
     700:	00000049 	udf	#73
     704:	0000e20a 	udf	#57866
     708:	1e030200 	.inst	0x1e030200 ; undefined
     70c:	0000003e 	udf	#62
     710:	0000540b 	udf	#21515
     714:	09350100 	.inst	0x09350100 ; undefined
     718:	08149003 	stlxrb	w20, w3, [x0]
     71c:	00000000 	udf	#0
     720:	011d0400 	.inst	0x011d0400 ; undefined
     724:	e0250000 	st1b	{za0h.b[w12, 0]}, p0, [x0, x5]
     728:	00000803 	udf	#2051
     72c:	94000000 	bl	72c <__bss_size+0x71a>
     730:	00000000 	udf	#0
     734:	01000000 	.inst	0x01000000 ; undefined
     738:	0000b59c 	udf	#46492
     73c:	00f90500 	.inst	0x00f90500 ; undefined
     740:	04240000 	add	z0.b, z0.b, z4.b
     744:	00000008 	udf	#8
     748:	53010000 	lsl	w0, w0, #31
     74c:	30000000 	adr	x0, 74d <__bss_size+0x73b>
     750:	00005306 	udf	#21254
     754:	010a0100 	.inst	0x010a0100 ; undefined
     758:	00380000 	.inst	0x00380000 ; NYI
     75c:	00360000 	.inst	0x00360000 ; NYI
     760:	00000000 	udf	#0
     764:	012f0400 	.inst	0x012f0400 ; undefined
     768:	50180000 	adr	x0, 3076a <__bss_size+0x30758>
     76c:	00000803 	udf	#2051
     770:	8c000000 	.inst	0x8c000000 ; undefined
     774:	00000000 	udf	#0
     778:	01000000 	.inst	0x01000000 ; undefined
     77c:	0000f99c 	udf	#63900
     780:	00f90500 	.inst	0x00f90500 ; undefined
     784:	03900000 	.inst	0x03900000 ; undefined
     788:	00000008 	udf	#8
     78c:	3e010000 	.inst	0x3e010000 ; undefined
     790:	22000000 	.inst	0x22000000 ; undefined
     794:	00003e06 	udf	#15878
     798:	010a0100 	.inst	0x010a0100 ; undefined
     79c:	00420000 	.inst	0x00420000 ; undefined
     7a0:	00400000 	.inst	0x00400000 ; undefined
     7a4:	00000000 	udf	#0
     7a8:	01580c00 	.inst	0x01580c00 ; undefined
     7ac:	05010000 	orr	z0.s, z0.s, #0x1
     7b0:	00011505 	.inst	0x00011505 ; undefined
     7b4:	01150100 	.inst	0x01150100 ; undefined
     7b8:	720d0000 	ands	w0, w0, #0x80000
     7bc:	12070100 	and	w0, w8, #0x2000000
     7c0:	00000049 	udf	#73
     7c4:	05040e00 	.inst	0x05040e00 ; undefined
     7c8:	00746e69 	.inst	0x00746e69 ; undefined
     7cc:	0000f90f 	udf	#63759
     7d0:	0802e000 	stlxrb	w2, w0, [x0]
     7d4:	00000000 	udf	#0
     7d8:	00007000 	udf	#28672
     7dc:	00000000 	udf	#0
     7e0:	019c0100 	.inst	0x019c0100 ; undefined
     7e4:	0000010a 	udf	#266
     7e8:	0000004c 	udf	#76
     7ec:	0000004a 	udf	#74
     7f0:	01970000 	.inst	0x01970000 ; undefined
     7f4:	00050000 	.inst	0x00050000 ; undefined
     7f8:	025b0801 	.inst	0x025b0801 ; undefined
     7fc:	33050000 	bfi	w0, w0, #27, #1
     800:	1d000000 	.inst	0x1d000000 ; undefined
     804:	00000062 	udf	#98
     808:	00000000 	udf	#0
     80c:	00080480 	.inst	0x00080480 ; undefined
     810:	00000000 	udf	#0
     814:	00000060 	udf	#96
     818:	00000000 	udf	#0
     81c:	000003d1 	udf	#977
     820:	00014b06 	.inst	0x00014b06 ; undefined
     824:	060e0100 	.inst	0x060e0100 ; undefined
     828:	000804c0 	.inst	0x000804c0 ; undefined
     82c:	00000000 	udf	#0
     830:	00000020 	udf	#32
     834:	00000000 	udf	#0
     838:	00ad9c01 	.inst	0x00ad9c01 ; undefined
     83c:	47020000 	.inst	0x47020000 ; undefined
     840:	c0000001 	mov	za0h.b[w12, 1], p0/m, z0.b
     844:	00000804 	udf	#2052
     848:	02000000 	.inst	0x02000000 ; undefined
     84c:	0000008e 	udf	#142
     850:	00007e0f 	udf	#32271
     854:	01600100 	.inst	0x01600100 ; undefined
     858:	00600000 	.inst	0x00600000 ; undefined
     85c:	005e0000 	.inst	0x005e0000 ; undefined
     860:	54010000 	b.eq	2860 <__bss_size+0x284e>  // b.none
     864:	6c000001 	stnp	d1, d0, [x0]
     868:	6a000000 	ands	w0, w0, w0
     86c:	00000000 	udf	#0
     870:	00014703 	.inst	0x00014703 ; undefined
     874:	0804d800 	stlxrb	w4, w0, [x0]
     878:	00000000 	udf	#0
     87c:	00980200 	.inst	0x00980200 ; undefined
     880:	01100000 	.inst	0x01100000 ; undefined
     884:	00000160 	udf	#352
     888:	00000079 	udf	#121
     88c:	00000077 	udf	#119
     890:	00015401 	.inst	0x00015401 ; undefined
     894:	00008500 	udf	#34048
     898:	00008300 	udf	#33536
     89c:	07000000 	.inst	0x07000000 ; undefined
     8a0:	00000152 	udf	#338
     8a4:	90060901 	adrp	x1, c120000 <__bss_end+0xc09eae0>
     8a8:	00000804 	udf	#2052
     8ac:	2c000000 	stnp	s0, s0, [x0]
     8b0:	00000000 	udf	#0
     8b4:	01000000 	.inst	0x01000000 ; undefined
     8b8:	0001409c 	.inst	0x0001409c ; undefined
     8bc:	01650800 	.inst	0x01650800 ; undefined
     8c0:	09010000 	.inst	0x09010000 ; undefined
     8c4:	00014010 	.inst	0x00014010 ; undefined
     8c8:	00009400 	udf	#37888
     8cc:	00009000 	udf	#36864
     8d0:	01470200 	.inst	0x01470200 ; undefined
     8d4:	04900000 	mul	z0.s, p0/m, z0.s, z0.s
     8d8:	00000008 	udf	#8
     8dc:	74020000 	.inst	0x74020000 ; undefined
     8e0:	0a000000 	and	w0, w0, w0
     8e4:	00000111 	udf	#273
     8e8:	00016001 	.inst	0x00016001 ; undefined
     8ec:	0000a400 	udf	#41984
     8f0:	0000a200 	udf	#41472
     8f4:	01540100 	.inst	0x01540100 ; undefined
     8f8:	00b10000 	.inst	0x00b10000 ; undefined
     8fc:	00af0000 	.inst	0x00af0000 ; undefined
     900:	03000000 	.inst	0x03000000 ; undefined
     904:	00000147 	udf	#327
     908:	000804b0 	.inst	0x000804b0 ; undefined
     90c:	00000000 	udf	#0
     910:	00008102 	udf	#33026
     914:	60010b00 	.inst	0x60010b00 ; undefined
     918:	c0000001 	mov	za0h.b[w12, 1], p0/m, z0.b
     91c:	bc000000 	stur	s0, [x0]
     920:	01000000 	.inst	0x01000000 ; undefined
     924:	00000154 	udf	#340
     928:	000000dc 	udf	#220
     92c:	000000da 	udf	#218
     930:	04090000 	umax	z0.b, p0/m, z0.b, z0.b
     934:	746e6905 	.inst	0x746e6905 ; undefined
     938:	65730a00 	fmla	z0.h, p2/m, z16.h, z19.h
     93c:	05010074 	orr	z20.s, z20.s, #0xf
     940:	016d0106 	.inst	0x016d0106 ; undefined
     944:	720b0000 	ands	w0, w0, #0x200000
     948:	01006765 	.inst	0x01006765 ; undefined
     94c:	016d1705 	.inst	0x016d1705 ; undefined
     950:	650c0000 	.inst	0x650c0000 ; undefined
     954:	01000001 	.inst	0x01000001 ; undefined
     958:	01402005 	.inst	0x01402005 ; undefined
     95c:	0d000000 	st1	{v0.b}[0], [x0]
     960:	00c20704 	.inst	0x00c20704 ; undefined
     964:	470e0000 	.inst	0x470e0000 ; undefined
     968:	80000001 	.inst	0x80000001 ; undefined
     96c:	00000804 	udf	#2052
     970:	0c000000 	st4	{v0.8b-v3.8b}, [x0]
     974:	00000000 	udf	#0
     978:	01000000 	.inst	0x01000000 ; undefined
     97c:	0154049c 	.inst	0x0154049c ; undefined
     980:	50010000 	adr	x0, 2982 <__bss_size+0x2970>
     984:	00016004 	.inst	0x00016004 ; undefined
     988:	00510100 	.inst	0x00510100 ; undefined
     98c:	00020400 	.inst	0x00020400 ; undefined
     990:	01000500 	.inst	0x01000500 ; undefined
     994:	00035208 	.inst	0x00035208 ; undefined
     998:	00330600 	.inst	0x00330600 ; NYI
     99c:	721d0000 	ands	w0, w0, #0x8
     9a0:	00000000 	udf	#0
     9a4:	e0000000 	ld1b	{za0h.b[w12, 0]}, p0/z, [x0, x0]
     9a8:	00000804 	udf	#2052
     9ac:	34000000 	cbz	w0, 9ac <__bss_size+0x99a>
     9b0:	00000002 	udf	#2
     9b4:	86000000 	.inst	0x86000000 ; undefined
     9b8:	02000004 	.inst	0x02000004 ; undefined
     9bc:	00000142 	udf	#322
     9c0:	0806a084 	stlxrb	w6, w4, [x4]
     9c4:	00000000 	udf	#0
     9c8:	00007400 	udf	#29696
     9cc:	00000000 	udf	#0
     9d0:	c09c0100 	.inst	0xc09c0100 ; undefined
     9d4:	03000000 	.inst	0x03000000 ; undefined
     9d8:	1c840064 	ldr	s4, fffffffffff089e4 <__bss_end+0xffffffffffe874c4>
     9dc:	000000c0 	udf	#192
     9e0:	000000f7 	udf	#247
     9e4:	000000f3 	udf	#243
     9e8:	85006e01 	ldff1w	{z1.s}, p3/z, [x16, z0.s, uxtw]
     9ec:	0000c012 	udf	#49170
     9f0:	00010a00 	.inst	0x00010a00 ; undefined
     9f4:	00010600 	.inst	0x00010600 ; undefined
     9f8:	00630100 	.inst	0x00630100 ; undefined
     9fc:	00c70986 	.inst	0x00c70986 ; undefined
     a00:	01210000 	.inst	0x01210000 ; undefined
     a04:	01190000 	.inst	0x01190000 ; undefined
     a08:	82070000 	.inst	0x82070000 ; undefined
     a0c:	ec000001 	.inst	0xec000001 ; undefined
     a10:	00000806 	udf	#2054
     a14:	01000000 	.inst	0x01000000 ; undefined
     a18:	000000b9 	udf	#185
     a1c:	a4098d01 	.inst	0xa4098d01 ; undefined
     a20:	04000000 	add	z0.b, p0/m, z0.b, z0.b
     a24:	0000018f 	udf	#399
     a28:	00000143 	udf	#323
     a2c:	00000141 	udf	#321
     a30:	06b80800 	.inst	0x06b80800 ; undefined
     a34:	00000008 	udf	#8
     a38:	00ce0000 	.inst	0x00ce0000 ; undefined
     a3c:	01090000 	.inst	0x01090000 ; undefined
     a40:	e0030950 	.inst	0xe0030950 ; undefined
     a44:	00000812 	udf	#2066
     a48:	00000000 	udf	#0
     a4c:	07040500 	.inst	0x07040500 ; undefined
     a50:	000000c2 	udf	#194
     a54:	6905040a 	stgp	x10, x1, [x0, #160]
     a58:	0200746e 	.inst	0x0200746e ; undefined
     a5c:	000000ea 	udf	#234
     a60:	08064078 	stxrb	w6, w24, [x3]
     a64:	00000000 	udf	#0
     a68:	00006000 	udf	#24576
     a6c:	00000000 	udf	#0
     a70:	419c0100 	.inst	0x419c0100 ; undefined
     a74:	03000001 	.inst	0x03000001 ; undefined
     a78:	16780073 	b	fffffffff9e00c44 <__bss_end+0xfffffffff9d7f724>
     a7c:	00000141 	udf	#321
     a80:	00000151 	udf	#337
     a84:	0000014b 	udf	#331
     a88:	0001820b 	.inst	0x0001820b ; undefined
     a8c:	0000ae00 	udf	#44544
     a90:	0d7c0100 	.inst	0x0d7c0100 ; undefined
     a94:	00000111 	udf	#273
     a98:	00018f0c 	.inst	0x00018f0c ; undefined
     a9c:	820d0000 	.inst	0x820d0000 ; undefined
     aa0:	6c000001 	stnp	d1, d0, [x0]
     aa4:	00000806 	udf	#2054
     aa8:	00000000 	udf	#0
     aac:	0008066c 	.inst	0x0008066c ; undefined
     ab0:	00000000 	udf	#0
     ab4:	00000014 	udf	#20
     ab8:	00000000 	udf	#0
     abc:	04097d01 	mls	z1.b, p7/m, z8.b, z9.b
     ac0:	0000018f 	udf	#399
     ac4:	0000016b 	udf	#363
     ac8:	00000169 	udf	#361
     acc:	080e0000 	stxrb	w14, w0, [x0]
     ad0:	00000147 	udf	#327
     ad4:	bb080105 	.inst	0xbb080105 ; undefined
     ad8:	0f000001 	.inst	0x0f000001 ; undefined
     adc:	0000016a 	udf	#362
     ae0:	47066a01 	.inst	0x47066a01 ; undefined
     ae4:	04000001 	add	z1.b, p0/m, z1.b, z0.b
     ae8:	00000806 	udf	#2054
     aec:	38000000 	sturb	w0, [x0]
     af0:	00000000 	udf	#0
     af4:	01000000 	.inst	0x01000000 ; undefined
     af8:	0001829c 	.inst	0x0001829c ; undefined
     afc:	00720100 	.inst	0x00720100 ; undefined
     b00:	01470a6b 	.inst	0x01470a6b ; undefined
     b04:	01750000 	.inst	0x01750000 ; undefined
     b08:	01730000 	.inst	0x01730000 ; undefined
     b0c:	10000000 	adr	x0, b0c <__bss_size+0xafa>
     b10:	00000174 	udf	#372
     b14:	01065801 	.inst	0x01065801 ; undefined
     b18:	0000019a 	udf	#410
     b1c:	01006311 	.inst	0x01006311 ; undefined
     b20:	00c01d58 	.inst	0x00c01d58 ; undefined
     b24:	12000000 	and	w0, w0, #0x1
     b28:	000000f4 	udf	#244
     b2c:	e0062d01 	ld1b	{za0h.b[w13, 1]}, p3/z, [x8, x6]
     b30:	00000804 	udf	#2052
     b34:	f8000000 	stur	x0, [x0]
     b38:	00000000 	udf	#0
     b3c:	01000000 	.inst	0x01000000 ; undefined
     b40:	0001e89c 	.inst	0x0001e89c ; undefined
     b44:	00720100 	.inst	0x00720100 ; undefined
     b48:	00c01b2f 	.inst	0x00c01b2f ; undefined
     b4c:	01910000 	.inst	0x01910000 ; undefined
     b50:	017d0000 	.inst	0x017d0000 ; undefined
     b54:	c0130000 	.inst	0xc0130000 ; undefined
     b58:	00000805 	udf	#2053
     b5c:	0c000000 	st4	{v0.8b-v3.8b}, [x0]
     b60:	00000000 	udf	#0
     b64:	14000000 	b	b64 <__bss_size+0xb52>
     b68:	00706d74 	.inst	0x00706d74 ; undefined
     b6c:	47085101 	.inst	0x47085101 ; undefined
     b70:	00000001 	udf	#1
     b74:	01821500 	.inst	0x01821500 ; undefined
     b78:	05e00000 	.inst	0x05e00000 ; undefined
     b7c:	00000008 	udf	#8
     b80:	00240000 	.inst	0x00240000 ; NYI
     b84:	00000000 	udf	#0
     b88:	9c010000 	ldr	q0, 2b88 <__bss_size+0x2b76>
     b8c:	00018f16 	.inst	0x00018f16 ; undefined
     b90:	00500100 	.inst	0x00500100 ; undefined
     b94:	000c7c00 	.inst	0x000c7c00 ; undefined
     b98:	01000500 	.inst	0x01000500 ; undefined
     b9c:	0004b608 	.inst	0x0004b608 ; undefined
     ba0:	00332400 	.inst	0x00332400 ; NYI
     ba4:	801d0000 	.inst	0x801d0000 ; undefined
     ba8:	00000000 	udf	#0
     bac:	20000000 	.inst	0x20000000 ; undefined
     bb0:	00000807 	udf	#2055
     bb4:	ec000000 	.inst	0xec000000 ; undefined
     bb8:	00000009 	udf	#9
     bbc:	6a000000 	ands	w0, w0, w0
     bc0:	0f000007 	.inst	0x0f000007 ; undefined
     bc4:	01170404 	.inst	0x01170404 ; undefined
     bc8:	04250000 	add	z0.b, z0.b, z5.b
     bcc:	746e6905 	.inst	0x746e6905 ; undefined
     bd0:	016a0400 	.inst	0x016a0400 ; undefined
     bd4:	0de60000 	ld2	{v0.b, v1.b}[0], [x0], x6
     bd8:	00000035 	udf	#53
     bdc:	0000004d 	udf	#77
     be0:	74040005 	.inst	0x74040005 ; undefined
     be4:	93000001 	.inst	0x93000001 ; undefined
     be8:	00003511 	udf	#13585
     bec:	00005e00 	udf	#24064
     bf0:	04000500 	add	z0.b, p1/m, z0.b, z8.b
     bf4:	000000ea 	udf	#234
     bf8:	00350d8e 	.inst	0x00350d8e ; NYI
     bfc:	006f0000 	.inst	0x006f0000 ; undefined
     c00:	00050000 	.inst	0x00050000 ; undefined
     c04:	0000af26 	udf	#44838
     c08:	06ed0100 	.inst	0x06ed0100 ; undefined
     c0c:	00081100 	.inst	0x00081100 ; undefined
     c10:	00000000 	udf	#0
     c14:	0000000c 	udf	#12
     c18:	00000000 	udf	#0
     c1c:	00d09c01 	.inst	0x00d09c01 ; undefined
     c20:	9a170000 	adc	x0, x0, x23
     c24:	ee000001 	.inst	0xee000001 ; undefined
     c28:	0000d00b 	udf	#53259
     c2c:	20030a00 	.inst	0x20030a00 ; undefined
     c30:	00000813 	udf	#2067
     c34:	9f000000 	.inst	0x9f000000 ; undefined
     c38:	0000ea04 	udf	#59908
     c3c:	350d8e00 	cbnz	w0, 1bdfc <__bss_size+0x1bdea>
     c40:	b4000000 	cbz	x0, c40 <__bss_size+0xc2e>
     c44:	05000000 	orr	z0.s, z0.s, #0x1
     c48:	110c1400 	add	w0, w0, #0x305
     c4c:	00000008 	udf	#8
     c50:	005e0000 	.inst	0x005e0000 ; undefined
     c54:	01070000 	.inst	0x01070000 ; undefined
     c58:	20030950 	.inst	0x20030950 ; undefined
     c5c:	00000813 	udf	#2067
     c60:	00000000 	udf	#0
     c64:	00d51800 	.inst	0x00d51800 ; undefined
     c68:	010f0000 	.inst	0x010f0000 ; undefined
     c6c:	0001bb08 	.inst	0x0001bb08 ; undefined
     c70:	01291500 	.inst	0x01291500 ; undefined
     c74:	90e20000 	adrp	x0, ffffffffc4000000 <__bss_end+0xffffffffc3f7eae0>
     c78:	00000810 	udf	#2064
     c7c:	68000000 	.inst	0x68000000 ; undefined
     c80:	00000000 	udf	#0
     c84:	01000000 	.inst	0x01000000 ; undefined
     c88:	0001bc9c 	.inst	0x0001bc9c ; undefined
     c8c:	00a90d00 	.inst	0x00a90d00 ; undefined
     c90:	12e20000 	.inst	0x12e20000 ; undefined
     c94:	000000d0 	udf	#208
     c98:	000001eb 	udf	#491
     c9c:	000001e5 	udf	#485
     ca0:	00022b02 	.inst	0x00022b02 ; undefined
     ca4:	3509e300 	cbnz	w0, 14904 <__bss_size+0x148f2>
     ca8:	0e000000 	tbl	v0.8b, {v0.16b}, v0.8b
     cac:	04000002 	add	z2.b, p0/m, z2.b, z0.b
     cb0:	09000002 	.inst	0x09000002 ; undefined
     cb4:	0ae40063 	bic	w3, w3, w4, ror #0
     cb8:	000000d5 	udf	#213
     cbc:	0000024b 	udf	#587
     cc0:	00000247 	udf	#583
     cc4:	0000ea04 	udf	#59908
     cc8:	350d8e00 	cbnz	w0, 1be88 <__bss_size+0x1be76>
     ccc:	40000000 	.inst	0x40000000 ; undefined
     cd0:	05000001 	orr	z1.s, z1.s, #0x1
     cd4:	02400e00 	.inst	0x02400e00 ; undefined
     cd8:	01a00000 	.inst	0x01a00000 ; undefined
     cdc:	6a040000 	ands	w0, w0, w4
     ce0:	e6000001 	.inst	0xe6000001 ; undefined
     ce4:	0000350d 	udf	#13581
     ce8:	00015a00 	.inst	0x00015a00 ; undefined
     cec:	04000500 	add	z0.b, p1/m, z0.b, z8.b
     cf0:	00000174 	udf	#372
     cf4:	00351193 	.inst	0x00351193 ; NYI
     cf8:	016b0000 	.inst	0x016b0000 ; undefined
     cfc:	00050000 	.inst	0x00050000 ; undefined
     d00:	0810a40c 	stlxrb	w16, w12, [x0]
     d04:	00000000 	udf	#0
     d08:	00003c00 	udf	#15360
     d0c:	10c00c00 	adr	x0, fffffffffff80e8c <__bss_end+0xffffffffffeff96c>
     d10:	00000008 	udf	#8
     d14:	004d0000 	.inst	0x004d0000 ; undefined
     d18:	c40c0000 	ld1sb	{z0.d}, p0/z, [x0, z12.d, uxtw]
     d1c:	00000810 	udf	#2064
     d20:	3c000000 	stur	b0, [x0]
     d24:	0c000000 	st4	{v0.8b-v3.8b}, [x0]
     d28:	000810e4 	.inst	0x000810e4 ; undefined
     d2c:	00000000 	udf	#0
     d30:	0000004d 	udf	#77
     d34:	10f81400 	adr	x0, ffffffffffff0fb4 <__bss_end+0xfffffffffff6fa94>
     d38:	00000008 	udf	#8
     d3c:	005e0000 	.inst	0x005e0000 ; undefined
     d40:	01070000 	.inst	0x01070000 ; undefined
     d44:	18030950 	ldr	w16, 6e6c <__bss_size+0x6e5a>
     d48:	00000813 	udf	#2067
     d4c:	00000000 	udf	#0
     d50:	61632700 	.inst	0x61632700 ; undefined
     d54:	a6010074 	.inst	0xa6010074 ; undefined
     d58:	080db006 	stlxrb	w13, w6, [x0]
     d5c:	00000000 	udf	#0
     d60:	0002e000 	.inst	0x0002e000 ; undefined
     d64:	00000000 	udf	#0
     d68:	bd9c0100 	.inst	0xbd9c0100 ; undefined
     d6c:	0d000004 	st1	{v4.b}[0], [x0]
     d70:	000000a9 	udf	#169
     d74:	00d00fa6 	.inst	0x00d00fa6 ; undefined
     d78:	02600000 	.inst	0x02600000 ; undefined
     d7c:	025a0000 	.inst	0x025a0000 ; undefined
     d80:	6c090000 	stnp	d0, d0, [x0, #144]
     d84:	a7006e65 	.inst	0xa7006e65 ; undefined
     d88:	00003509 	udf	#13577
     d8c:	00027f00 	.inst	0x00027f00 ; undefined
     d90:	00027900 	.inst	0x00027900 ; undefined
     d94:	00200200 	.inst	0x00200200 ; NYI
     d98:	1da80000 	.inst	0x1da80000 ; undefined
     d9c:	000004bd 	udf	#1213
     da0:	000002a0 	udf	#672
     da4:	00000298 	udf	#664
     da8:	0001e002 	.inst	0x0001e002 ; undefined
     dac:	bd1daa00 	str	s0, [x16, #7592]
     db0:	d8000004 	prfm	pldl3keep, db0 <__bss_size+0xd9e>
     db4:	ce000002 	eor3	v2.16b, v0.16b, v0.16b, v0.16b
     db8:	02000002 	.inst	0x02000002 ; undefined
     dbc:	0000018a 	udf	#394
     dc0:	003509ab 	.inst	0x003509ab ; NYI
     dc4:	030a0000 	.inst	0x030a0000 ; undefined
     dc8:	03020000 	.inst	0x03020000 ; undefined
     dcc:	31020000 	adds	w0, w0, #0x80
     dd0:	ac000002 	stnp	q2, q0, [x0]
     dd4:	00003509 	udf	#13577
     dd8:	00033800 	.inst	0x00033800 ; undefined
     ddc:	00032800 	.inst	0x00032800 ; undefined
     de0:	021a0200 	.inst	0x021a0200 ; undefined
     de4:	09ad0000 	.inst	0x09ad0000 ; undefined
     de8:	00000035 	udf	#53
     dec:	0000037b 	udf	#891
     df0:	00000377 	udf	#887
     df4:	0001c502 	.inst	0x0001c502 ; undefined
     df8:	3509ae00 	cbnz	w0, 143b8 <__bss_size+0x143a6>
     dfc:	92000000 	and	x0, x0, #0x100000001
     e00:	8e000003 	.inst	0x8e000003 ; undefined
     e04:	17000003 	b	fffffffffc000e10 <__bss_end+0xfffffffffbf7f8f0>
     e08:	000001ab 	udf	#427
     e0c:	04ce0aaf 	.inst	0x04ce0aaf ; undefined
     e10:	91020000 	add	x0, x0, #0x80
     e14:	01ff0e68 	.inst	0x01ff0e68 ; undefined
     e18:	029b0000 	.inst	0x029b0000 ; undefined
     e1c:	69090000 	stgp	x0, x0, [x0, #288]
     e20:	3511b800 	cbnz	w0, 24520 <__bss_size+0x2450e>
     e24:	a7000000 	.inst	0xa7000000 ; undefined
     e28:	a5000003 	ld1rqw	{z3.s}, p0/z, [x0, x0, lsl #2]
     e2c:	00000003 	udf	#3
     e30:	08103028 	stxrb	w16, w8, [x1]
     e34:	00000000 	udf	#0
     e38:	00002000 	udf	#8192
     e3c:	00000000 	udf	#0
     e40:	00031400 	.inst	0x00031400 ; undefined
     e44:	00ea0400 	.inst	0x00ea0400 ; undefined
     e48:	0d8e0000 	st1	{v0.b}[0], [x0], x14
     e4c:	00000035 	udf	#53
     e50:	000002c1 	udf	#705
     e54:	3c160005 	stur	b5, [x0, #-160]
     e58:	00000810 	udf	#2064
     e5c:	5e000000 	sha1c	q0, s0, v0.4s
     e60:	e0000000 	ld1b	{za0h.b[w12, 0]}, p0/z, [x0, x0]
     e64:	07000002 	.inst	0x07000002 ; undefined
     e68:	03095001 	.inst	0x03095001 ; undefined
     e6c:	00081298 	.inst	0x00081298 ; undefined
     e70:	00000000 	udf	#0
     e74:	10441600 	adr	x0, 89134 <__bss_end+0x7c14>
     e78:	00000008 	udf	#8
     e7c:	005e0000 	.inst	0x005e0000 ; undefined
     e80:	02f80000 	.inst	0x02f80000 ; undefined
     e84:	01070000 	.inst	0x01070000 ; undefined
     e88:	00830250 	.inst	0x00830250 ; undefined
     e8c:	10501000 	adr	x0, a108c <__bss_end+0x1fb6c>
     e90:	00000008 	udf	#8
     e94:	005e0000 	.inst	0x005e0000 ; undefined
     e98:	01070000 	.inst	0x01070000 ; undefined
     e9c:	00030950 	.inst	0x00030950 ; undefined
     ea0:	00000813 	udf	#2067
     ea4:	00000000 	udf	#0
     ea8:	02150e00 	.inst	0x02150e00 ; undefined
     eac:	03990000 	.inst	0x03990000 ; undefined
     eb0:	69090000 	stgp	x0, x0, [x0, #288]
     eb4:	3515d700 	cbnz	w0, 2c994 <__bss_size+0x2c982>
     eb8:	b2000000 	orr	x0, x0, #0x100000001
     ebc:	b0000003 	adrp	x3, 1000 <__bss_size+0xfee>
     ec0:	06000003 	.inst	0x06000003 ; undefined
     ec4:	00000220 	udf	#544
     ec8:	00017404 	.inst	0x00017404 ; undefined
     ecc:	35119300 	cbnz	w0, 2412c <__bss_size+0x2411a>
     ed0:	44000000 	.inst	0x44000000 ; undefined
     ed4:	05000003 	orr	z3.s, z3.s, #0x1
     ed8:	0aa70a00 	bic	w0, w16, w7, asr #2
     edc:	0fe00000 	.inst	0x0fe00000 ; undefined
     ee0:	00000008 	udf	#8
     ee4:	30000000 	adr	x0, ee5 <__bss_size+0xed3>
     ee8:	d9000002 	stlur	x2, [x0]
     eec:	00037715 	.inst	0x00037715 ; undefined
     ef0:	0abe0100 	bic	w0, w8, w30, asr #0
     ef4:	03c10000 	.inst	0x03c10000 ; undefined
     ef8:	03bb0000 	.inst	0x03bb0000 ; undefined
     efc:	b5010000 	cbnz	x0, 2efc <__bss_size+0x2eea>
     f00:	e500000a 	.inst	0xe500000a ; undefined
     f04:	d9000003 	stlur	x3, [x0]
     f08:	00000003 	udf	#3
     f0c:	080fdc0c 	stlxrb	w15, w12, [x0]
     f10:	00000000 	udf	#0
     f14:	00004d00 	udf	#19712
     f18:	10741000 	adr	x0, e9118 <__bss_end+0x67bf8>
     f1c:	00000008 	udf	#8
     f20:	004d0000 	.inst	0x004d0000 ; undefined
     f24:	01070000 	.inst	0x01070000 ; undefined
     f28:	003d0150 	.inst	0x003d0150 ; NYI
     f2c:	860a0000 	.inst	0x860a0000 ; undefined
     f30:	b000000a 	adrp	x10, 1000 <__bss_size+0xfee>
     f34:	0000080d 	udf	#2061
     f38:	02000000 	.inst	0x02000000 ; undefined
     f3c:	000001c5 	udf	#453
     f40:	03d20fa7 	.inst	0x03d20fa7 ; undefined
     f44:	94010000 	bl	40f44 <__bss_size+0x40f32>
     f48:	2d00000a 	stp	s10, s0, [x0]
     f4c:	29000004 	stp	w4, w0, [x0]
     f50:	06000004 	.inst	0x06000004 ; undefined
     f54:	000001c5 	udf	#453
     f58:	000a9d03 	.inst	0x000a9d03 ; undefined
     f5c:	00044600 	.inst	0x00044600 ; undefined
     f60:	00043c00 	.inst	0x00043c00 ; undefined
     f64:	0a000000 	and	w0, w0, w0
     f68:	00000a48 	udf	#2632
     f6c:	00080df0 	.inst	0x00080df0 ; undefined
     f70:	00000000 	udf	#0
     f74:	0001d501 	.inst	0x0001d501 ; undefined
     f78:	6405b000 	.inst	0x6405b000 ; undefined
     f7c:	01000004 	.inst	0x01000004 ; undefined
     f80:	00000a71 	udf	#2673
     f84:	00000472 	udf	#1138
     f88:	0000046c 	udf	#1132
     f8c:	000a6601 	.inst	0x000a6601 ; undefined
     f90:	00049200 	.inst	0x00049200 ; undefined
     f94:	00048e00 	.inst	0x00048e00 ; undefined
     f98:	0a5b0100 	and	w0, w8, w27, lsr #0
     f9c:	04a70000 	add	z0.s, z0.s, z7.s
     fa0:	04a30000 	add	z0.s, z0.s, z3.s
     fa4:	52010000 	eor	w0, w0, #0x80000000
     fa8:	bc00000a 	stur	s10, [x0]
     fac:	b6000004 	tbz	x4, #32, fac <__bss_size+0xf9a>
     fb0:	06000004 	.inst	0x06000004 ; undefined
     fb4:	000001d5 	udf	#469
     fb8:	000a7c19 	.inst	0x000a7c19 ; undefined
     fbc:	0a482900 	and	w0, w8, w8, lsr #10
     fc0:	0e000000 	tbl	v0.8b, {v0.16b}, v0.8b
     fc4:	00000008 	udf	#8
     fc8:	002c0000 	.inst	0x002c0000 ; NYI
     fcc:	00000000 	udf	#0
     fd0:	24010000 	cmphs	p0.b, p0/z, z0.b, z1.b
     fd4:	0a710806 	bic	w6, w0, w17, lsr #2
     fd8:	66080000 	.inst	0x66080000 ; undefined
     fdc:	0800000a 	stxrb	w0, w10, [x0]
     fe0:	00000a5b 	udf	#2651
     fe4:	000a5208 	.inst	0x000a5208 ; undefined
     fe8:	0a7c0300 	bic	w0, w24, w28, lsr #0
     fec:	04d70000 	udivr	z0.d, p0/m, z0.d, z0.d
     ff0:	04d50000 	udiv	z0.d, p0/m, z0.d, z0.d
     ff4:	00000000 	udf	#0
     ff8:	0aa70a00 	bic	w0, w16, w7, asr #2
     ffc:	0f440000 	.inst	0x0f440000 ; undefined
    1000:	00000008 	udf	#8
    1004:	e5010000 	.inst	0xe5010000 ; undefined
    1008:	cf000001 	.inst	0xcf000001 ; undefined
    100c:	00049706 	.inst	0x00049706 ; undefined
    1010:	0abe0100 	bic	w0, w8, w30, asr #0
    1014:	04eb0000 	add	z0.d, z0.d, z11.d
    1018:	04df0000 	.inst	0x04df0000 ; undefined
    101c:	b5010000 	cbnz	x0, 301c <__bss_size+0x300a>
    1020:	5c00000a 	ldr	d10, 1020 <__bss_size+0x100e>
    1024:	58000005 	ldr	x5, 1024 <__bss_size+0x1012>
    1028:	00000005 	udf	#5
    102c:	000aa71a 	.inst	0x000aa71a ; undefined
    1030:	00020a00 	.inst	0x00020a00 ; undefined
    1034:	be01d600 	.inst	0xbe01d600 ; undefined
    1038:	6d00000a 	stp	d10, d0, [x0]
    103c:	6b000005 	subs	w5, w0, w0
    1040:	01000005 	.inst	0x01000005 ; undefined
    1044:	00000ab5 	udf	#2741
    1048:	0000057b 	udf	#1403
    104c:	00000575 	udf	#1397
    1050:	c9180000 	.inst	0xc9180000 ; undefined
    1054:	0f000004 	.inst	0x0f000004 ; undefined
    1058:	01b20801 	.inst	0x01b20801 ; undefined
    105c:	c22a0000 	.inst	0xc22a0000 ; undefined
    1060:	1b000004 	madd	w4, w0, w0, w0
    1064:	000000d5 	udf	#213
    1068:	000004de 	udf	#1246
    106c:	0004de1c 	.inst	0x0004de1c ; undefined
    1070:	0f001300 	fmla	v0.4h, v24.4h, v0.h[0]
    1074:	00bd0708 	.inst	0x00bd0708 ; undefined
    1078:	d42b0000 	brk	#0x5800
    107c:	01000000 	.inst	0x01000000 ; undefined
    1080:	0035059e 	.inst	0x0035059e ; NYI
    1084:	0d800000 	st1	{v0.b}[0], [x0], x0
    1088:	00000008 	udf	#8
    108c:	00300000 	.inst	0x00300000 ; NYI
    1090:	00000000 	udf	#0
    1094:	9c010000 	ldr	q0, 3094 <__bss_size+0x3082>
    1098:	0000053d 	udf	#1341
    109c:	0000a90d 	udf	#43277
    10a0:	d0149e00 	adrp	x0, 293c3000 <__bss_end+0x29341ae0>
    10a4:	9d000000 	.inst	0x9d000000 ; undefined
    10a8:	95000005 	bl	40010bc <__bss_end+0x3f7fb9c>
    10ac:	11000005 	add	w5, w0, #0x0
    10b0:	00727473 	.inst	0x00727473 ; undefined
    10b4:	053d079f 	ext	z31.b, z31.b, z28.b, #233
    10b8:	ba060000 	adcs	x0, x0, x6
    10bc:	09000001 	.inst	0x09000001 ; undefined
    10c0:	0aa00069 	bic	w9, w3, w0, asr #0
    10c4:	00000035 	udf	#53
    10c8:	000005c6 	udf	#1478
    10cc:	000005c0 	udf	#1472
    10d0:	d51b0000 	msr	s3_3_c0_c0_0, x0
    10d4:	4d000000 	st1	{v0.b}[8], [x0]
    10d8:	1c000005 	ldr	s5, 10d8 <__bss_size+0x10c6>
    10dc:	000004de 	udf	#1246
    10e0:	6c2c0003 	stnp	d3, d0, [x0, #-320]
    10e4:	66010073 	.inst	0x66010073 ; undefined
    10e8:	00003505 	udf	#13573
    10ec:	080a9000 	stlxrb	w10, w0, [x0]
    10f0:	00000000 	udf	#0
    10f4:	0002f000 	.inst	0x0002f000 ; undefined
    10f8:	00000000 	udf	#0
    10fc:	6a9c0100 	ands	w0, w8, w28, asr #0
    1100:	0d000007 	st1	{v7.b}[0], [x0]
    1104:	000000a9 	udf	#169
    1108:	00d00d66 	.inst	0x00d00d66 ; undefined
    110c:	05eb0000 	.inst	0x05eb0000 ; undefined
    1110:	05df0000 	mov	z0.d, p15/z, #0
    1114:	7e0d0000 	.inst	0x7e0d0000 ; undefined
    1118:	66000001 	.inst	0x66000001 ; undefined
    111c:	0000351c 	udf	#13596
    1120:	00062800 	.inst	0x00062800 ; undefined
    1124:	00061c00 	.inst	0x00061c00 ; undefined
    1128:	00200200 	.inst	0x00200200 ; NYI
    112c:	1d680000 	.inst	0x1d680000 ; undefined
    1130:	000004bd 	udf	#1213
    1134:	00000663 	udf	#1635
    1138:	00000659 	udf	#1625
    113c:	0001e002 	.inst	0x0001e002 ; undefined
    1140:	bd1d6a00 	str	s0, [x16, #7528]
    1144:	b0000004 	adrp	x4, 2000 <__bss_size+0x1fee>
    1148:	a0000006 	.inst	0xa0000006 ; undefined
    114c:	02000006 	.inst	0x02000006 ; undefined
    1150:	0000018a 	udf	#394
    1154:	0035096b 	.inst	0x0035096b ; NYI
    1158:	06fe0000 	.inst	0x06fe0000 ; undefined
    115c:	06f40000 	.inst	0x06f40000 ; undefined
    1160:	31020000 	adds	w0, w0, #0x80
    1164:	6c000002 	stnp	d2, d0, [x0]
    1168:	00003509 	udf	#13577
    116c:	00072d00 	.inst	0x00072d00 ; undefined
    1170:	00072300 	.inst	0x00072300 ; undefined
    1174:	021a1d00 	.inst	0x021a1d00 ; undefined
    1178:	356d0000 	cbnz	w0, db178 <__bss_end+0x59c58>
    117c:	36000000 	tbz	w0, #0, 117c <__bss_size+0x116a>
    1180:	0001c51d 	.inst	0x0001c51d ; undefined
    1184:	00356e00 	.inst	0x00356e00 ; NYI
    1188:	0e5e0000 	.inst	0x0e5e0000 ; undefined
    118c:	0000015a 	udf	#346
    1190:	00000611 	udf	#1553
    1194:	74006909 	.inst	0x74006909 ; undefined
    1198:	00003511 	udf	#13585
    119c:	00075400 	.inst	0x00075400 ; undefined
    11a0:	00075200 	.inst	0x00075200 ; undefined
    11a4:	300e0000 	adr	x0, 1d1a5 <__bss_size+0x1d193>
    11a8:	58000001 	ldr	x1, 11a8 <__bss_size+0x1196>
    11ac:	04000006 	add	z6.b, p0/m, z6.b, z0.b
    11b0:	000000ea 	udf	#234
    11b4:	00350d8e 	.inst	0x00350d8e ; NYI
    11b8:	062b0000 	.inst	0x062b0000 ; undefined
    11bc:	00050000 	.inst	0x00050000 ; undefined
    11c0:	080c7016 	stxrb	w12, w22, [x0]
    11c4:	00000000 	udf	#0
    11c8:	00005e00 	udf	#24064
    11cc:	00064300 	.inst	0x00064300 ; undefined
    11d0:	50010700 	adr	x0, 32b2 <__bss_size+0x32a0>
    11d4:	00008a02 	udf	#35330
    11d8:	080c7810 	stxrb	w12, w16, [x0]
    11dc:	00000000 	udf	#0
    11e0:	00005e00 	udf	#24064
    11e4:	50010700 	adr	x0, 32c6 <__bss_size+0x32b4>
    11e8:	00008502 	udf	#34050
    11ec:	018f0e00 	.inst	0x018f0e00 ; undefined
    11f0:	06dd0000 	.inst	0x06dd0000 ; undefined
    11f4:	69090000 	stgp	x0, x0, [x0, #288]
    11f8:	35159200 	cbnz	w0, 2c438 <__bss_size+0x2c426>
    11fc:	5f000000 	.inst	0x5f000000 ; undefined
    1200:	5d000007 	.inst	0x5d000007 ; undefined
    1204:	06000007 	.inst	0x06000007 ; undefined
    1208:	0000019a 	udf	#410
    120c:	00017404 	.inst	0x00017404 ; undefined
    1210:	35119300 	cbnz	w0, 24470 <__bss_size+0x2445e>
    1214:	88000000 	stxr	w0, w0, [x0]
    1218:	05000006 	orr	z6.s, z6.s, #0x1
    121c:	0aa70a00 	bic	w0, w16, w7, asr #2
    1220:	0cd00000 	ld4	{v0.8b-v3.8b}, [x0], x16
    1224:	00000008 	udf	#8
    1228:	aa000000 	orr	x0, x0, x0
    122c:	94000001 	bl	1230 <__bss_size+0x121e>
    1230:	0006bb15 	.inst	0x0006bb15 ; undefined
    1234:	0abe0100 	bic	w0, w8, w30, asr #0
    1238:	076e0000 	.inst	0x076e0000 ; undefined
    123c:	07680000 	.inst	0x07680000 ; undefined
    1240:	b5010000 	cbnz	x0, 3240 <__bss_size+0x322e>
    1244:	9200000a 	and	x10, x0, #0x100000001
    1248:	86000007 	.inst	0x86000007 ; undefined
    124c:	00000007 	udf	#7
    1250:	080ccc0c 	stlxrb	w12, w12, [x0]
    1254:	00000000 	udf	#0
    1258:	00004d00 	udf	#19712
    125c:	0d741000 	.inst	0x0d741000 ; undefined
    1260:	00000008 	udf	#8
    1264:	004d0000 	.inst	0x004d0000 ; undefined
    1268:	01070000 	.inst	0x01070000 ; undefined
    126c:	003d0150 	.inst	0x003d0150 ; NYI
    1270:	a71e0000 	.inst	0xa71e0000 ; undefined
    1274:	3b00000a 	.inst	0x3b00000a ; undefined
    1278:	8d000001 	.inst	0x8d000001 ; undefined
    127c:	0007070c 	.inst	0x0007070c ; undefined
    1280:	0abe0100 	bic	w0, w8, w30, asr #0
    1284:	07e00000 	.inst	0x07e00000 ; undefined
    1288:	07d60000 	.inst	0x07d60000 ; undefined
    128c:	b5010000 	cbnz	x0, 328c <__bss_size+0x327a>
    1290:	3f00000a 	.inst	0x3f00000a ; undefined
    1294:	3d000008 	str	b8, [x0]
    1298:	00000008 	udf	#8
    129c:	000aa70a 	.inst	0x000aa70a ; undefined
    12a0:	080bcc00 	stlxrb	w11, w0, [x0]
    12a4:	00000000 	udf	#0
    12a8:	01650100 	.inst	0x01650100 ; undefined
    12ac:	0d8a0000 	st1	{v0.b}[0], [x0], x10
    12b0:	0000073a 	udf	#1850
    12b4:	000abe01 	.inst	0x000abe01 ; undefined
    12b8:	00085100 	.inst	0x00085100 ; undefined
    12bc:	00084700 	.inst	0x00084700 ; undefined
    12c0:	0ab50100 	bic	w0, w8, w21, asr #0
    12c4:	08b00000 	.inst	0x08b00000 ; undefined
    12c8:	08ae0000 	.inst	0x08ae0000 ; undefined
    12cc:	1f000000 	fmadd	s0, s0, s0, s0
    12d0:	00000aa7 	udf	#2727
    12d4:	00080c78 	.inst	0x00080c78 ; undefined
    12d8:	00000000 	udf	#0
    12dc:	00017f01 	.inst	0x00017f01 ; undefined
    12e0:	010d9100 	.inst	0x010d9100 ; undefined
    12e4:	00000abe 	udf	#2750
    12e8:	000008bc 	udf	#2236
    12ec:	000008b8 	udf	#2232
    12f0:	000ab501 	.inst	0x000ab501 ; undefined
    12f4:	0008d300 	.inst	0x0008d300 ; undefined
    12f8:	0008cb00 	.inst	0x0008cb00 ; undefined
    12fc:	15000000 	b	40012fc <__bss_end+0x3f7fddc>
    1300:	000001f0 	udf	#496
    1304:	08080059 	stxrb	w8, w25, [x2]
    1308:	00000000 	udf	#0
    130c:	00008800 	udf	#34816
    1310:	00000000 	udf	#0
    1314:	5b9c0100 	.inst	0x5b9c0100 ; undefined
    1318:	2d000008 	stp	s8, s0, [x0]
    131c:	59010073 	stlurh	w19, [x3, #16]
    1320:	0000d017 	udf	#53271
    1324:	09500100 	.inst	0x09500100 ; undefined
    1328:	095b0069 	.inst	0x095b0069 ; undefined
    132c:	00000035 	udf	#53
    1330:	000008fc 	udf	#2300
    1334:	000008f4 	udf	#2292
    1338:	0001c002 	.inst	0x0001c002 ; undefined
    133c:	d50a5c00 	sys	#2, C5, C12, #0, x0
    1340:	1e000000 	.inst	0x1e000000 ; undefined
    1344:	1c000009 	ldr	s9, 1344 <__bss_size+0x1332>
    1348:	0a000009 	and	w9, w0, w0
    134c:	00000a86 	udf	#2694
    1350:	00080808 	.inst	0x00080808 ; undefined
    1354:	00000000 	udf	#0
    1358:	0000e501 	udf	#58625
    135c:	ef165e00 	.inst	0xef165e00 ; undefined
    1360:	01000007 	.inst	0x01000007 ; undefined
    1364:	00000a94 	udf	#2708
    1368:	0000092a 	udf	#2346
    136c:	00000926 	udf	#2342
    1370:	0000e506 	udf	#58630
    1374:	0a9d0300 	and	w0, w24, w29, asr #0
    1378:	09430000 	.inst	0x09430000 ; undefined
    137c:	09390000 	.inst	0x09390000 ; undefined
    1380:	00000000 	udf	#0
    1384:	000a862e 	.inst	0x000a862e ; undefined
    1388:	08083800 	stxrb	w8, w0, [x0]
    138c:	00000000 	udf	#0
    1390:	00001000 	udf	#4096
    1394:	00000000 	udf	#0
    1398:	12600100 	.inst	0x12600100 ; undefined
    139c:	0000081e 	udf	#2078
    13a0:	000a9408 	.inst	0x000a9408 ; undefined
    13a4:	0a9d0300 	and	w0, w24, w29, asr #0
    13a8:	09710000 	.inst	0x09710000 ; undefined
    13ac:	096b0000 	.inst	0x096b0000 ; undefined
    13b0:	2f000000 	.inst	0x2f000000 ; undefined
    13b4:	00000a86 	udf	#2694
    13b8:	00080858 	.inst	0x00080858 ; undefined
    13bc:	00000000 	udf	#0
    13c0:	08085801 	stxrb	w8, w1, [x0]
    13c4:	00000000 	udf	#0
    13c8:	00001000 	udf	#4096
    13cc:	00000000 	udf	#0
    13d0:	0b610100 	.inst	0x0b610100 ; undefined
    13d4:	000a9401 	.inst	0x000a9401 ; undefined
    13d8:	00098b00 	.inst	0x00098b00 ; undefined
    13dc:	00098900 	.inst	0x00098900 ; undefined
    13e0:	0a9d0300 	and	w0, w24, w29, asr #0
    13e4:	099b0000 	.inst	0x099b0000 ; undefined
    13e8:	09930000 	.inst	0x09930000 ; undefined
    13ec:	00000000 	udf	#0
    13f0:	0000cf15 	udf	#53013
    13f4:	09144000 	.inst	0x09144000 ; undefined
    13f8:	00000008 	udf	#8
    13fc:	017c0000 	.inst	0x017c0000 ; undefined
    1400:	00000000 	udf	#0
    1404:	9c010000 	ldr	q0, 3404 <__bss_size+0x33f2>
    1408:	00000a17 	udf	#2583
    140c:	40006e20 	.inst	0x40006e20 ; undefined
    1410:	00002e11 	udf	#11793
    1414:	0009c500 	.inst	0x0009c500 ; undefined
    1418:	0009bb00 	.inst	0x0009bb00 ; undefined
    141c:	65722000 	fmls	z0.h, p0/m, z0.h, z18.h
    1420:	1a400073 	.inst	0x1a400073 ; undefined
    1424:	000000d0 	udf	#208
    1428:	00000a00 	udf	#2560
    142c:	000009f6 	udf	#2550
    1430:	00020f0d 	.inst	0x00020f0d ; undefined
    1434:	35234000 	cbnz	w0, 47c34 <__bss_size+0x47c22>
    1438:	32000000 	orr	w0, w0, #0x1
    143c:	2a00000a 	orr	w10, w0, w0
    1440:	0200000a 	.inst	0x0200000a ; undefined
    1444:	0000023b 	udf	#571
    1448:	00350943 	.inst	0x00350943 ; NYI
    144c:	0a510000 	and	w0, w0, w17, lsr #0
    1450:	0a4f0000 	and	w0, w0, w15, lsr #0
    1454:	a5020000 	ld1rqw	{z0.s}, p0/z, [x0, x2, lsl #2]
    1458:	46000001 	.inst	0x46000001 ; undefined
    145c:	00002e0b 	udf	#11787
    1460:	000a6100 	.inst	0x000a6100 ; undefined
    1464:	000a5900 	.inst	0x000a5900 ; undefined
    1468:	00690900 	.inst	0x00690900 ; undefined
    146c:	0035094a 	.inst	0x0035094a ; NYI
    1470:	0aac0000 	bic	w0, w0, w12, asr #0
    1474:	0aa80000 	bic	w0, w0, w8, asr #0
    1478:	170a0000 	b	fffffffffc281478 <__bss_end+0xfffffffffc1fff58>
    147c:	1800000a 	ldr	w10, 147c <__bss_size+0x146a>
    1480:	00000809 	udf	#2057
    1484:	02000000 	.inst	0x02000000 ; undefined
    1488:	000000f5 	udf	#245
    148c:	09450549 	.inst	0x09450549 ; undefined
    1490:	35010000 	cbnz	w0, 3490 <__bss_size+0x347e>
    1494:	c100000a 	.inst	0xc100000a ; undefined
    1498:	bd00000a 	str	s10, [x0]
    149c:	0100000a 	.inst	0x0100000a ; undefined
    14a0:	00000a2a 	udf	#2602
    14a4:	00000ad6 	udf	#2774
    14a8:	00000ad2 	udf	#2770
    14ac:	000a2101 	.inst	0x000a2101 ; undefined
    14b0:	000aed00 	.inst	0x000aed00 ; undefined
    14b4:	000ae500 	.inst	0x000ae500 ; undefined
    14b8:	00f50600 	.inst	0x00f50600 ; undefined
    14bc:	3e030000 	.inst	0x3e030000 ; undefined
    14c0:	1400000a 	b	14e8 <__bss_size+0x14d6>
    14c4:	0a00000b 	and	w11, w0, w0
    14c8:	0c00000b 	st4	{v11.8b-v14.8b}, [x0]
    14cc:	00080978 	.inst	0x00080978 ; undefined
    14d0:	00000000 	udf	#0
    14d4:	0000076a 	udf	#1898
    14d8:	861e0000 	.inst	0x861e0000 ; undefined
    14dc:	0500000a 	orr	z10.s, z10.s, #0x1
    14e0:	4a000001 	eor	w1, w0, w0
    14e4:	00096d0d 	.inst	0x00096d0d ; undefined
    14e8:	0a940800 	and	w0, w0, w20, asr #2
    14ec:	05060000 	.inst	0x05060000 ; undefined
    14f0:	03000001 	.inst	0x03000001 ; undefined
    14f4:	00000a9d 	udf	#2717
    14f8:	00000b44 	udf	#2884
    14fc:	00000b3c 	udf	#2876
    1500:	c80a0000 	stxr	w10, x0, [x0]
    1504:	b800000a 	stur	w10, [x0]
    1508:	00000809 	udf	#2057
    150c:	02000000 	.inst	0x02000000 ; undefined
    1510:	00000115 	udf	#277
    1514:	09b31953 	.inst	0x09b31953 ; undefined
    1518:	e4010000 	.inst	0xe4010000 ; undefined
    151c:	6b00000a 	subs	w10, w0, w0
    1520:	6500000b 	.inst	0x6500000b ; undefined
    1524:	0100000b 	.inst	0x0100000b ; undefined
    1528:	00000ad9 	udf	#2777
    152c:	00000b85 	udf	#2949
    1530:	00000b83 	udf	#2947
    1534:	00011506 	.inst	0x00011506 ; undefined
    1538:	0aef0300 	bic	w0, w24, w15, ror #0
    153c:	0b940000 	add	w0, w0, w20, asr #0
    1540:	0b8e0000 	add	w0, w0, w14, asr #0
    1544:	00000000 	udf	#0
    1548:	000a171f 	.inst	0x000a171f ; undefined
    154c:	0809ec00 	stlxrb	w9, w0, [x0]
    1550:	00000000 	udf	#0
    1554:	01200000 	.inst	0x01200000 ; undefined
    1558:	09550000 	.inst	0x09550000 ; undefined
    155c:	000a3501 	.inst	0x000a3501 ; undefined
    1560:	000baf00 	.inst	0x000baf00 ; undefined
    1564:	000bab00 	.inst	0x000bab00 ; undefined
    1568:	0a2a0100 	bic	w0, w8, w10
    156c:	0bc40000 	.inst	0x0bc40000 ; undefined
    1570:	0bbe0000 	.inst	0x0bbe0000 ; undefined
    1574:	21010000 	.inst	0x21010000 ; undefined
    1578:	e000000a 	ld1b	{za0h.b[w12, 10]}, p0/z, [x0, x0]
    157c:	da00000b 	sbc	x11, x0, x0
    1580:	0600000b 	.inst	0x0600000b ; undefined
    1584:	00000120 	udf	#288
    1588:	000a3e03 	.inst	0x000a3e03 ; undefined
    158c:	000c0200 	.inst	0x000c0200 ; undefined
    1590:	000bf600 	.inst	0x000bf600 ; undefined
    1594:	0a641400 	bic	w0, w0, w4, lsr #5
    1598:	00000008 	udf	#8
    159c:	076a0000 	.inst	0x076a0000 ; undefined
    15a0:	01070000 	.inst	0x01070000 ; undefined
    15a4:	00700250 	.inst	0x00700250 ; undefined
    15a8:	00000000 	udf	#0
    15ac:	0001d621 	.inst	0x0001d621 ; undefined
    15b0:	0a482e00 	and	w0, w16, w8, lsr #11
    15b4:	780b0000 	sturh	w0, [x0, #176]
    15b8:	35102e00 	cbnz	w0, 21b78 <__bss_size+0x21b66>
    15bc:	0b000000 	add	w0, w0, w0
    15c0:	00727473 	.inst	0x00727473 ; undefined
    15c4:	00d0182e 	.inst	0x00d0182e ; undefined
    15c8:	640b0000 	.inst	0x640b0000 ; undefined
    15cc:	35232e00 	cbnz	w0, 47b8c <__bss_size+0x47b7a>
    15d0:	11000000 	add	w0, w0, #0x0
    15d4:	09300069 	.inst	0x09300069 ; undefined
    15d8:	00000035 	udf	#53
    15dc:	02082100 	.inst	0x02082100 ; undefined
    15e0:	86240000 	.inst	0x86240000 ; undefined
    15e4:	0b00000a 	add	w10, w0, w0
    15e8:	12240073 	and	w19, w3, #0x10000000
    15ec:	000000d0 	udf	#208
    15f0:	0001ab12 	.inst	0x0001ab12 ; undefined
    15f4:	d01e2400 	adrp	x0, 3c483000 <__bss_end+0x3c401ae0>
    15f8:	12000000 	and	w0, w0, #0x1
    15fc:	00000194 	udf	#404
    1600:	00352e24 	.inst	0x00352e24 ; NYI
    1604:	6c0b0000 	stnp	d0, d0, [x0, #176]
    1608:	24006e65 	cmplt	p5.b, p3/z, z19.b, z0.d
    160c:	00003539 	udf	#13625
    1610:	00691100 	.inst	0x00691100 ; undefined
    1614:	00350626 	.inst	0x00350626 ; NYI
    1618:	22000000 	.inst	0x22000000 ; undefined
    161c:	000001f8 	udf	#504
    1620:	00003517 	udf	#13591
    1624:	000aa700 	.inst	0x000aa700 ; undefined
    1628:	00730b00 	.inst	0x00730b00 ; undefined
    162c:	00d01517 	.inst	0x00d01517 ; undefined
    1630:	69110000 	stgp	x0, x0, [x0, #544]
    1634:	35091900 	cbnz	w0, 13954 <__bss_size+0x13942>
    1638:	00000000 	udf	#0
    163c:	0000fe22 	udf	#65058
    1640:	00350d00 	.inst	0x00350d00 ; NYI
    1644:	0ac80000 	and	w0, w0, w8, ror #0
    1648:	610b0000 	.inst	0x610b0000 ; undefined
    164c:	d0120d00 	adrp	x0, 241a3000 <__bss_end+0x24121ae0>
    1650:	0b000000 	add	w0, w0, w0
    1654:	1a0d0062 	adc	w2, w3, w13
    1658:	000000d0 	udf	#208
    165c:	6f703000 	fcmla	v0.8h, v0.8h, v16.h[1], #90
    1660:	03010077 	.inst	0x03010077 ; undefined
    1664:	00003505 	udf	#13573
    1668:	0afc0100 	bic	w0, w8, w28, ror #0
    166c:	db120000 	.inst	0xdb120000 ; undefined
    1670:	03000001 	.inst	0x03000001 ; undefined
    1674:	0000350d 	udf	#13581
    1678:	01ff1200 	.inst	0x01ff1200 ; undefined
    167c:	17030000 	b	fffffffffc0c167c <__bss_end+0xfffffffffc04015c>
    1680:	00000035 	udf	#53
    1684:	0001e931 	.inst	0x0001e931 ; undefined
    1688:	09050100 	.inst	0x09050100 ; undefined
    168c:	00000035 	udf	#53
    1690:	0ac81300 	and	w0, w24, w8, ror #4
    1694:	07200000 	.inst	0x07200000 ; undefined
    1698:	00000008 	udf	#8
    169c:	00200000 	.inst	0x00200000 ; NYI
    16a0:	00000000 	udf	#0
    16a4:	9c010000 	ldr	q0, 36a4 <__bss_size+0x3692>
    16a8:	00000b3f 	udf	#2879
    16ac:	000ad901 	.inst	0x000ad901 ; undefined
    16b0:	000c3700 	.inst	0x000c3700 ; undefined
    16b4:	000c3300 	.inst	0x000c3300 ; undefined
    16b8:	0ae40100 	bic	w0, w8, w4, ror #0
    16bc:	0c480000 	.inst	0x0c480000 ; undefined
    16c0:	0c420000 	.inst	0x0c420000 ; undefined
    16c4:	ef030000 	.inst	0xef030000 ; undefined
    16c8:	5e00000a 	sha1c	q10, s0, v0.4s
    16cc:	5a00000c 	sbc	w12, w0, w0
    16d0:	0000000c 	udf	#12
    16d4:	000aa713 	.inst	0x000aa713 ; undefined
    16d8:	08074000 	stxrb	w7, w0, [x0]
    16dc:	00000000 	udf	#0
    16e0:	00003c00 	udf	#15360
    16e4:	00000000 	udf	#0
    16e8:	759c0100 	.inst	0x759c0100 ; undefined
    16ec:	0100000b 	.inst	0x0100000b ; undefined
    16f0:	00000ab5 	udf	#2741
    16f4:	00000c72 	udf	#3186
    16f8:	00000c6a 	udf	#3178
    16fc:	000abe01 	.inst	0x000abe01 ; undefined
    1700:	000c8f00 	.inst	0x000c8f00 ; undefined
    1704:	000c8b00 	.inst	0x000c8b00 ; undefined
    1708:	86130000 	.inst	0x86130000 ; undefined
    170c:	8000000a 	.inst	0x8000000a ; undefined
    1710:	00000807 	udf	#2055
    1714:	2c000000 	stnp	s0, s0, [x0]
    1718:	00000000 	udf	#0
    171c:	01000000 	.inst	0x01000000 ; undefined
    1720:	000bab9c 	.inst	0x000bab9c ; undefined
    1724:	0a940100 	and	w0, w8, w20, asr #0
    1728:	0ca20000 	.inst	0x0ca20000 ; undefined
    172c:	0c9a0000 	st4	{v0.8b-v3.8b}, [x0], x26
    1730:	9d030000 	.inst	0x9d030000 ; undefined
    1734:	cb00000a 	sub	x10, x0, x0
    1738:	c100000c 	.inst	0xc100000c ; undefined
    173c:	0000000c 	udf	#12
    1740:	000a4813 	.inst	0x000a4813 ; undefined
    1744:	0807b000 	stlxrb	w7, w0, [x0]
    1748:	00000000 	udf	#0
    174c:	00004800 	udf	#18432
    1750:	00000000 	udf	#0
    1754:	269c0100 	.inst	0x269c0100 ; undefined
    1758:	2300000c 	.inst	0x2300000c ; undefined
    175c:	00000a52 	udf	#2642
    1760:	5b235001 	.inst	0x5b235001 ; undefined
    1764:	0100000a 	.inst	0x0100000a ; undefined
    1768:	0a660151 	bic	w17, w10, w6, lsr #0
    176c:	0cf20000 	.inst	0x0cf20000 ; undefined
    1770:	0cec0000 	.inst	0x0cec0000 ; undefined
    1774:	71010000 	subs	w0, w0, #0x40
    1778:	0f00000a 	.inst	0x0f00000a ; undefined
    177c:	0b00000d 	add	w13, w0, w0
    1780:	1900000d 	stlurb	w13, [x0]
    1784:	00000a7c 	udf	#2684
    1788:	000a481a 	.inst	0x000a481a ; undefined
    178c:	0000da00 	udf	#55808
    1790:	71082400 	subs	w0, w0, #0x209
    1794:	0800000a 	stxrb	w0, w10, [x0]
    1798:	00000a66 	udf	#2662
    179c:	000a5b08 	.inst	0x000a5b08 ; undefined
    17a0:	0a520800 	and	w0, w0, w18, lsr #2
    17a4:	da060000 	sbc	x0, x0, x6
    17a8:	03000000 	.inst	0x03000000 ; undefined
    17ac:	00000a7c 	udf	#2684
    17b0:	00000d27 	udf	#3367
    17b4:	00000d21 	udf	#3361
    17b8:	32000000 	orr	w0, w0, #0x1
    17bc:	00000a17 	udf	#2583
    17c0:	00080890 	.inst	0x00080890 ; undefined
    17c4:	00000000 	udf	#0
    17c8:	00000084 	udf	#132
    17cc:	00000000 	udf	#0
    17d0:	21019c01 	.inst	0x21019c01 ; undefined
    17d4:	4700000a 	.inst	0x4700000a ; undefined
    17d8:	3f00000d 	.inst	0x3f00000d ; undefined
    17dc:	0100000d 	.inst	0x0100000d ; undefined
    17e0:	00000a2a 	udf	#2602
    17e4:	00000d68 	udf	#3432
    17e8:	00000d64 	udf	#3428
    17ec:	000a3501 	.inst	0x000a3501 ; undefined
    17f0:	000d7d00 	.inst	0x000d7d00 ; undefined
    17f4:	000d7700 	.inst	0x000d7700 ; undefined
    17f8:	0a3e0300 	bic	w0, w24, w30
    17fc:	0da40000 	st2	{v0.b, v1.b}[0], [x0], x4
    1800:	0d960000 	st1	{v0.b}[0], [x0], x22
    1804:	0c330000 	.inst	0x0c330000 ; undefined
    1808:	00000809 	udf	#2057
    180c:	6a000000 	ands	w0, w0, w0
    1810:	00000007 	udf	#7
	...

Disassembly of section .debug_abbrev:

0000000000000000 <.debug_abbrev>:
   0:	10001101 	adr	x1, 220 <__bss_size+0x20e>
   4:	12011117 	and	w23, w8, #0x8000000f
   8:	1b0e030f 	madd	w15, w24, w14, w0
   c:	130e250e 	sbfiz	w14, w8, #18, #10
  10:	00000005 	udf	#5
  14:	02004901 	.inst	0x02004901 ; undefined
  18:	00187e18 	.inst	0x00187e18 ; undefined
  1c:	01480200 	.inst	0x01480200 ; undefined
  20:	137f017d 	.inst	0x137f017d ; undefined
  24:	00001301 	udf	#4865
  28:	49000503 	.inst	0x49000503 ; undefined
  2c:	04000013 	add	z19.b, p0/m, z19.b, z0.b
  30:	017d0048 	.inst	0x017d0048 ; undefined
  34:	0000137f 	udf	#4991
  38:	3f012e05 	.inst	0x3f012e05 ; undefined
  3c:	3a0e0319 	adcs	w25, w24, w14
  40:	390b3b0b 	strb	w11, [x24, #718]
  44:	193c0621 	.inst	0x193c0621 ; undefined
  48:	00001301 	udf	#4865
  4c:	00001806 	udf	#6150
  50:	012e0700 	.inst	0x012e0700 ; undefined
  54:	0e03193f 	uzp1	v31.8b, v9.8b, v3.8b
  58:	0b3b0b3a 	add	w26, w25, w27, uxtb #2
  5c:	27062139 	.inst	0x27062139 ; undefined
  60:	01193c19 	.inst	0x01193c19 ; undefined
  64:	08000013 	stxrb	w0, w19, [x0]
  68:	0b0b0024 	add	w4, w1, w11
  6c:	0e030b3e 	.inst	0x0e030b3e ; undefined
  70:	21090000 	.inst	0x21090000 ; undefined
  74:	2f134900 	.inst	0x2f134900 ; undefined
  78:	0a00000b 	and	w11, w0, w0
  7c:	13490035 	.inst	0x13490035 ; undefined
  80:	2e0b0000 	ext	v0.8b, v0.8b, v11.8b, #0
  84:	03193f01 	.inst	0x03193f01 ; undefined
  88:	05213a0e 	.inst	0x05213a0e ; undefined
  8c:	21390b3b 	.inst	0x21390b3b ; undefined
  90:	49192705 	.inst	0x49192705 ; undefined
  94:	01193c13 	.inst	0x01193c13 ; undefined
  98:	0c000013 	st4	{v19.8b-v22.8b}, [x0]
  9c:	0e030034 	tbl	v20.8b, {v1.16b}, v3.8b
  a0:	3b01213a 	.inst	0x3b01213a ; undefined
  a4:	0b391921 	.inst	0x0b391921 ; undefined
  a8:	17021349 	b	fffffffffc084dcc <__bss_end+0xfffffffffc0038ac>
  ac:	001742b7 	.inst	0x001742b7 ; undefined
  b0:	01480d00 	.inst	0x01480d00 ; undefined
  b4:	137f017d 	.inst	0x137f017d ; undefined
  b8:	110e0000 	add	w0, w0, #0x380
  bc:	130e2501 	sbfiz	w1, w8, #18, #10
  c0:	1b1f030b 	madd	w11, w24, wzr, w0
  c4:	1117551f 	add	wsp, w8, #0x5d5
  c8:	00171001 	.inst	0x00171001 ; undefined
  cc:	01010f00 	.inst	0x01010f00 ; undefined
  d0:	13011349 	sbfx	w9, w26, #1, #4
  d4:	34100000 	cbz	w0, 200d4 <__bss_size+0x200c2>
  d8:	3a0e0300 	adcs	w0, w24, w14
  dc:	390b3b0b 	strb	w11, [x24, #718]
  e0:	3f13490b 	.inst	0x3f13490b ; undefined
  e4:	00193c19 	.inst	0x00193c19 ; undefined
  e8:	012e1100 	.inst	0x012e1100 ; undefined
  ec:	0803193f 	stxrb	w3, wzr, [x9]
  f0:	0b3b0b3a 	add	w26, w25, w27, uxtb #2
  f4:	19270b39 	.inst	0x19270b39 ; undefined
  f8:	1301193c 	sbfx	w28, w9, #1, #6
  fc:	0f120000 	.inst	0x0f120000 ; undefined
 100:	490b0b00 	.inst	0x490b0b00 ; undefined
 104:	13000013 	sbfx	w19, w0, #0, #1
 108:	0b0b0024 	add	w4, w1, w11
 10c:	08030b3e 	stxrb	w3, w30, [x25]
 110:	2e140000 	ext	v0.8b, v0.8b, v20.8b, #0
 114:	03193f01 	.inst	0x03193f01 ; undefined
 118:	3b0b3a08 	.inst	0x3b0b3a08 ; undefined
 11c:	270b390b 	.inst	0x270b390b ; undefined
 120:	3c134919 	.inst	0x3c134919 ; undefined
 124:	00130119 	.inst	0x00130119 ; undefined
 128:	012e1500 	.inst	0x012e1500 ; undefined
 12c:	0e03193f 	uzp1	v31.8b, v9.8b, v3.8b
 130:	0b3b0b3a 	add	w26, w25, w27, uxtb #2
 134:	01110b39 	.inst	0x01110b39 ; undefined
 138:	18400712 	ldr	w18, 80218 <main+0x1c8>
 13c:	1301197a 	sbfx	w26, w11, #1, #6
 140:	0b160000 	add	w0, w0, w22
 144:	01175501 	.inst	0x01175501 ; undefined
 148:	17000013 	b	fffffffffc000194 <__bss_end+0xfffffffffbf7ec74>
 14c:	0e030034 	tbl	v20.8b, {v1.16b}, v3.8b
 150:	0b3b0b3a 	add	w26, w25, w27, uxtb #2
 154:	13490b39 	.inst	0x13490b39 ; undefined
 158:	00001802 	udf	#6146
 15c:	11010b18 	add	w24, w24, #0x42
 160:	01071201 	.inst	0x01071201 ; undefined
 164:	19000013 	stlurb	w19, [x0]
 168:	08030034 	stxrb	w3, w20, [x1]
 16c:	0b3b0b3a 	add	w26, w25, w27, uxtb #2
 170:	13490b39 	.inst	0x13490b39 ; undefined
 174:	00001802 	udf	#6146
 178:	4901011a 	.inst	0x4901011a ; undefined
 17c:	00000013 	udf	#19
 180:	31003401 	adds	w1, w0, #0xd
 184:	b7170213 	tbnz	x19, #34, ffffffffffffe1c4 <__bss_end+0xfffffffffff7cca4>
 188:	00001742 	udf	#5954
 18c:	49003502 	.inst	0x49003502 ; undefined
 190:	03000013 	.inst	0x03000013 ; undefined
 194:	0b0b0024 	add	w4, w1, w11
 198:	0307213e 	.inst	0x0307213e ; undefined
 19c:	0400000e 	add	z14.b, p0/m, z14.b, z0.b
 1a0:	193f012e 	.inst	0x193f012e ; undefined
 1a4:	213a0e03 	.inst	0x213a0e03 ; undefined
 1a8:	390b3b01 	strb	w1, [x24, #718]
 1ac:	01110621 	.inst	0x01110621 ; undefined
 1b0:	18400712 	ldr	w18, 80290 <main+0x240>
 1b4:	1301197a 	sbfx	w26, w11, #1, #6
 1b8:	1d050000 	.inst	0x1d050000 ; undefined
 1bc:	52133101 	eor	w1, w8, #0x3ffe000
 1c0:	0b42b801 	.inst	0x0b42b801 ; undefined
 1c4:	21581755 	.inst	0x21581755 ; undefined
 1c8:	570b5901 	.inst	0x570b5901 ; undefined
 1cc:	00000521 	udf	#1313
 1d0:	55010b06 	.inst	0x55010b06 ; undefined
 1d4:	07000017 	.inst	0x07000017 ; undefined
 1d8:	0e250111 	saddl	v17.8h, v8.8b, v5.8b
 1dc:	1f030b13 	fmadd	s19, s24, s3, s2
 1e0:	01111f1b 	.inst	0x01111f1b ; undefined
 1e4:	17100712 	b	fffffffffc401e2c <__bss_end+0xfffffffffc38090c>
 1e8:	01080000 	.inst	0x01080000 ; undefined
 1ec:	01134901 	.inst	0x01134901 ; undefined
 1f0:	09000013 	.inst	0x09000013 ; undefined
 1f4:	13490021 	.inst	0x13490021 ; undefined
 1f8:	00000b2f 	udf	#2863
 1fc:	0300340a 	.inst	0x0300340a ; undefined
 200:	3b0b3a0e 	.inst	0x3b0b3a0e ; undefined
 204:	490b390b 	.inst	0x490b390b ; undefined
 208:	3c193f13 	str	b19, [x24, #-109]!
 20c:	0b000019 	add	w25, w0, w0
 210:	13470034 	.inst	0x13470034 ; undefined
 214:	0b390b3a 	add	w26, w25, w25, uxtb #2
 218:	00001802 	udf	#6146
 21c:	3f012e0c 	.inst	0x3f012e0c ; undefined
 220:	3a0e0319 	adcs	w25, w24, w14
 224:	390b3b0b 	strb	w11, [x24, #718]
 228:	2013490b 	.inst	0x2013490b ; undefined
 22c:	0013010b 	.inst	0x0013010b ; undefined
 230:	00340d00 	.inst	0x00340d00 ; NYI
 234:	0b3a0803 	add	w3, w0, w26, uxtb #2
 238:	0b390b3b 	add	w27, w25, w25, uxtb #2
 23c:	00001349 	udf	#4937
 240:	0b00240e 	add	w14, w0, w0, lsl #9
 244:	030b3e0b 	.inst	0x030b3e0b ; undefined
 248:	0f000008 	.inst	0x0f000008 ; undefined
 24c:	1331012e 	.inst	0x1331012e ; undefined
 250:	07120111 	.inst	0x07120111 ; undefined
 254:	197a1840 	.inst	0x197a1840 ; undefined
 258:	01000000 	.inst	0x01000000 ; undefined
 25c:	13310005 	.inst	0x13310005 ; undefined
 260:	42b71702 	.inst	0x42b71702 ; undefined
 264:	02000017 	.inst	0x02000017 ; undefined
 268:	1331011d 	.inst	0x1331011d ; undefined
 26c:	42b80152 	.inst	0x42b80152 ; undefined
 270:	5817550b 	ldr	x11, 2ed10 <__bss_size+0x2ecfe>
 274:	0b590121 	add	w1, w9, w25, lsr #0
 278:	01032157 	.inst	0x01032157 ; undefined
 27c:	03000013 	.inst	0x03000013 ; undefined
 280:	1331011d 	.inst	0x1331011d ; undefined
 284:	42b80152 	.inst	0x42b80152 ; undefined
 288:	5817550b 	ldr	x11, 2ed28 <__bss_size+0x2ed16>
 28c:	0b590121 	add	w1, w9, w25, lsr #0
 290:	00032157 	.inst	0x00032157 ; undefined
 294:	00050400 	.inst	0x00050400 ; undefined
 298:	18021331 	ldr	w17, 44fc <__bss_size+0x44ea>
 29c:	11050000 	add	w0, w0, #0x140
 2a0:	130e2501 	sbfiz	w1, w8, #18, #10
 2a4:	1b1f030b 	madd	w11, w24, wzr, w0
 2a8:	1201111f 	and	wsp, w8, #0x8000000f
 2ac:	00171007 	.inst	0x00171007 ; undefined
 2b0:	012e0600 	.inst	0x012e0600 ; undefined
 2b4:	0e03193f 	uzp1	v31.8b, v9.8b, v3.8b
 2b8:	0b3b0b3a 	add	w26, w25, w27, uxtb #2
 2bc:	01110b39 	.inst	0x01110b39 ; undefined
 2c0:	18400712 	ldr	w18, 803a0 <get_board_revision+0x50>
 2c4:	1301197a 	sbfx	w26, w11, #1, #6
 2c8:	2e070000 	ext	v0.8b, v0.8b, v7.8b, #0
 2cc:	03193f01 	.inst	0x03193f01 ; undefined
 2d0:	3b0b3a0e 	.inst	0x3b0b3a0e ; undefined
 2d4:	270b390b 	.inst	0x270b390b ; undefined
 2d8:	12011119 	and	w25, w8, #0x8000000f
 2dc:	7a184007 	.inst	0x7a184007 ; undefined
 2e0:	00130119 	.inst	0x00130119 ; undefined
 2e4:	00050800 	.inst	0x00050800 ; undefined
 2e8:	0b3a0e03 	add	w3, w16, w26, uxtb #3
 2ec:	0b390b3b 	add	w27, w25, w25, uxtb #2
 2f0:	17021349 	b	fffffffffc085014 <__bss_end+0xfffffffffc003af4>
 2f4:	001742b7 	.inst	0x001742b7 ; undefined
 2f8:	00240900 	.inst	0x00240900 ; NYI
 2fc:	0b3e0b0b 	add	w11, w24, w30, uxtb #2
 300:	00000803 	udf	#2051
 304:	3f012e0a 	.inst	0x3f012e0a ; undefined
 308:	3a080319 	adcs	w25, w24, w8
 30c:	390b3b0b 	strb	w11, [x24, #718]
 310:	2019270b 	.inst	0x2019270b ; undefined
 314:	0013010b 	.inst	0x0013010b ; undefined
 318:	00050b00 	.inst	0x00050b00 ; undefined
 31c:	0b3a0803 	add	w3, w0, w26, uxtb #2
 320:	0b390b3b 	add	w27, w25, w25, uxtb #2
 324:	00001349 	udf	#4937
 328:	0300050c 	.inst	0x0300050c ; undefined
 32c:	3b0b3a0e 	.inst	0x3b0b3a0e ; undefined
 330:	490b390b 	.inst	0x490b390b ; undefined
 334:	0d000013 	st1	{v19.b}[0], [x0]
 338:	0b0b0024 	add	w4, w1, w11
 33c:	0e030b3e 	.inst	0x0e030b3e ; undefined
 340:	2e0e0000 	ext	v0.8b, v0.8b, v14.8b, #0
 344:	11133101 	add	w1, w8, #0x4cc
 348:	40071201 	.inst	0x40071201 ; undefined
 34c:	00197a18 	.inst	0x00197a18 ; undefined
 350:	34010000 	cbz	w0, 2350 <__bss_size+0x233e>
 354:	3a080300 	adcs	w0, w24, w8
 358:	0b3b0121 	add	w1, w9, w27, uxtb
 35c:	13490b39 	.inst	0x13490b39 ; undefined
 360:	42b71702 	.inst	0x42b71702 ; undefined
 364:	02000017 	.inst	0x02000017 ; undefined
 368:	193f012e 	.inst	0x193f012e ; undefined
 36c:	213a0e03 	.inst	0x213a0e03 ; undefined
 370:	390b3b01 	strb	w1, [x24, #718]
 374:	19270621 	.inst	0x19270621 ; undefined
 378:	07120111 	.inst	0x07120111 ; undefined
 37c:	197a1840 	.inst	0x197a1840 ; undefined
 380:	00001301 	udf	#4865
 384:	03000503 	.inst	0x03000503 ; undefined
 388:	01213a08 	.inst	0x01213a08 ; undefined
 38c:	0b390b3b 	add	w27, w25, w25, uxtb #2
 390:	17021349 	b	fffffffffc0850b4 <__bss_end+0xfffffffffc003b94>
 394:	001742b7 	.inst	0x001742b7 ; undefined
 398:	00050400 	.inst	0x00050400 ; undefined
 39c:	17021331 	b	fffffffffc085060 <__bss_end+0xfffffffffc003b40>
 3a0:	001742b7 	.inst	0x001742b7 ; undefined
 3a4:	00240500 	.inst	0x00240500 ; NYI
 3a8:	0b3e0b0b 	add	w11, w24, w30, uxtb #2
 3ac:	00000e03 	udf	#3587
 3b0:	25011106 	cmpge	p6.b, p4/z, z8.b, #1
 3b4:	030b130e 	.inst	0x030b130e ; undefined
 3b8:	111f1b1f 	add	wsp, w24, #0x7c6
 3bc:	10071201 	adr	x1, e5fc <__bss_size+0xe5ea>
 3c0:	07000017 	.inst	0x07000017 ; undefined
 3c4:	1331011d 	.inst	0x1331011d ; undefined
 3c8:	42b80152 	.inst	0x42b80152 ; undefined
 3cc:	5817550b 	ldr	x11, 2ee6c <__bss_size+0x2ee5a>
 3d0:	570b590b 	.inst	0x570b590b ; undefined
 3d4:	0013010b 	.inst	0x0013010b ; undefined
 3d8:	01480800 	.inst	0x01480800 ; undefined
 3dc:	137f017d 	.inst	0x137f017d ; undefined
 3e0:	49090000 	.inst	0x49090000 ; undefined
 3e4:	7e180200 	.inst	0x7e180200 ; undefined
 3e8:	0a000018 	and	w24, w0, w0
 3ec:	0b0b0024 	add	w4, w1, w11
 3f0:	08030b3e 	stxrb	w3, w30, [x25]
 3f4:	1d0b0000 	.inst	0x1d0b0000 ; undefined
 3f8:	55133101 	.inst	0x55133101 ; undefined
 3fc:	590b5817 	.inst	0x590b5817 ; undefined
 400:	010b570b 	.inst	0x010b570b ; undefined
 404:	0c000013 	st4	{v19.8b-v22.8b}, [x0]
 408:	13310005 	.inst	0x13310005 ; undefined
 40c:	1d0d0000 	.inst	0x1d0d0000 ; undefined
 410:	52133101 	eor	w1, w8, #0x3ffe000
 414:	0b42b801 	.inst	0x0b42b801 ; undefined
 418:	07120111 	.inst	0x07120111 ; undefined
 41c:	0b590b58 	add	w24, w26, w25, lsr #2
 420:	00000b57 	udf	#2903
 424:	0b000f0e 	add	w14, w24, w0, lsl #3
 428:	0013490b 	.inst	0x0013490b ; undefined
 42c:	012e0f00 	.inst	0x012e0f00 ; undefined
 430:	0e03193f 	uzp1	v31.8b, v9.8b, v3.8b
 434:	0b3b0b3a 	add	w26, w25, w27, uxtb #2
 438:	13490b39 	.inst	0x13490b39 ; undefined
 43c:	07120111 	.inst	0x07120111 ; undefined
 440:	197a1840 	.inst	0x197a1840 ; undefined
 444:	00001301 	udf	#4865
 448:	3f012e10 	.inst	0x3f012e10 ; undefined
 44c:	3a0e0319 	adcs	w25, w24, w14
 450:	390b3b0b 	strb	w11, [x24, #718]
 454:	2019270b 	.inst	0x2019270b ; undefined
 458:	0013010b 	.inst	0x0013010b ; undefined
 45c:	00051100 	.inst	0x00051100 ; undefined
 460:	0b3a0803 	add	w3, w0, w26, uxtb #2
 464:	0b390b3b 	add	w27, w25, w25, uxtb #2
 468:	00001349 	udf	#4937
 46c:	3f012e12 	.inst	0x3f012e12 ; undefined
 470:	3a0e0319 	adcs	w25, w24, w14
 474:	390b3b0b 	strb	w11, [x24, #718]
 478:	1201110b 	and	w11, w8, #0x8000000f
 47c:	7a184007 	.inst	0x7a184007 ; undefined
 480:	00130119 	.inst	0x00130119 ; undefined
 484:	010b1300 	.inst	0x010b1300 ; undefined
 488:	07120111 	.inst	0x07120111 ; undefined
 48c:	34140000 	cbz	w0, 2848c <__bss_size+0x2847a>
 490:	3a080300 	adcs	w0, w24, w8
 494:	390b3b0b 	strb	w11, [x24, #718]
 498:	0013490b 	.inst	0x0013490b ; undefined
 49c:	012e1500 	.inst	0x012e1500 ; undefined
 4a0:	01111331 	.inst	0x01111331 ; undefined
 4a4:	18400712 	ldr	w18, 80584 <uart_init+0xa4>
 4a8:	0000197a 	udf	#6522
 4ac:	31000516 	adds	w22, w8, #0x1
 4b0:	00180213 	.inst	0x00180213 ; undefined
 4b4:	05010000 	orr	z0.s, z0.s, #0x1
 4b8:	02133100 	.inst	0x02133100 ; undefined
 4bc:	1742b717 	b	fffffffffd0ae118 <__bss_end+0xfffffffffd02cbf8>
 4c0:	34020000 	cbz	w0, 44c0 <__bss_size+0x44ae>
 4c4:	3a0e0300 	adcs	w0, w24, w14
 4c8:	0b3b0121 	add	w1, w9, w27, uxtb
 4cc:	13490b39 	.inst	0x13490b39 ; undefined
 4d0:	42b71702 	.inst	0x42b71702 ; undefined
 4d4:	03000017 	.inst	0x03000017 ; undefined
 4d8:	13310034 	.inst	0x13310034 ; undefined
 4dc:	42b71702 	.inst	0x42b71702 ; undefined
 4e0:	04000017 	add	z23.b, p0/m, z23.b, z0.b
 4e4:	193f012e 	.inst	0x193f012e ; undefined
 4e8:	213a0e03 	.inst	0x213a0e03 ; undefined
 4ec:	390b3b01 	strb	w1, [x24, #718]
 4f0:	3c13490b 	.inst	0x3c13490b ; undefined
 4f4:	00130119 	.inst	0x00130119 ; undefined
 4f8:	00180500 	.inst	0x00180500 ; undefined
 4fc:	0b060000 	add	w0, w0, w6
 500:	00175501 	.inst	0x00175501 ; undefined
 504:	00490700 	.inst	0x00490700 ; undefined
 508:	187e1802 	ldr	w2, fc808 <__bss_end+0x7b2e8>
 50c:	05080000 	.inst	0x05080000 ; undefined
 510:	00133100 	.inst	0x00133100 ; undefined
 514:	00340900 	.inst	0x00340900 ; NYI
 518:	213a0803 	.inst	0x213a0803 ; undefined
 51c:	390b3b01 	strb	w1, [x24, #718]
 520:	0213490b 	.inst	0x0213490b ; undefined
 524:	1742b717 	b	fffffffffd0ae180 <__bss_end+0xfffffffffd02cc60>
 528:	1d0a0000 	.inst	0x1d0a0000 ; undefined
 52c:	52133101 	eor	w1, w8, #0x3ffe000
 530:	0b42b801 	.inst	0x0b42b801 ; undefined
 534:	21581755 	.inst	0x21581755 ; undefined
 538:	570b5901 	.inst	0x570b5901 ; undefined
 53c:	0013010b 	.inst	0x0013010b ; undefined
 540:	00050b00 	.inst	0x00050b00 ; undefined
 544:	213a0803 	.inst	0x213a0803 ; undefined
 548:	390b3b01 	strb	w1, [x24, #718]
 54c:	0013490b 	.inst	0x0013490b ; undefined
 550:	00480c00 	.inst	0x00480c00 ; undefined
 554:	137f017d 	.inst	0x137f017d ; undefined
 558:	050d0000 	.inst	0x050d0000 ; undefined
 55c:	3a0e0300 	adcs	w0, w24, w14
 560:	0b3b0121 	add	w1, w9, w27, uxtb
 564:	13490b39 	.inst	0x13490b39 ; undefined
 568:	42b71702 	.inst	0x42b71702 ; undefined
 56c:	0e000017 	tbl	v23.8b, {v0.16b}, v0.8b
 570:	1755010b 	b	fffffffffd54099c <__bss_end+0xfffffffffd4bf47c>
 574:	00001301 	udf	#4865
 578:	0b00240f 	add	w15, w0, w0, lsl #9
 57c:	030b3e0b 	.inst	0x030b3e0b ; undefined
 580:	1000000e 	adr	x14, 580 <__bss_size+0x56e>
 584:	017d0148 	.inst	0x017d0148 ; undefined
 588:	0000137f 	udf	#4991
 58c:	03003411 	.inst	0x03003411 ; undefined
 590:	01213a08 	.inst	0x01213a08 ; undefined
 594:	0b390b3b 	add	w27, w25, w25, uxtb #2
 598:	00001349 	udf	#4937
 59c:	03000512 	.inst	0x03000512 ; undefined
 5a0:	01213a0e 	.inst	0x01213a0e ; undefined
 5a4:	0b390b3b 	add	w27, w25, w25, uxtb #2
 5a8:	00001349 	udf	#4937
 5ac:	31012e13 	adds	w19, w16, #0x4b
 5b0:	12011113 	and	w19, w8, #0x8000000f
 5b4:	7a184007 	.inst	0x7a184007 ; undefined
 5b8:	00130119 	.inst	0x00130119 ; undefined
 5bc:	01481400 	.inst	0x01481400 ; undefined
 5c0:	0182017d 	.inst	0x0182017d ; undefined
 5c4:	00137f19 	.inst	0x00137f19 ; undefined
 5c8:	012e1500 	.inst	0x012e1500 ; undefined
 5cc:	0e03193f 	uzp1	v31.8b, v9.8b, v3.8b
 5d0:	3b01213a 	.inst	0x3b01213a ; undefined
 5d4:	0621390b 	.inst	0x0621390b ; undefined
 5d8:	01111927 	.inst	0x01111927 ; undefined
 5dc:	18400712 	ldr	w18, 806bc <uart_hex+0x1c>
 5e0:	1301197a 	sbfx	w26, w11, #1, #6
 5e4:	48160000 	stxrh	w22, w0, [x0]
 5e8:	7f017d01 	.inst	0x7f017d01 ; undefined
 5ec:	00130113 	.inst	0x00130113 ; undefined
 5f0:	00341700 	.inst	0x00341700 ; NYI
 5f4:	213a0e03 	.inst	0x213a0e03 ; undefined
 5f8:	390b3b01 	strb	w1, [x24, #718]
 5fc:	0213490b 	.inst	0x0213490b ; undefined
 600:	18000018 	ldr	w24, 600 <__bss_size+0x5ee>
 604:	210b000f 	.inst	0x210b000f ; undefined
 608:	00134908 	.inst	0x00134908 ; undefined
 60c:	00341900 	.inst	0x00341900 ; NYI
 610:	00001331 	udf	#4913
 614:	31011d1a 	adds	w26, w8, #0x47
 618:	58175513 	ldr	x19, 2f0b8 <__bss_size+0x2f0a6>
 61c:	0b590121 	add	w1, w9, w25, lsr #0
 620:	00062157 	.inst	0x00062157 ; undefined
 624:	01011b00 	.inst	0x01011b00 ; undefined
 628:	13011349 	sbfx	w9, w26, #1, #4
 62c:	211c0000 	.inst	0x211c0000 ; undefined
 630:	2f134900 	.inst	0x2f134900 ; undefined
 634:	1d00000b 	.inst	0x1d00000b ; undefined
 638:	0e030034 	tbl	v20.8b, {v1.16b}, v3.8b
 63c:	3b01213a 	.inst	0x3b01213a ; undefined
 640:	0921390b 	.inst	0x0921390b ; undefined
 644:	0b1c1349 	add	w9, w26, w28, lsl #4
 648:	1d1e0000 	.inst	0x1d1e0000 ; undefined
 64c:	55133101 	.inst	0x55133101 ; undefined
 650:	01215817 	.inst	0x01215817 ; undefined
 654:	0b570b59 	add	w25, w26, w23, lsr #2
 658:	00001301 	udf	#4865
 65c:	31011d1f 	cmn	w8, #0x47
 660:	b8015213 	stur	w19, [x16, #21]
 664:	17550b42 	b	fffffffffd54336c <__bss_end+0xfffffffffd4c1e4c>
 668:	59012158 	stlurh	w24, [x10, #18]
 66c:	000b570b 	.inst	0x000b570b ; undefined
 670:	00052000 	.inst	0x00052000 ; undefined
 674:	213a0803 	.inst	0x213a0803 ; undefined
 678:	390b3b01 	strb	w1, [x24, #718]
 67c:	0213490b 	.inst	0x0213490b ; undefined
 680:	1742b717 	b	fffffffffd0ae2dc <__bss_end+0xfffffffffd02cdbc>
 684:	2e210000 	uaddl	v0.8h, v0.8b, v1.8b
 688:	03193f01 	.inst	0x03193f01 ; undefined
 68c:	01213a0e 	.inst	0x01213a0e ; undefined
 690:	21390b3b 	.inst	0x21390b3b ; undefined
 694:	20192706 	.inst	0x20192706 ; undefined
 698:	13010121 	sbfiz	w1, w9, #31, #1
 69c:	2e220000 	uaddl	v0.8h, v0.8b, v2.8b
 6a0:	03193f01 	.inst	0x03193f01 ; undefined
 6a4:	01213a0e 	.inst	0x01213a0e ; undefined
 6a8:	21390b3b 	.inst	0x21390b3b ; undefined
 6ac:	49192705 	.inst	0x49192705 ; undefined
 6b0:	01212013 	.inst	0x01212013 ; undefined
 6b4:	00001301 	udf	#4865
 6b8:	31000523 	adds	w3, w9, #0x1
 6bc:	00180213 	.inst	0x00180213 ; undefined
 6c0:	01112400 	.inst	0x01112400 ; undefined
 6c4:	0b130e25 	add	w5, w17, w19, lsl #3
 6c8:	1f1b1f03 	fmadd	s3, s24, s27, s7
 6cc:	07120111 	.inst	0x07120111 ; undefined
 6d0:	00001710 	udf	#5904
 6d4:	0b002425 	add	w5, w1, w0, lsl #9
 6d8:	030b3e0b 	.inst	0x030b3e0b ; undefined
 6dc:	26000008 	.inst	0x26000008 ; undefined
 6e0:	193f012e 	.inst	0x193f012e ; undefined
 6e4:	0b3a0e03 	add	w3, w16, w26, uxtb #3
 6e8:	0b390b3b 	add	w27, w25, w25, uxtb #2
 6ec:	07120111 	.inst	0x07120111 ; undefined
 6f0:	197a1840 	.inst	0x197a1840 ; undefined
 6f4:	00001301 	udf	#4865
 6f8:	3f012e27 	.inst	0x3f012e27 ; undefined
 6fc:	3a080319 	adcs	w25, w24, w8
 700:	390b3b0b 	strb	w11, [x24, #718]
 704:	1119270b 	add	w11, w24, #0x649
 708:	40071201 	.inst	0x40071201 ; undefined
 70c:	01197a18 	.inst	0x01197a18 ; undefined
 710:	28000013 	stnp	w19, w0, [x0]
 714:	0111010b 	.inst	0x0111010b ; undefined
 718:	13010712 	sbfx	w18, w24, #1, #1
 71c:	1d290000 	.inst	0x1d290000 ; undefined
 720:	11133101 	add	w1, w8, #0x4cc
 724:	58071201 	ldr	x1, e964 <__bss_size+0xe952>
 728:	570b590b 	.inst	0x570b590b ; undefined
 72c:	2a00000b 	orr	w11, w0, w0
 730:	13490035 	.inst	0x13490035 ; undefined
 734:	2e2b0000 	uaddl	v0.8h, v0.8b, v11.8b
 738:	03193f01 	.inst	0x03193f01 ; undefined
 73c:	3b0b3a0e 	.inst	0x3b0b3a0e ; undefined
 740:	270b390b 	.inst	0x270b390b ; undefined
 744:	11134919 	add	w25, w8, #0x4d2
 748:	40071201 	.inst	0x40071201 ; undefined
 74c:	01197a18 	.inst	0x01197a18 ; undefined
 750:	2c000013 	stnp	s19, s0, [x0]
 754:	193f012e 	.inst	0x193f012e ; undefined
 758:	0b3a0803 	add	w3, w0, w26, uxtb #2
 75c:	0b390b3b 	add	w27, w25, w25, uxtb #2
 760:	13491927 	.inst	0x13491927 ; undefined
 764:	07120111 	.inst	0x07120111 ; undefined
 768:	197a1840 	.inst	0x197a1840 ; undefined
 76c:	00001301 	udf	#4865
 770:	0300052d 	.inst	0x0300052d ; undefined
 774:	3b0b3a08 	.inst	0x3b0b3a08 ; undefined
 778:	490b390b 	.inst	0x490b390b ; undefined
 77c:	00180213 	.inst	0x00180213 ; undefined
 780:	011d2e00 	.inst	0x011d2e00 ; undefined
 784:	01111331 	.inst	0x01111331 ; undefined
 788:	0b580712 	add	w18, w24, w24, lsr #1
 78c:	0b570b59 	add	w25, w26, w23, lsr #2
 790:	00001301 	udf	#4865
 794:	31011d2f 	adds	w15, w9, #0x47
 798:	b8015213 	stur	w19, [x16, #21]
 79c:	01110b42 	.inst	0x01110b42 ; undefined
 7a0:	0b580712 	add	w18, w24, w24, lsr #1
 7a4:	0b570b59 	add	w25, w26, w23, lsr #2
 7a8:	2e300000 	uaddl	v0.8h, v0.8b, v16.8b
 7ac:	03193f01 	.inst	0x03193f01 ; undefined
 7b0:	3b0b3a08 	.inst	0x3b0b3a08 ; undefined
 7b4:	270b390b 	.inst	0x270b390b ; undefined
 7b8:	20134919 	.inst	0x20134919 ; undefined
 7bc:	0013010b 	.inst	0x0013010b ; undefined
 7c0:	00343100 	.inst	0x00343100 ; NYI
 7c4:	0b3a0e03 	add	w3, w16, w26, uxtb #3
 7c8:	0b390b3b 	add	w27, w25, w25, uxtb #2
 7cc:	00001349 	udf	#4937
 7d0:	31012e32 	adds	w18, w17, #0x4b
 7d4:	12011113 	and	w19, w8, #0x8000000f
 7d8:	7a184007 	.inst	0x7a184007 ; undefined
 7dc:	33000019 	bfxil	w25, w0, #0, #1
 7e0:	017d0048 	.inst	0x017d0048 ; undefined
 7e4:	7f190182 	.inst	0x7f190182 ; undefined
 7e8:	00000013 	udf	#19

Disassembly of section .debug_aranges:

0000000000000000 <.debug_aranges>:
   0:	0000002c 	udf	#44
   4:	00000002 	udf	#2
   8:	00080000 	.inst	0x00080000 ; undefined
   c:	00000000 	udf	#0
  10:	00080000 	.inst	0x00080000 ; undefined
  14:	00000000 	udf	#0
  18:	00000050 	udf	#80
	...
  30:	0000002c 	udf	#44
  34:	00280002 	.inst	0x00280002 ; NYI
  38:	00080000 	.inst	0x00080000 ; undefined
  3c:	00000000 	udf	#0
  40:	00080050 	.inst	0x00080050 ; undefined
  44:	00000000 	udf	#0
  48:	00000290 	udf	#656
	...
  60:	0000002c 	udf	#44
  64:	06b00002 	.inst	0x06b00002 ; undefined
  68:	00080000 	.inst	0x00080000 ; undefined
  6c:	00000000 	udf	#0
  70:	000802e0 	.inst	0x000802e0 ; undefined
  74:	00000000 	udf	#0
  78:	00000194 	udf	#404
	...
  90:	0000002c 	udf	#44
  94:	07f20002 	.inst	0x07f20002 ; undefined
  98:	00080000 	.inst	0x00080000 ; undefined
  9c:	00000000 	udf	#0
  a0:	00080480 	.inst	0x00080480 ; undefined
  a4:	00000000 	udf	#0
  a8:	00000060 	udf	#96
	...
  c0:	0000002c 	udf	#44
  c4:	098d0002 	.inst	0x098d0002 ; undefined
  c8:	00080000 	.inst	0x00080000 ; undefined
  cc:	00000000 	udf	#0
  d0:	000804e0 	.inst	0x000804e0 ; undefined
  d4:	00000000 	udf	#0
  d8:	00000234 	udf	#564
	...
  f0:	0000002c 	udf	#44
  f4:	0b950002 	add	w2, w0, w21, asr #0
  f8:	00080000 	.inst	0x00080000 ; undefined
  fc:	00000000 	udf	#0
 100:	00080720 	.inst	0x00080720 ; undefined
 104:	00000000 	udf	#0
 108:	000009ec 	udf	#2540
	...

Disassembly of section .debug_str:

0000000000000000 <.debug_str>:
   0:	72617473 	.inst	0x72617473 ; undefined
   4:	00532e74 	.inst	0x00532e74 ; undefined
   8:	6d6f682f 	ldp	d15, d26, [x1, #-272]
   c:	61792f65 	.inst	0x61792f65 ; undefined
  10:	72702f6f 	.inst	0x72702f6f ; undefined
  14:	63656a6f 	.inst	0x63656a6f ; undefined
  18:	4f2f7374 	.inst	0x4f2f7374 ; undefined
  1c:	2f494453 	.inst	0x2f494453 ; undefined
  20:	6e72656b 	umax	v11.8h, v11.8h, v18.8h
  24:	47006c65 	.inst	0x47006c65 ; undefined
  28:	4120554e 	.inst	0x4120554e ; undefined
  2c:	2e322053 	usubl	v19.8h, v2.8b, v18.8b
  30:	47003833 	.inst	0x47003833 ; undefined
  34:	4320554e 	.inst	0x4320554e ; undefined
  38:	31203731 	adds	w17, w25, #0x80d
  3c:	2e342e31 	uqsub	v17.8b, v17.8b, v20.8b
  40:	6d2d2030 	stp	d16, d8, [x1, #-304]
  44:	7474696c 	.inst	0x7474696c ; undefined
  48:	652d656c 	.inst	0x652d656c ; undefined
  4c:	6169646e 	.inst	0x6169646e ; undefined
  50:	6d2d206e 	stp	d14, d8, [x3, #-304]
  54:	3d696261 	ldr	b1, [x19, #2648]
  58:	3436706c 	cbz	w12, 6ce64 <__bss_size+0x6ce52>
  5c:	20672d20 	.inst	0x20672d20 ; undefined
  60:	20324f2d 	.inst	0x20324f2d ; undefined
  64:	7266662d 	.inst	0x7266662d ; undefined
  68:	74736565 	.inst	0x74736565 ; undefined
  6c:	69646e61 	ldpsw	x1, x27, [x19, #-224]
  70:	2d20676e 	stp	s14, s25, [x27, #-256]
  74:	79736166 	ldrh	w6, [x11, #6576]
  78:	7268636e 	.inst	0x7268636e ; undefined
  7c:	756f6e6f 	.inst	0x756f6e6f ; undefined
  80:	6e752d73 	uqsub	v19.8h, v11.8h, v21.8h
  84:	646e6977 	.inst	0x646e6977 ; undefined
  88:	6261742d 	.inst	0x6261742d ; undefined
  8c:	2073656c 	.inst	0x2073656c ; undefined
  90:	7473662d 	.inst	0x7473662d ; undefined
  94:	2d6b6361 	ldp	s1, s24, [x27, #-168]
  98:	73616c63 	.inst	0x73616c63 ; undefined
  9c:	72702d68 	.inst	0x72702d68 ; undefined
  a0:	6365746f 	.inst	0x6365746f ; undefined
  a4:	6e6f6974 	.inst	0x6e6f6974 ; undefined
  a8:	706e6900 	adr	x0, dcdcb <__bss_end+0x5b8ab>
  ac:	70007475 	adr	x21, f3b <__bss_size+0xf29>
  b0:	746e6972 	.inst	0x746e6972 ; undefined
  b4:	6c65775f 	ldnp	d31, d29, [x26, #-432]
  b8:	656d6f63 	fnmls	z3.h, p3/m, z27.h, z13.h
  bc:	6e6f6c00 	umin	v0.8h, v0.8h, v15.8h
  c0:	6e752067 	usubl2	v7.4s, v3.8h, v21.8h
  c4:	6e676973 	.inst	0x6e676973 ; undefined
  c8:	69206465 	stgp	x5, x25, [x3, #-1024]
  cc:	6600746e 	.inst	0x6600746e ; undefined
  d0:	00616f74 	.inst	0x00616f74 ; undefined
  d4:	63656863 	.inst	0x63656863 ; undefined
  d8:	7461636b 	.inst	0x7461636b ; undefined
  dc:	69616d00 	ldpsw	x0, x27, [x8, #-248]
  e0:	616d006e 	.inst	0x616d006e ; undefined
  e4:	6f626c69 	.inst	0x6f626c69 ; undefined
  e8:	61750078 	.inst	0x61750078 ; undefined
  ec:	705f7472 	adr	x18, bef7b <__bss_end+0x3da5b>
  f0:	00737475 	.inst	0x00737475 ; undefined
  f4:	74726175 	.inst	0x74726175 ; undefined
  f8:	696e695f 	ldpsw	xzr, x26, [x10, #-144]
  fc:	74730074 	.inst	0x74730074 ; undefined
 100:	706d6372 	adr	x18, dad6f <__bss_end+0x5984f>
 104:	746e6300 	.inst	0x746e6300 ; undefined
 108:	6370745f 	.inst	0x6370745f ; undefined
 10c:	6e630074 	uaddl2	v20.4s, v3.8h, v3.8h
 110:	72665f74 	.inst	0x72665f74 ; undefined
 114:	66007165 	.inst	0x66007165 ; undefined
 118:	74616f6c 	.inst	0x74616f6c ; undefined
 11c:	74656700 	.inst	0x74656700 ; undefined
 120:	6d72615f 	ldp	d31, d24, [x10, #-224]
 124:	6d656d5f 	ldp	d31, d27, [x10, #-432]
 128:	65687300 	fnmls	z0.h, p4/m, z24.h, z8.h
 12c:	67006c6c 	.inst	0x67006c6c ; undefined
 130:	625f7465 	.inst	0x625f7465 ; undefined
 134:	6472616f 	.inst	0x6472616f ; undefined
 138:	7665725f 	.inst	0x7665725f ; undefined
 13c:	6f697369 	fcmla	v9.8h, v27.8h, v9.h[1], #270
 140:	6175006e 	.inst	0x6175006e ; undefined
 144:	685f7472 	.inst	0x685f7472 ; undefined
 148:	63007865 	.inst	0x63007865 ; undefined
 14c:	65636e61 	fnmls	z1.h, p3/m, z19.h, z3.h
 150:	65725f6c 	fnmla	z12.h, p7/m, z27.h, z18.h
 154:	00746573 	.inst	0x00746573 ; undefined
 158:	6c69616d 	ldnp	d13, d24, [x11, #-368]
 15c:	5f786f62 	.inst	0x5f786f62 ; undefined
 160:	6c6c6163 	ldnp	d3, d24, [x11, #-320]
 164:	63697400 	.inst	0x63697400 ; undefined
 168:	6175006b 	.inst	0x6175006b ; undefined
 16c:	675f7472 	.inst	0x675f7472 ; undefined
 170:	00637465 	.inst	0x00637465 ; undefined
 174:	74726175 	.inst	0x74726175 ; undefined
 178:	6e65735f 	uabdl2	v31.4s, v26.8h, v5.8h
 17c:	65720064 	fmla	z4.h, p0/m, z3.h, z18.h
 180:	6f636461 	sqshlu	v1.2d, v3.2d, #35
 184:	6e65746e 	uabd	v14.8h, v3.8h, v5.8h
 188:	69660074 	ldpsw	x20, x0, [x3, #-208]
 18c:	735f656c 	.inst	0x735f656c ; undefined
 190:	00657a69 	.inst	0x00657a69 ; undefined
 194:	72617473 	.inst	0x72617473 ; undefined
 198:	65680074 	fmla	z20.h, p0/m, z3.h, z8.h
 19c:	776f6c6c 	.inst	0x776f6c6c ; undefined
 1a0:	646c726f 	.inst	0x646c726f ; undefined
 1a4:	61706600 	.inst	0x61706600 ; undefined
 1a8:	74007472 	.inst	0x74007472 ; undefined
 1ac:	65677261 	fnmls	z1.h, p4/m, z19.h, z7.h
 1b0:	6e750074 	uaddl2	v20.4s, v3.8h, v21.8h
 1b4:	6e676973 	.inst	0x6e676973 ; undefined
 1b8:	63206465 	.inst	0x63206465 ; undefined
 1bc:	00726168 	.inst	0x00726168 ; undefined
 1c0:	706d6574 	adr	x20, dae6f <__bss_end+0x5994f>
 1c4:	6d616e00 	ldp	d0, d27, [x16, #-496]
 1c8:	69735f65 	ldpsw	x5, x23, [x27, #-104]
 1cc:	6f5f657a 	sqshlu	v26.2d, v11.2d, #31
 1d0:	65736666 	fnmls	z6.h, p1/m, z19.h, z19.h
 1d4:	74690074 	.inst	0x74690074 ; undefined
 1d8:	6200616f 	.inst	0x6200616f ; undefined
 1dc:	00657361 	.inst	0x00657361 ; undefined
 1e0:	656c6966 	fnmls	z6.h, p2/m, z11.h, z12.h
 1e4:	656d616e 	fnmls	z14.h, p0/m, z11.h, z13.h
 1e8:	73657200 	.inst	0x73657200 ; undefined
 1ec:	00746c75 	.inst	0x00746c75 ; undefined
 1f0:	65766572 	fnmls	z18.h, p1/m, z11.h, z22.h
 1f4:	00657372 	.inst	0x00657372 ; undefined
 1f8:	6c727473 	ldnp	d19, d29, [x3, #-224]
 1fc:	65006e65 	.inst	0x65006e65 ; undefined
 200:	6e6f7078 	uabdl2	v24.4s, v3.8h, v15.8h
 204:	00746e65 	.inst	0x00746e65 ; undefined
 208:	73627573 	.inst	0x73627573 ; undefined
 20c:	61007274 	.inst	0x61007274 ; undefined
 210:	72657466 	.inst	0x72657466 ; undefined
 214:	6e696f70 	umin	v16.8h, v27.8h, v9.8h
 218:	69660074 	ldpsw	x20, x0, [x3, #-208]
 21c:	735f656c 	.inst	0x735f656c ; undefined
 220:	5f657a69 	sqdmlsl	s9, h19, v5.h[6]
 224:	7366666f 	.inst	0x7366666f ; undefined
 228:	69007465 	stgp	x5, x29, [x3]
 22c:	7865646e 	.inst	0x7865646e ; undefined
 230:	6d616e00 	ldp	d0, d27, [x16, #-496]
 234:	69735f65 	ldpsw	x5, x23, [x27, #-104]
 238:	6900657a 	stgp	x26, x25, [x11]
 23c:	74726170 	.inst	0x74726170 ; undefined
	...

Disassembly of section .debug_loclists:

0000000000000000 <.debug_loclists>:
   0:	00000026 	udf	#38
   4:	00080005 	.inst	0x00080005 ; undefined
   8:	00000000 	udf	#0
   c:	54080000 	b.eq	1000c <__bss_size+0xfffa>  // b.none
  10:	00000801 	udf	#2049
  14:	10000000 	adr	x0, 14 <__bss_size+0x2>
  18:	00005001 	udf	#20481
  1c:	01540800 	.inst	0x01540800 ; undefined
  20:	00000008 	udf	#8
  24:	010c0000 	.inst	0x010c0000 ; undefined
  28:	00240051 	.inst	0x00240051 ; NYI
  2c:	00050000 	.inst	0x00050000 ; undefined
  30:	00000008 	udf	#8
  34:	00000000 	udf	#0
  38:	9002c404 	adrp	x4, 5880000 <__bss_end+0x57feae0>
  3c:	00520103 	.inst	0x00520103 ; undefined
  40:	b0040003 	adrp	x3, 8001000 <__bss_end+0x7f7fae0>
  44:	0101f801 	.inst	0x0101f801 ; undefined
  48:	00000052 	udf	#82
  4c:	01701004 	.inst	0x01701004 ; undefined
  50:	00910052 	.inst	0x00910052 ; undefined
  54:	00050000 	.inst	0x00050000 ; undefined
  58:	00000008 	udf	#8
  5c:	00020000 	.inst	0x00020000 ; undefined
  60:	05584004 	mov	z4.h, p8/m, #0
  64:	2447b408 	cmpeq	p8.h, p5/z, z0.h, z7.h
  68:	0002009f 	.inst	0x0002009f ; undefined
  6c:	06584004 	.inst	0x06584004 ; undefined
  70:	10001c0c 	adr	x12, 3f0 <__bss_size+0x3de>
  74:	02009f3f 	.inst	0x02009f3f ; undefined
  78:	5c580400 	ldr	d0, b00f8 <__bss_end+0x2ebd8>
  7c:	47b40805 	.inst	0x47b40805 ; undefined
  80:	02009f24 	.inst	0x02009f24 ; undefined
  84:	5c580400 	ldr	d0, b0104 <__bss_end+0x2ebe4>
  88:	00240c06 	.inst	0x00240c06 ; NYI
  8c:	009f3f10 	.inst	0x009f3f10 ; undefined
  90:	00000000 	udf	#0
  94:	01341004 	.inst	0x01341004 ; undefined
  98:	3c340450 	.inst	0x3c340450 ; undefined
  9c:	5001a304 	adr	x4, 34fe <__bss_size+0x34ec>
  a0:	0002009f 	.inst	0x0002009f ; undefined
  a4:	06301004 	.inst	0x06301004 ; undefined
  a8:	0000200c 	udf	#8204
  ac:	02009f5a 	.inst	0x02009f5a ; undefined
  b0:	30100400 	adr	x0, 20131 <__bss_size+0x2011f>
  b4:	001c0c06 	.inst	0x001c0c06 ; undefined
  b8:	009f3f10 	.inst	0x009f3f10 ; undefined
  bc:	00000002 	udf	#2
  c0:	08343004 	.inst	0x08343004 ; undefined
  c4:	b4080070 	cbz	x16, 100d0 <__bss_size+0x100be>
  c8:	9f212447 	.inst	0x9f212447 ; undefined
  cc:	09383404 	.inst	0x09383404 ; undefined
  d0:	085001a3 	ldxrb	w3, [x13]
  d4:	212447b4 	.inst	0x212447b4 ; undefined
  d8:	0002009f 	.inst	0x0002009f ; undefined
  dc:	06383004 	.inst	0x06383004 ; undefined
  e0:	1000240c 	adr	x12, 560 <__bss_size+0x54e>
  e4:	ee009f3f 	.inst	0xee009f3f ; undefined
  e8:	05000000 	orr	z0.s, z0.s, #0x1
  ec:	00000800 	udf	#2048
  f0:	00000000 	udf	#0
  f4:	04000000 	add	z0.b, p0/m, z0.b, z0.b
  f8:	03d403c0 	.inst	0x03d403c0 ; undefined
  fc:	d4045001 	svc	#0x2280
 100:	0104b403 	.inst	0x0104b403 ; undefined
 104:	00000056 	udf	#86
 108:	80040000 	.inst	0x80040000 ; undefined
 10c:	01048c04 	.inst	0x01048c04 ; undefined
 110:	048c0451 	sabd	z17.s, p1/m, z17.s, z2.s
 114:	540104b4 	bc.mi	21a8 <__bss_size+0x2196>  // bc.first
 118:	00000100 	udf	#256
 11c:	02020000 	.inst	0x02020000 ; undefined
 120:	03d80400 	.inst	0x03d80400 ; undefined
 124:	4c0203f4 	.inst	0x4c0203f4 ; undefined
 128:	03f4049f 	.inst	0x03f4049f ; undefined
 12c:	530104a0 	ubfx	w0, w5, #1, #1
 130:	a404a004 	ld1b	{z4.b}, p0/z, [x0, #4, mul vl]
 134:	04730304 	add	z4.h, z24.h, z19.h
 138:	04a4049f 	sub	z31.s, z4.s, z4.s
 13c:	530104b4 	ubfx	w20, w5, #1, #1
 140:	04000100 	add	z0.b, p0/m, z0.b, z8.b
 144:	04a4048c 	sub	z12.s, z4.s, z4.s
 148:	00005401 	udf	#21505
 14c:	00000101 	udf	#257
 150:	02e00400 	.inst	0x02e00400 ; undefined
 154:	50010388 	adr	x8, 21c6 <__bss_size+0x21b4>
 158:	8c038804 	.inst	0x8c038804 ; undefined
 15c:	01700303 	.inst	0x01700303 ; undefined
 160:	038c049f 	.inst	0x038c049f ; undefined
 164:	500103c0 	adr	x0, 21de <__bss_size+0x21cc>
 168:	04000000 	add	z0.b, p0/m, z0.b, z0.b
 16c:	03a0038c 	.inst	0x03a0038c ; undefined
 170:	00005301 	udf	#21249
 174:	02d00400 	.inst	0x02d00400 ; undefined
 178:	500102d8 	adr	x24, 21d2 <__bss_size+0x21c0>
 17c:	03030100 	.inst	0x03030100 ; undefined
 180:	00000101 	udf	#257
 184:	03030100 	.inst	0x03030100 ; undefined
 188:	00000101 	udf	#257
 18c:	00000000 	udf	#0
 190:	10100400 	adr	x0, 20210 <__bss_size+0x201fe>
 194:	9f960803 	.inst	0x9f960803 ; undefined
 198:	03141004 	.inst	0x03141004 ; undefined
 19c:	049f7f70 	mls	z16.s, p7/m, z27.s, z31.s
 1a0:	70031814 	adr	x20, 64a3 <__bss_size+0x6491>
 1a4:	18049f7e 	ldr	w30, 9590 <__bss_size+0x957e>
 1a8:	7f70032c 	.inst	0x7f70032c ; undefined
 1ac:	3030049f 	adr	xzr, 6023d <__bss_size+0x6022b>
 1b0:	9f960803 	.inst	0x9f960803 ; undefined
 1b4:	03343004 	.inst	0x03343004 ; undefined
 1b8:	049f7f70 	mls	z16.s, p7/m, z27.s, z31.s
 1bc:	70033834 	adr	x20, 68c3 <__bss_size+0x68b1>
 1c0:	38049f7e 	strb	w30, [x27, #73]!
 1c4:	7f700340 	.inst	0x7f700340 ; undefined
 1c8:	01c8049f 	.inst	0x01c8049f ; undefined
 1cc:	500101dc 	adr	x28, 2206 <__bss_size+0x21f4>
 1d0:	e401dc04 	st1b	{z4.d}, p7, [x0, z1.d, sxtw]
 1d4:	00720201 	.inst	0x00720201 ; undefined
 1d8:	000bff00 	.inst	0x000bff00 ; undefined
 1dc:	08000500 	stxrb	w0, w0, [x8]
	...
 1e8:	04000000 	add	z0.b, p0/m, z0.b, z0.b
 1ec:	138312f0 	extr	w16, w23, w3, #4
 1f0:	83045001 	.inst	0x83045001 ; undefined
 1f4:	01139813 	.inst	0x01139813 ; undefined
 1f8:	13980463 	extr	w3, w3, w24, #1
 1fc:	a30413d8 	.inst	0xa30413d8 ; undefined
 200:	009f5001 	.inst	0x009f5001 ; undefined
 204:	00000001 	udf	#1
 208:	00020000 	.inst	0x00020000 ; undefined
 20c:	80040000 	.inst	0x80040000 ; undefined
 210:	06138313 	.inst	0x06138313 ; undefined
 214:	00700083 	.inst	0x00700083 ; undefined
 218:	83049f1c 	.inst	0x83049f1c ; undefined
 21c:	02138413 	.inst	0x02138413 ; undefined
 220:	84049f30 	ldnt1sb	{z16.s}, p7/z, [z25.s, x4]
 224:	02139813 	.inst	0x02139813 ; undefined
 228:	a0049f31 	.inst	0xa0049f31 ; undefined
 22c:	0713a413 	.inst	0x0713a413 ; undefined
 230:	01a30083 	.inst	0x01a30083 ; undefined
 234:	049f1c50 	.inst	0x049f1c50 ; undefined
 238:	13b813a4 	.inst	0x13b813a4 ; undefined
 23c:	a3008309 	.inst	0xa3008309 ; undefined
 240:	231c5001 	.inst	0x231c5001 ; undefined
 244:	00009f01 	udf	#40705
 248:	04000000 	add	z0.b, p0/m, z0.b, z0.b
 24c:	139f1388 	extr	w8, w28, wzr, #4
 250:	a8045201 	stnp	x1, x20, [x16, #64]
 254:	0113c313 	.inst	0x0113c313 ; undefined
 258:	00000052 	udf	#82
 25c:	00000000 	udf	#0
 260:	840d9004 	ldnt1sb	{z4.s}, p4/z, [z0.s, x13]
 264:	0450010e 	mul	z14.h, p0/m, z14.h, z8.h
 268:	12e00e84 	.inst	0x12e00e84 ; undefined
 26c:	5001a304 	adr	x4, 36ce <__bss_size+0x36bc>
 270:	12e0049f 	.inst	0x12e0049f ; undefined
 274:	500112f0 	adr	x16, 24d2 <__bss_size+0x24c0>
 278:	00000100 	udf	#256
 27c:	04000200 	add	z0.b, p0/m, z0.b, z16.b
 280:	0e880dc4 	.inst	0x0e880dc4 ; undefined
 284:	88045401 	stxr	w4, w1, [x0]
 288:	030e8c0e 	.inst	0x030e8c0e ; undefined
 28c:	049f0173 	.inst	0x049f0173 ; undefined
 290:	12f012e0 	.inst	0x12f012e0 ; undefined
 294:	009f3002 	.inst	0x009f3002 ; undefined
 298:	00000003 	udf	#3
 29c:	00040000 	.inst	0x00040000 ; undefined
 2a0:	9c0dc404 	ldr	q4, 1bb20 <__bss_size+0x1bb0e>
 2a4:	4740040e 	.inst	0x4740040e ; undefined
 2a8:	f8049f24 	str	x4, [x25, #73]!
 2ac:	0c10fc10 	.inst	0x0c10fc10 ; undefined
 2b0:	20080071 	.inst	0x20080071 ; undefined
 2b4:	26200824 	.inst	0x26200824 ; undefined
 2b8:	9f220077 	.inst	0x9f220077 ; undefined
 2bc:	8010fc04 	.inst	0x8010fc04 ; undefined
 2c0:	04570111 	.inst	0x04570111 ; undefined
 2c4:	12f012e0 	.inst	0x12f012e0 ; undefined
 2c8:	24474004 	cmpge	p4.h, p0/z, z0.h, z7.d
 2cc:	0000009f 	udf	#159
	...
 2d8:	dc10a404 	.inst	0xdc10a404 ; undefined
 2dc:	04560110 	.inst	0x04560110 ; undefined
 2e0:	10fc10dc 	adr	x28, ffffffffffff84f8 <__bss_end+0xfffffffffff76fd8>
 2e4:	00ee7704 	.inst	0x00ee7704 ; undefined
 2e8:	1180049f 	.inst	0x1180049f ; undefined
 2ec:	56011184 	.inst	0x56011184 ; undefined
 2f0:	b0118404 	adrp	x4, 23081000 <__bss_end+0x22fffae0>
 2f4:	ee770411 	.inst	0xee770411 ; undefined
 2f8:	8c049f00 	.inst	0x8c049f00 ; undefined
 2fc:	01129b12 	.inst	0x01129b12 ; undefined
 300:	00020056 	.inst	0x00020056 ; undefined
 304:	00000000 	udf	#0
 308:	9c040000 	ldr	q0, 8308 <__bss_size+0x82f6>
 30c:	020eb40e 	.inst	0x020eb40e ; undefined
 310:	dc049f30 	.inst	0xdc049f30 ; undefined
 314:	010f980e 	.inst	0x010f980e ; undefined
 318:	0fbc0452 	.inst	0x0fbc0452 ; undefined
 31c:	520111b0 	eor	w16, w13, #0x8000000f
 320:	9b128c04 	msub	x4, x0, x18, x3
 324:	00520112 	.inst	0x00520112 ; undefined
 328:	00000003 	udf	#3
	...
 338:	b40e9c04 	cbz	x4, 1d6b8 <__bss_size+0x1d6a6>
 33c:	9f30020e 	.inst	0x9f30020e ; undefined
 340:	cc0eb404 	.inst	0xcc0eb404 ; undefined
 344:	0451010e 	.inst	0x0451010e ; undefined
 348:	0fac0f88 	.inst	0x0fac0f88 ; undefined
 34c:	d8045101 	prfm	pldl1strm, 8d6c <__bss_size+0x8d5a>
 350:	0110980f 	.inst	0x0110980f ; undefined
 354:	10980451 	adr	x17, fffffffffff303dc <__bss_end+0xffffffffffeaeebc>
 358:	7106109c 	subs	w28, w4, #0x184
 35c:	22007000 	.inst	0x22007000 ; undefined
 360:	109c049f 	adr	xzr, fffffffffff383f0 <__bss_end+0xffffffffffeb6ed0>
 364:	510110f8 	sub	w24, w7, #0x44
 368:	b0118004 	adrp	x4, 23001000 <__bss_end+0x22f7fae0>
 36c:	04510111 	.inst	0x04510111 ; undefined
 370:	129b128c 	mov	w12, #0xffff276b            	// #-55445
 374:	07005101 	.inst	0x07005101 ; undefined
 378:	04000800 	add	z0.b, p2/m, z0.b, z0.b
 37c:	12e00dc4 	.inst	0x12e00dc4 ; undefined
 380:	9f360803 	.inst	0x9f360803 ; undefined
 384:	f012e004 	adrp	x4, 25c03000 <__bss_end+0x25b81ae0>
 388:	36080312 	tbz	w18, #1, 3e8 <__bss_size+0x3d6>
 38c:	0008009f 	.inst	0x0008009f ; undefined
 390:	c4040009 	ld1sb	{z9.d}, p0/z, [x0, z4.d, uxtw]
 394:	0312e00d 	.inst	0x0312e00d ; undefined
 398:	049f5e08 	mla	z8.s, p7/m, z16.s, z31.s
 39c:	12f012e0 	.inst	0x12f012e0 ; undefined
 3a0:	9f5e0803 	.inst	0x9f5e0803 ; undefined
 3a4:	04000500 	add	z0.b, p1/m, z0.b, z8.b
 3a8:	0eb40e9c 	sqadd	v28.2s, v20.2s, v20.2s
 3ac:	009f3002 	.inst	0x009f3002 ; undefined
 3b0:	90040000 	adrp	x0, 8000000 <__bss_end+0x7f7eae0>
 3b4:	0211b011 	.inst	0x0211b011 ; undefined
 3b8:	00009f30 	udf	#40752
 3bc:	00000000 	udf	#0
 3c0:	11c00400 	.inst	0x11c00400 ; undefined
 3c4:	3a0211d8 	.inst	0x3a0211d8 ; undefined
 3c8:	11d8049f 	.inst	0x11d8049f ; undefined
 3cc:	500111f4 	adr	x20, 260a <__bss_size+0x25f8>
 3d0:	c012bc04 	.inst	0xc012bc04 ; undefined
 3d4:	9f3a0212 	.inst	0x9f3a0212 ; undefined
	...
 3e4:	11c00400 	.inst	0x11c00400 ; undefined
 3e8:	740611d0 	.inst	0x740611d0 ; undefined
 3ec:	1aff0800 	.inst	0x1aff0800 ; undefined
 3f0:	11d0049f 	.inst	0x11d0049f ; undefined
 3f4:	740611d8 	.inst	0x740611d8 ; undefined
 3f8:	1aff0809 	.inst	0x1aff0809 ; undefined
 3fc:	11d8049f 	.inst	0x11d8049f ; undefined
 400:	530111e0 	ubfx	w0, w15, #1, #4
 404:	e811e004 	.inst	0xe811e004 ; undefined
 408:	09740b11 	.inst	0x09740b11 ; undefined
 40c:	701aff08 	adr	x8, 363ef <__bss_size+0x363dd>
 410:	1c3a2200 	ldr	s0, 74850 <__bss_size+0x7483e>
 414:	11e8049f 	.inst	0x11e8049f ; undefined
 418:	530111f4 	ubfx	w20, w15, #1, #4
 41c:	c012bc04 	.inst	0xc012bc04 ; undefined
 420:	00740612 	.inst	0x00740612 ; undefined
 424:	9f1aff08 	.inst	0x9f1aff08 ; undefined
 428:	00010200 	.inst	0x00010200 ; undefined
 42c:	0d900402 	st1	{v2.b}[1], [x0], x16
 430:	50010dc4 	adr	x4, 25ea <__bss_size+0x25d8>
 434:	e012e004 	ld1b	{za0v.b[w15, 4]}, p0/z, [x0, x18]
 438:	00500112 	.inst	0x00500112 ; undefined
 43c:	00000004 	udf	#4
 440:	01000000 	.inst	0x01000000 ; undefined
 444:	90040200 	adrp	x0, 8040000 <__bss_end+0x7fbeae0>
 448:	020dac0d 	.inst	0x020dac0d ; undefined
 44c:	b4049f30 	cbz	x16, 9830 <__bss_size+0x981e>
 450:	010db80d 	.inst	0x010db80d ; undefined
 454:	0db80453 	st2	{v19.b, v20.b}[1], [x2], x24
 458:	51010dbc 	sub	w28, w13, #0x43
 45c:	c40dbc04 	.inst	0xc40dbc04 ; undefined
 460:	0454010d 	.inst	0x0454010d ; undefined
 464:	12e012e0 	.inst	0x12e012e0 ; undefined
 468:	009f3002 	.inst	0x009f3002 ; undefined
 46c:	00000001 	udf	#1
 470:	d0040001 	adrp	x1, 8002000 <__bss_end+0x7f80ae0>
 474:	030e880d 	.inst	0x030e880d ; undefined
 478:	049f7c74 	mls	z20.s, p7/m, z3.s, z31.s
 47c:	0e8c0e88 	.inst	0x0e8c0e88 ; undefined
 480:	9f7d7303 	.inst	0x9f7d7303 ; undefined
 484:	f012ec04 	adrp	x4, 25d83000 <__bss_end+0x25d01ae0>
 488:	fc090312 	stur	d18, [x24, #144]
 48c:	0001009f 	.inst	0x0001009f ; undefined
 490:	d0040001 	adrp	x1, 8002000 <__bss_end+0x7f80ae0>
 494:	020e9c0d 	.inst	0x020e9c0d ; undefined
 498:	ec049f34 	.inst	0xec049f34 ; undefined
 49c:	0212f012 	.inst	0x0212f012 ; undefined
 4a0:	01009f34 	.inst	0x01009f34 ; undefined
 4a4:	04000100 	add	z0.b, p0/m, z0.b, z8.b
 4a8:	0e9c0dd0 	.inst	0x0e9c0dd0 ; undefined
 4ac:	ec046301 	.inst	0xec046301 ; undefined
 4b0:	0112f012 	.inst	0x0112f012 ; undefined
 4b4:	00010063 	.inst	0x00010063 ; undefined
 4b8:	00010000 	.inst	0x00010000 ; undefined
 4bc:	840dd004 	prfb	pldl3keep, p4, [x0, x13]
 4c0:	0450010e 	mul	z14.h, p0/m, z14.h, z8.h
 4c4:	0e9c0e84 	.inst	0x0e9c0e84 ; undefined
 4c8:	5001a304 	adr	x4, 392a <__bss_size+0x3918>
 4cc:	12ec049f 	.inst	0x12ec049f ; undefined
 4d0:	500112f0 	adr	x16, 272e <__bss_size+0x271c>
 4d4:	04000000 	add	z0.b, p0/m, z0.b, z0.b
 4d8:	0dec0de0 	ld2	{v0.b, v1.b}[3], [x15], x12
 4dc:	01005101 	.inst	0x01005101 ; undefined
 4e0:	00000000 	udf	#0
 4e4:	00000303 	udf	#771
 4e8:	04000000 	add	z0.b, p0/m, z0.b, z0.b
 4ec:	10bc10a4 	adr	x4, fffffffffff78700 <__bss_end+0xffffffffffef71e0>
 4f0:	12e8030a 	.inst	0x12e8030a ; undefined
 4f4:	00000008 	udf	#8
 4f8:	049f0000 	.inst	0x049f0000 ; undefined
 4fc:	10c410bc 	adr	x28, fffffffffff88710 <__bss_end+0xfffffffffff071f0>
 500:	0300700d 	.inst	0x0300700d ; undefined
 504:	000812e9 	.inst	0x000812e9 ; undefined
 508:	00000000 	udf	#0
 50c:	c4049f22 	ldnt1sb	{z2.d}, p7/z, [z25.d, x4]
 510:	0d10cc10 	.inst	0x0d10cc10 ; undefined
 514:	e8030070 	.inst	0xe8030070 ; undefined
 518:	00000812 	udf	#2066
 51c:	22000000 	.inst	0x22000000 ; undefined
 520:	10cc049f 	adr	xzr, fffffffffff985b0 <__bss_end+0xfffffffffff17090>
 524:	700d10d4 	adr	x20, 1a73f <__bss_size+0x1a72d>
 528:	12e90300 	.inst	0x12e90300 ; undefined
 52c:	00000008 	udf	#8
 530:	9f220000 	.inst	0x9f220000 ; undefined
 534:	84118004 	ldnt1sb	{z4.s}, p0/z, [z0.s, x17]
 538:	e8030a11 	.inst	0xe8030a11 ; undefined
 53c:	00000812 	udf	#2066
 540:	9f000000 	.inst	0x9f000000 ; undefined
 544:	90128c04 	adrp	x4, 25180000 <__bss_end+0x250feae0>
 548:	00700d12 	.inst	0x00700d12 ; undefined
 54c:	0812e803 	stlxrb	w18, w3, [x0]
 550:	00000000 	udf	#0
 554:	009f2200 	.inst	0x009f2200 ; undefined
 558:	00000001 	udf	#1
 55c:	bc10a404 	str	s4, [x0], #-246
 560:	04560110 	.inst	0x04560110 ; undefined
 564:	11841180 	.inst	0x11841180 ; undefined
 568:	00005601 	udf	#22017
 56c:	10dc0400 	adr	x0, fffffffffffb85ec <__bss_end+0xfffffffffff370cc>
 570:	500110f4 	adr	x20, 278e <__bss_size+0x277c>
 574:	00000000 	udf	#0
 578:	04000202 	add	z2.b, p0/m, z2.b, z16.b
 57c:	10e010dc 	adr	x28, fffffffffffc0794 <__bss_end+0xfffffffffff3f274>
 580:	9f017603 	.inst	0x9f017603 ; undefined
 584:	e410e004 	stnt1b	{z4.b}, p0, [x0]
 588:	04560110 	.inst	0x04560110 ; undefined
 58c:	10f410e4 	adr	x4, fffffffffffe87a8 <__bss_end+0xfffffffffff67288>
 590:	9f017603 	.inst	0x9f017603 ; undefined
	...
 59c:	0ce00400 	.inst	0x0ce00400 ; undefined
 5a0:	50010cfc 	adr	x28, 273e <__bss_size+0x272c>
 5a4:	880cfc04 	stlxr	w12, w4, [x0]
 5a8:	01a3040d 	.inst	0x01a3040d ; undefined
 5ac:	88049f50 	stlxr	w4, w16, [x26]
 5b0:	010d8c0d 	.inst	0x010d8c0d ; undefined
 5b4:	0d8c0450 	st1	{v16.b}[1], [x2], x12
 5b8:	a3040d90 	.inst	0xa3040d90 ; undefined
 5bc:	009f5001 	.inst	0x009f5001 ; undefined
 5c0:	01010104 	.inst	0x01010104 ; undefined
 5c4:	e0040001 	ld1b	{za0h.b[w12, 1]}, p0/z, [x0, x4]
 5c8:	020cec0c 	.inst	0x020cec0c ; undefined
 5cc:	ec049f30 	.inst	0xec049f30 ; undefined
 5d0:	020cf80c 	.inst	0x020cf80c ; undefined
 5d4:	f8049f31 	str	x17, [x25, #73]!
 5d8:	020d880c 	.inst	0x020d880c ; undefined
 5dc:	00009f32 	udf	#40754
	...
 5e8:	04000000 	add	z0.b, p0/m, z0.b, z0.b
 5ec:	07a406f0 	.inst	0x07a406f0 ; undefined
 5f0:	a4045001 	ld1b	{z1.b}, p4/z, [x0, x4]
 5f4:	010c8407 	.inst	0x010c8407 ; undefined
 5f8:	0c840469 	st4	{v9.4h-v12.4h}, [x3], x4
 5fc:	a3040c8c 	.inst	0xa3040c8c ; undefined
 600:	049f5001 	mla	z1.s, p4/m, z0.s, z31.s
 604:	0ca40c8c 	.inst	0x0ca40c8c ; undefined
 608:	a4046901 	ldff1b	{z1.b}, p2/z, [x8, x4]
 60c:	040cac0c 	.inst	0x040cac0c ; undefined
 610:	9f5001a3 	.inst	0x9f5001a3 ; undefined
 614:	e00cac04 	ld1b	{za0v.b[w13, 4]}, p3/z, [x0, x12]
 618:	0069010c 	.inst	0x0069010c ; undefined
	...
 628:	a406f004 	ldnt1b	{z4.b}, p4/z, [x0, #6, mul vl]
 62c:	04510107 	.inst	0x04510107 ; undefined
 630:	0c8007a4 	st4	{v4.4h-v7.4h}, [x29], x0
 634:	80046801 	.inst	0x80046801 ; undefined
 638:	040c8c0c 	.inst	0x040c8c0c ; undefined
 63c:	9f5101a3 	.inst	0x9f5101a3 ; undefined
 640:	a00c8c04 	.inst	0xa00c8c04 ; undefined
 644:	0468010c 	add	z12.h, z8.h, z8.h
 648:	0cac0ca0 	.inst	0x0cac0ca0 ; undefined
 64c:	5101a304 	sub	w4, w24, #0x68
 650:	0cac049f 	.inst	0x0cac049f ; undefined
 654:	68010ce0 	.inst	0x68010ce0 ; undefined
 658:	00000200 	udf	#512
 65c:	00000000 	udf	#0
 660:	04000000 	add	z0.b, p0/m, z0.b, z0.b
 664:	07a406f0 	.inst	0x07a406f0 ; undefined
 668:	24474004 	cmpge	p4.h, p0/z, z0.h, z7.d
 66c:	0ab8049f 	bic	wzr, w4, w24, asr #1
 670:	730c0abc 	.inst	0x730c0abc ; undefined
 674:	24200800 	cmphs	p0.b, p2/z, z0.b, #0
 678:	86262008 	.inst	0x86262008 ; undefined
 67c:	049f2200 	.inst	0x049f2200 ; undefined
 680:	0ac00abc 	and	w28, w21, w0, ror #2
 684:	e4046601 	stnt1b	{z1.b}, p1, [x16, x4]
 688:	0c0ae80a 	.inst	0x0c0ae80a ; undefined
 68c:	20080073 	.inst	0x20080073 ; undefined
 690:	26200824 	.inst	0x26200824 ; undefined
 694:	9f220086 	.inst	0x9f220086 ; undefined
 698:	ec0ae804 	.inst	0xec0ae804 ; undefined
 69c:	0066010a 	.inst	0x0066010a ; undefined
	...
 6b0:	9c09ac04 	ldr	q4, 13c30 <__bss_size+0x13c1e>
 6b4:	046a010a 	add	z10.h, z8.h, z10.h
 6b8:	0abc0a9c 	bic	w28, w20, w28, asr #2
 6bc:	00ee8604 	.inst	0x00ee8604 ; undefined
 6c0:	0ac0049f 	and	wzr, w4, w0, ror #1
 6c4:	6a010aec 	ands	w12, w23, w1, lsl #2
 6c8:	980aec04 	ldrsw	x4, 16448 <__bss_size+0x16436>
 6cc:	ee86040b 	.inst	0xee86040b ; undefined
 6d0:	98049f00 	ldrsw	x0, 9ab0 <__bss_size+0x9a9e>
 6d4:	040b9c0b 	.inst	0x040b9c0b ; undefined
 6d8:	9f00ed71 	.inst	0x9f00ed71 ; undefined
 6dc:	a40c8c04 	.inst	0xa40c8c04 ; undefined
 6e0:	046a010c 	add	z12.h, z8.h, z10.h
 6e4:	0cac0ca4 	.inst	0x0cac0ca4 ; undefined
 6e8:	9f7f7103 	.inst	0x9f7f7103 ; undefined
 6ec:	b80cac04 	str	w4, [x0, #202]!
 6f0:	006a010c 	.inst	0x006a010c ; undefined
 6f4:	00000002 	udf	#2
 6f8:	00000000 	udf	#0
 6fc:	a4040000 	ld1rqb	{z0.b}, p0/z, [x0, x4]
 700:	0207bc07 	.inst	0x0207bc07 ; undefined
 704:	e4049f30 	st1b	{z16.d}, p7, [x25, z4.d, uxtw]
 708:	0108a007 	.inst	0x0108a007 ; undefined
 70c:	08c40464 	ldlarb	w4, [x3]
 710:	64010bf8 	.inst	0x64010bf8 ; undefined
 714:	980c8c04 	ldrsw	x4, 19894 <__bss_size+0x19882>
 718:	0464010c 	add	z12.h, z8.h, z4.h
 71c:	0ce00cac 	.inst	0x0ce00cac ; undefined
 720:	03006401 	.inst	0x03006401 ; undefined
	...
 72c:	07a40400 	.inst	0x07a40400 ; undefined
 730:	300207bc 	adr	x28, 4825 <__bss_size+0x4813>
 734:	07bc049f 	.inst	0x07bc049f ; undefined
 738:	530107d4 	ubfx	w20, w30, #1, #1
 73c:	b4089004 	cbz	x4, 1193c <__bss_size+0x1192a>
 740:	04530108 	umulh	z8.h, p0/m, z8.h, z8.h
 744:	08ec08e0 	.inst	0x08ec08e0 ; undefined
 748:	ec045301 	.inst	0xec045301 ; undefined
 74c:	0109a008 	.inst	0x0109a008 ; undefined
 750:	00050063 	.inst	0x00050063 ; undefined
 754:	bc07a404 	str	s4, [x0], #122
 758:	9f300207 	.inst	0x9f300207 ; undefined
 75c:	04000000 	add	z0.b, p0/m, z0.b, z0.b
 760:	0b9c0afc 	add	w28, w23, w28, asr #2
 764:	009f3002 	.inst	0x009f3002 ; undefined
 768:	00000000 	udf	#0
 76c:	b0040000 	adrp	x0, 8001000 <__bss_end+0x7f7fae0>
 770:	020bc80b 	.inst	0x020bc80b ; undefined
 774:	c8049f3a 	stlxr	w4, x26, [x25]
 778:	010be40b 	.inst	0x010be40b ; undefined
 77c:	0cb80450 	.inst	0x0cb80450 ; undefined
 780:	3a020cbc 	.inst	0x3a020cbc ; undefined
 784:	0000009f 	udf	#159
	...
 790:	b0040000 	adrp	x0, 8001000 <__bss_end+0x7f7fae0>
 794:	060bc00b 	.inst	0x060bc00b ; undefined
 798:	ff080074 	.inst	0xff080074 ; undefined
 79c:	c0049f1a 	.inst	0xc0049f1a ; undefined
 7a0:	060bc80b 	.inst	0x060bc80b ; undefined
 7a4:	ff080974 	.inst	0xff080974 ; undefined
 7a8:	c8049f1a 	stlxr	w4, x26, [x24]
 7ac:	010bd00b 	.inst	0x010bd00b ; undefined
 7b0:	0bd00453 	.inst	0x0bd00453 ; undefined
 7b4:	740b0bd8 	.inst	0x740b0bd8 ; undefined
 7b8:	1aff0809 	.inst	0x1aff0809 ; undefined
 7bc:	3a220070 	.inst	0x3a220070 ; undefined
 7c0:	d8049f1c 	prfm	#0x1c, 9ba0 <__bss_size+0x9b8e>
 7c4:	010be40b 	.inst	0x010be40b ; undefined
 7c8:	0cb80453 	.inst	0x0cb80453 ; undefined
 7cc:	74060cbc 	.inst	0x74060cbc ; undefined
 7d0:	1aff0800 	.inst	0x1aff0800 ; undefined
 7d4:	0000009f 	udf	#159
 7d8:	00030300 	.inst	0x00030300 ; undefined
 7dc:	00000100 	udf	#256
 7e0:	8009f804 	.inst	0x8009f804 ; undefined
 7e4:	00720d0a 	.inst	0x00720d0a ; undefined
 7e8:	0812f903 	stlxrb	w18, w3, [x8]
 7ec:	00000000 	udf	#0
 7f0:	049f2200 	.inst	0x049f2200 ; undefined
 7f4:	0a880a80 	and	w0, w20, w8, asr #2
 7f8:	0300720d 	.inst	0x0300720d ; undefined
 7fc:	000812f8 	.inst	0x000812f8 ; undefined
 800:	00000000 	udf	#0
 804:	88049f22 	stlxr	w4, w2, [x25]
 808:	0d0a900a 	.inst	0x0d0a900a ; undefined
 80c:	f9030072 	str	x18, [x3, #1536]
 810:	00000812 	udf	#2066
 814:	22000000 	.inst	0x22000000 ; undefined
 818:	0ac0049f 	and	wzr, w4, w0, ror #1
 81c:	030a0ac0 	.inst	0x030a0ac0 ; undefined
 820:	000812f8 	.inst	0x000812f8 ; undefined
 824:	00000000 	udf	#0
 828:	0cac049f 	.inst	0x0cac049f ; undefined
 82c:	720d0cb0 	ands	w16, w5, #0x780000
 830:	12f80300 	.inst	0x12f80300 ; undefined
 834:	00000008 	udf	#8
 838:	9f220000 	.inst	0x9f220000 ; undefined
 83c:	04010000 	sub	z0.b, p0/m, z0.b, z0.b
 840:	0ac00ac0 	and	w0, w22, w0, ror #2
 844:	01006a01 	.inst	0x01006a01 ; undefined
 848:	00000000 	udf	#0
 84c:	00000303 	udf	#771
 850:	09ac0400 	.inst	0x09ac0400 ; undefined
 854:	030a09cc 	.inst	0x030a09cc ; undefined
 858:	000812e8 	.inst	0x000812e8 ; undefined
 85c:	00000000 	udf	#0
 860:	09cc049f 	.inst	0x09cc049f ; undefined
 864:	720d09d4 	ands	w20, w14, #0x380000
 868:	12e90300 	.inst	0x12e90300 ; undefined
 86c:	00000008 	udf	#8
 870:	9f220000 	.inst	0x9f220000 ; undefined
 874:	dc09d404 	.inst	0xdc09d404 ; undefined
 878:	00720d09 	.inst	0x00720d09 ; undefined
 87c:	0812e803 	stlxrb	w18, w3, [x0]
 880:	00000000 	udf	#0
 884:	049f2200 	.inst	0x049f2200 ; undefined
 888:	09e409dc 	.inst	0x09e409dc ; undefined
 88c:	0300720d 	.inst	0x0300720d ; undefined
 890:	000812e9 	.inst	0x000812e9 ; undefined
 894:	00000000 	udf	#0
 898:	8c049f22 	.inst	0x8c049f22 ; undefined
 89c:	0d0c940c 	.inst	0x0d0c940c ; undefined
 8a0:	e8030072 	.inst	0xe8030072 ; undefined
 8a4:	00000812 	udf	#2066
 8a8:	22000000 	.inst	0x22000000 ; undefined
 8ac:	0001009f 	.inst	0x0001009f ; undefined
 8b0:	cc09ac04 	.inst	0xcc09ac04 ; undefined
 8b4:	006a0109 	.inst	0x006a0109 ; undefined
 8b8:	00010000 	.inst	0x00010000 ; undefined
 8bc:	b40a9c04 	cbz	x4, 15c3c <__bss_size+0x15c2a>
 8c0:	0452010a 	smulh	z10.h, p0/m, z10.h, z8.h
 8c4:	0ae00ad8 	bic	w24, w22, w0, ror #2
 8c8:	00006901 	udf	#26881
 8cc:	02020000 	.inst	0x02020000 ; undefined
 8d0:	04000100 	add	z0.b, p0/m, z0.b, z8.b
 8d4:	0aa00a9c 	bic	w28, w20, w0, asr #2
 8d8:	9f018a03 	.inst	0x9f018a03 ; undefined
 8dc:	a40aa004 	ld1b	{z4.b}, p0/z, [x0, #-6, mul vl]
 8e0:	046a010a 	add	z10.h, z8.h, z10.h
 8e4:	0ab40aa4 	bic	w4, w21, w20, asr #2
 8e8:	9f018a03 	.inst	0x9f018a03 ; undefined
 8ec:	e00ad804 	ld1b	{za0v.b[w14, 4]}, p6/z, [x0, x10]
 8f0:	006a010a 	.inst	0x006a010a ; undefined
 8f4:	00000004 	udf	#4
 8f8:	00010100 	.inst	0x00010100 ; undefined
 8fc:	e801e004 	.inst	0xe801e004 ; undefined
 900:	9f300201 	.inst	0x9f300201 ; undefined
 904:	d001e804 	adrp	x4, 3d02000 <__bss_end+0x3c80ae0>
 908:	04550102 	.inst	0x04550102 ; undefined
 90c:	02e002d0 	.inst	0x02e002d0 ; undefined
 910:	9f7f7503 	.inst	0x9f7f7503 ; undefined
 914:	e802e004 	.inst	0xe802e004 ; undefined
 918:	00550102 	.inst	0x00550102 ; undefined
 91c:	b8040000 	stur	w0, [x0, #64]
 920:	0102e402 	.inst	0x0102e402 ; undefined
 924:	01010057 	.inst	0x01010057 ; undefined
 928:	e8040002 	.inst	0xe8040002 ; undefined
 92c:	01028801 	.inst	0x01028801 ; undefined
 930:	02e00450 	.inst	0x02e00450 ; undefined
 934:	500102e4 	adr	x4, 2992 <__bss_size+0x2980>
 938:	00000300 	udf	#768
 93c:	00000000 	udf	#0
 940:	04000401 	add	z1.b, p1/m, z1.b, z0.b
 944:	01f401e8 	.inst	0x01f401e8 ; undefined
 948:	049f3002 	.inst	0x049f3002 ; undefined
 94c:	01fc01f4 	.inst	0x01fc01f4 ; undefined
 950:	9f7f7103 	.inst	0x9f7f7103 ; undefined
 954:	8001fc04 	.inst	0x8001fc04 ; undefined
 958:	04510102 	.inst	0x04510102 ; undefined
 95c:	02880280 	.inst	0x02880280 ; undefined
 960:	e0045401 	ld1b	{za0h.b[w14, 1]}, p5/z, [x0, x4]
 964:	0202e402 	.inst	0x0202e402 ; undefined
 968:	00009f30 	udf	#40752
 96c:	00000000 	udf	#0
 970:	02980401 	.inst	0x02980401 ; undefined
 974:	7103029c 	subs	w28, w20, #0xc0
 978:	9c049f7f 	ldr	q31, 9d64 <__bss_size+0x9d52>
 97c:	0102a002 	.inst	0x0102a002 ; undefined
 980:	02a00451 	.inst	0x02a00451 ; undefined
 984:	540102a8 	b.hi	29d8 <__bss_size+0x29c6>  // b.pmore
 988:	04010100 	sub	z0.b, p0/m, z0.b, z8.b
 98c:	02c802b8 	.inst	0x02c802b8 ; undefined
 990:	02005001 	.inst	0x02005001 ; undefined
 994:	00000404 	udf	#1028
 998:	04010000 	sub	z0.b, p0/m, z0.b, z0.b
 99c:	02b802b8 	.inst	0x02b802b8 ; undefined
 9a0:	049f3002 	.inst	0x049f3002 ; undefined
 9a4:	02bc02b8 	.inst	0x02bc02b8 ; undefined
 9a8:	9f7f7103 	.inst	0x9f7f7103 ; undefined
 9ac:	c002bc04 	mov	z4.b, p7/m, za0v.b[w13, 0]
 9b0:	04510102 	.inst	0x04510102 ; undefined
 9b4:	02c802c0 	.inst	0x02c802c0 ; undefined
 9b8:	00005401 	udf	#21505
	...
 9c4:	03f40400 	.inst	0x03f40400 ; undefined
 9c8:	90020598 	adrp	x24, 40b0000 <__bss_end+0x402eae0>
 9cc:	05980440 	mov	z0.s, p8/z, #34
 9d0:	a30606c4 	.inst	0xa30606c4 ; undefined
 9d4:	2e40a503 	.inst	0x2e40a503 ; undefined
 9d8:	06c4049f 	.inst	0x06c4049f ; undefined
 9dc:	900206dc 	adrp	x28, 40d8000 <__bss_end+0x4056ae0>
 9e0:	06dc0440 	.inst	0x06dc0440 ; undefined
 9e4:	a30606e8 	.inst	0xa30606e8 ; undefined
 9e8:	2e40a503 	.inst	0x2e40a503 ; undefined
 9ec:	06e8049f 	.inst	0x06e8049f ; undefined
 9f0:	900206f0 	adrp	x16, 40dc000 <__bss_end+0x405aae0>
 9f4:	00000040 	udf	#64
	...
 a00:	d803f404 	prfm	pldl3keep, 8880 <__bss_size+0x886e>
 a04:	04500105 	mul	z5.h, p0/m, z5.h, z8.h
 a08:	06c405d8 	.inst	0x06c405d8 ; undefined
 a0c:	5001a304 	adr	x4, 3e6e <__bss_size+0x3e5c>
 a10:	06c4049f 	.inst	0x06c4049f ; undefined
 a14:	500106e0 	adr	x0, 2af2 <__bss_size+0x2ae0>
 a18:	e806e004 	.inst	0xe806e004 ; undefined
 a1c:	01a30406 	.inst	0x01a30406 ; undefined
 a20:	e8049f50 	.inst	0xe8049f50 ; undefined
 a24:	0106f006 	.inst	0x0106f006 ; undefined
 a28:	00000050 	udf	#80
 a2c:	00000000 	udf	#0
 a30:	f4040000 	.inst	0xf4040000 ; undefined
 a34:	01049c03 	.inst	0x01049c03 ; undefined
 a38:	049c0451 	.inst	0x049c0451 ; undefined
 a3c:	580106e8 	ldr	x8, 2b18 <__bss_size+0x2b06>
 a40:	ec06e804 	.inst	0xec06e804 ; undefined
 a44:	04510106 	.inst	0x04510106 ; undefined
 a48:	06f006ec 	.inst	0x06f006ec ; undefined
 a4c:	00005801 	udf	#22529
 a50:	03f80400 	.inst	0x03f80400 ; undefined
 a54:	590106f0 	.inst	0x590106f0 ; undefined
 a58:	00000100 	udf	#256
 a5c:	00000001 	udf	#1
 a60:	03f80400 	.inst	0x03f80400 ; undefined
 a64:	a50b0598 	ld1rqw	{z24.s}, p1/z, [x12, x11, lsl #2]
 a68:	00792e40 	.inst	0x00792e40 ; undefined
 a6c:	2ea835a8 	cmhi	v8.2s, v13.2s, v8.2s
 a70:	98049f1c 	ldrsw	x28, 9e50 <__bss_size+0x9e3e>
 a74:	0d05c005 	.inst	0x0d05c005 ; undefined
 a78:	40a503a3 	.inst	0x40a503a3 ; undefined
 a7c:	a800792e 	stnp	x14, x30, [x9]
 a80:	1c2ea835 	ldr	s21, 5df84 <__bss_size+0x5df72>
 a84:	06c4049f 	.inst	0x06c4049f ; undefined
 a88:	a50b06dc 	ld1rqw	{z28.s}, p1/z, [x22, x11, lsl #2]
 a8c:	00792e40 	.inst	0x00792e40 ; undefined
 a90:	2ea835a8 	cmhi	v8.2s, v13.2s, v8.2s
 a94:	e8049f1c 	.inst	0xe8049f1c ; undefined
 a98:	0b06f006 	.inst	0x0b06f006 ; undefined
 a9c:	792e40a5 	strh	w5, [x5, #5920]
 aa0:	a835a800 	stnp	x0, x10, [x0, #-168]
 aa4:	009f1c2e 	.inst	0x009f1c2e ; undefined
 aa8:	00010001 	.inst	0x00010001 ; undefined
 aac:	c404fc04 	prfb	pldl3keep, p7, [z0.d, #4]
 ab0:	9f300206 	.inst	0x9f300206 ; undefined
 ab4:	e806d004 	.inst	0xe806d004 ; undefined
 ab8:	9f300206 	.inst	0x9f300206 ; undefined
 abc:	00000200 	udf	#512
 ac0:	03f80400 	.inst	0x03f80400 ; undefined
 ac4:	300204d8 	adr	x24, 4b5d <__bss_size+0x4b4b>
 ac8:	06e8049f 	.inst	0x06e8049f ; undefined
 acc:	300206f0 	adr	x16, 4ba9 <__bss_size+0x4b97>
 ad0:	0002009f 	.inst	0x0002009f ; undefined
 ad4:	f8040000 	stur	x0, [x0, #64]
 ad8:	0104d803 	.inst	0x0104d803 ; undefined
 adc:	06e80450 	.inst	0x06e80450 ; undefined
 ae0:	500106f0 	adr	x16, 2bbe <__bss_size+0x2bac>
 ae4:	00000200 	udf	#512
 ae8:	00000100 	udf	#256
 aec:	03f80400 	.inst	0x03f80400 ; undefined
 af0:	5901049c 	.inst	0x5901049c ; undefined
 af4:	bc049c04 	str	s4, [x0, #73]!
 af8:	04540104 	.inst	0x04540104 ; undefined
 afc:	04d004c4 	mul	z4.d, p1/m, z4.d, z6.d
 b00:	e8045401 	.inst	0xe8045401 ; undefined
 b04:	0106f006 	.inst	0x0106f006 ; undefined
 b08:	00030059 	.inst	0x00030059 ; undefined
	...
 b14:	9c03f804 	ldr	q4, 8a14 <__bss_size+0x8a02>
 b18:	9f300204 	.inst	0x9f300204 ; undefined
 b1c:	a8049c04 	stnp	x4, x7, [x0, #72]
 b20:	7f750304 	.inst	0x7f750304 ; undefined
 b24:	04a8049f 	sub	z31.s, z4.s, z8.s
 b28:	550104c8 	.inst	0x550104c8 ; undefined
 b2c:	d004c804 	adrp	x4, 9902000 <__bss_end+0x9880ae0>
 b30:	04510104 	.inst	0x04510104 ; undefined
 b34:	06f006e8 	.inst	0x06f006e8 ; undefined
 b38:	009f3002 	.inst	0x009f3002 ; undefined
 b3c:	01000000 	.inst	0x01000000 ; undefined
 b40:	01000001 	.inst	0x01000001 ; undefined
 b44:	e804d804 	.inst	0xe804d804 ; undefined
 b48:	9f300204 	.inst	0x9f300204 ; undefined
 b4c:	e804e804 	.inst	0xe804e804 ; undefined
 b50:	7f720304 	.inst	0x7f720304 ; undefined
 b54:	04e8049f 	sub	z31.d, z4.d, z8.d
 b58:	520104f4 	eor	w20, w7, #0x80000001
 b5c:	d006c404 	adrp	x4, d882000 <__bss_end+0xd800ae0>
 b60:	9f300206 	.inst	0x9f300206 ; undefined
 b64:	00000200 	udf	#512
 b68:	04010000 	sub	z0.b, p0/m, z0.b, z0.b
 b6c:	05a40598 	zip2	z24.q, z12.q, z4.q
 b70:	a4045801 	ld1b	{z1.b}, p6/z, [x0, x4]
 b74:	0105b005 	.inst	0x0105b005 ; undefined
 b78:	05b00452 	zip2	z18.q, z2.q, z16.q
 b7c:	720305b4 	ands	w20, w13, #0x60000000
 b80:	02009f01 	.inst	0x02009f01 ; undefined
 b84:	05980401 	mov	z1.s, p8/z, #32
 b88:	3a0205c0 	.inst	0x3a0205c0 ; undefined
 b8c:	0004009f 	.inst	0x0004009f ; undefined
 b90:	00000000 	udf	#0
 b94:	a4059804 	.inst	0xa4059804 ; undefined
 b98:	9f310205 	.inst	0x9f310205 ; undefined
 b9c:	ac05a404 	stnp	q4, q9, [x0, #176]
 ba0:	04510105 	.inst	0x04510105 ; undefined
 ba4:	05c005b4 	mov	z20.h, #0x3fff
 ba8:	00005101 	udf	#20737
 bac:	04000000 	add	z0.b, p0/m, z0.b, z0.b
 bb0:	06c405cc 	.inst	0x06c405cc ; undefined
 bb4:	dc045801 	.inst	0xdc045801 ; undefined
 bb8:	0106e806 	.inst	0x0106e806 ; undefined
 bbc:	00000058 	udf	#88
 bc0:	00000000 	udf	#0
 bc4:	c305cc04 	.inst	0xc305cc04 ; undefined
 bc8:	04570106 	.inst	0x04570106 ; undefined
 bcc:	06c406c3 	.inst	0x06c406c3 ; undefined
 bd0:	dc045001 	.inst	0xdc045001 ; undefined
 bd4:	0106e806 	.inst	0x0106e806 ; undefined
 bd8:	00000057 	udf	#87
 bdc:	00000001 	udf	#1
 be0:	fc05cc04 	str	d4, [x0, #92]!
 be4:	04540105 	.inst	0x04540105 ; undefined
 be8:	06c30684 	.inst	0x06c30684 ; undefined
 bec:	dc045401 	.inst	0xdc045401 ; undefined
 bf0:	0106e806 	.inst	0x0106e806 ; undefined
 bf4:	00010054 	.inst	0x00010054 ; undefined
 bf8:	01000000 	.inst	0x01000000 ; undefined
 bfc:	00010101 	.inst	0x00010101 ; undefined
 c00:	cc040000 	.inst	0xcc040000 ; undefined
 c04:	0205e005 	.inst	0x0205e005 ; undefined
 c08:	e0049f30 	.inst	0xe0049f30 ; undefined
 c0c:	0305e805 	.inst	0x0305e805 ; undefined
 c10:	049f7f76 	mls	z22.s, p7/m, z27.s, z31.s
 c14:	068405e8 	.inst	0x068405e8 ; undefined
 c18:	84045601 	ld1b	{z1.s}, p5/z, [x16, z4.s, uxtw]
 c1c:	01069c06 	.inst	0x01069c06 ; undefined
 c20:	069c0451 	.inst	0x069c0451 ; undefined
 c24:	710306a8 	subs	w8, w21, #0xc1
 c28:	dc049f01 	.inst	0xdc049f01 ; undefined
 c2c:	0206e806 	.inst	0x0206e806 ; undefined
 c30:	00009f30 	udf	#40752
 c34:	04000000 	add	z0.b, p0/m, z0.b, z0.b
 c38:	50010800 	adr	x0, 2d3a <__bss_size+0x2d28>
 c3c:	01200804 	.inst	0x01200804 ; undefined
 c40:	01000052 	.inst	0x01000052 ; undefined
 c44:	00000001 	udf	#1
 c48:	01140004 	.inst	0x01140004 ; undefined
 c4c:	18140451 	ldr	w17, 28cd4 <__bss_size+0x28cc2>
 c50:	9f7f7103 	.inst	0x9f7f7103 ; undefined
 c54:	01201804 	.inst	0x01201804 ; undefined
 c58:	00020051 	.inst	0x00020051 ; undefined
 c5c:	00040000 	.inst	0x00040000 ; undefined
 c60:	9f310210 	.inst	0x9f310210 ; undefined
 c64:	011c1004 	.inst	0x011c1004 ; undefined
 c68:	00000050 	udf	#80
 c6c:	02000000 	.inst	0x02000000 ; undefined
 c70:	20040002 	.inst	0x20040002 ; undefined
 c74:	0450012c 	mul	z12.h, p0/m, z12.h, z9.h
 c78:	7003302c 	adr	x12, 727f <__bss_size+0x726d>
 c7c:	30049f01 	adr	x1, a05d <__bss_size+0xa04b>
 c80:	04500134 	mul	z20.h, p0/m, z20.h, z9.h
 c84:	70034834 	adr	x20, 758b <__bss_size+0x7579>
 c88:	00009f01 	udf	#40705
 c8c:	04000000 	add	z0.b, p0/m, z0.b, z0.b
 c90:	51013c20 	sub	w0, w1, #0x4f
 c94:	015c3c04 	.inst	0x015c3c04 ; undefined
 c98:	00000051 	udf	#81
 c9c:	00000000 	udf	#0
 ca0:	60040000 	.inst	0x60040000 ; undefined
 ca4:	04500170 	mul	z16.h, p0/m, z16.h, z11.h
 ca8:	03018470 	.inst	0x03018470 ; undefined
 cac:	049f0173 	.inst	0x049f0173 ; undefined
 cb0:	01880184 	.inst	0x01880184 ; undefined
 cb4:	88045001 	stxr	w4, w1, [x0]
 cb8:	04018c01 	.inst	0x04018c01 ; undefined
 cbc:	9f5001a3 	.inst	0x9f5001a3 ; undefined
 cc0:	00000200 	udf	#512
 cc4:	00000000 	udf	#0
 cc8:	04000000 	add	z0.b, p0/m, z0.b, z0.b
 ccc:	30027060 	adr	x0, 5ad9 <__bss_size+0x5ac7>
 cd0:	7470049f 	.inst	0x7470049f ; undefined
 cd4:	9f7f7103 	.inst	0x9f7f7103 ; undefined
 cd8:	01787404 	.inst	0x01787404 ; undefined
 cdc:	84780451 	.inst	0x84780451 ; undefined
 ce0:	04500101 	mul	z1.h, p0/m, z1.h, z8.h
 ce4:	018c0184 	.inst	0x018c0184 ; undefined
 ce8:	009f3002 	.inst	0x009f3002 ; undefined
 cec:	00000000 	udf	#0
 cf0:	90040000 	adrp	x0, 8000000 <__bss_end+0x7f7eae0>
 cf4:	0101ac01 	.inst	0x0101ac01 ; undefined
 cf8:	01ac0452 	.inst	0x01ac0452 ; undefined
 cfc:	a30401cc 	.inst	0xa30401cc ; undefined
 d00:	049f5201 	mla	z1.s, p4/m, z16.s, z31.s
 d04:	01d801cc 	.inst	0x01d801cc ; undefined
 d08:	00005201 	udf	#20993
 d0c:	04000000 	add	z0.b, p0/m, z0.b, z0.b
 d10:	019c0190 	.inst	0x019c0190 ; undefined
 d14:	9c045301 	ldr	q1, 9774 <__bss_size+0x9762>
 d18:	0401d801 	mad	z1.b, p6/m, z1.b, z0.b
 d1c:	9f5301a3 	.inst	0x9f5301a3 ; undefined
 d20:	01010000 	.inst	0x01010000 ; undefined
 d24:	04000000 	add	z0.b, p0/m, z0.b, z0.b
 d28:	01b80198 	.inst	0x01b80198 ; undefined
 d2c:	b8045201 	stur	w1, [x16, #69]
 d30:	0301bc01 	.inst	0x0301bc01 ; undefined
 d34:	049f0172 	.inst	0x049f0172 ; undefined
 d38:	01d401cc 	.inst	0x01d401cc ; undefined
 d3c:	00005201 	udf	#20993
 d40:	01000000 	.inst	0x01000000 ; undefined
 d44:	04000000 	add	z0.b, p0/m, z0.b, z0.b
 d48:	02f802f0 	.inst	0x02f802f0 ; undefined
 d4c:	f8045001 	stur	x1, [x0, #69]
 d50:	0103ac02 	.inst	0x0103ac02 ; undefined
 d54:	03b40455 	.inst	0x03b40455 ; undefined
 d58:	550103eb 	.inst	0x550103eb ; undefined
 d5c:	f403ec04 	.inst	0xf403ec04 ; undefined
 d60:	00550103 	.inst	0x00550103 ; undefined
 d64:	00000000 	udf	#0
 d68:	8402f004 	prfb	pldl3keep, p4, [z0.s, #2]
 d6c:	04510103 	.inst	0x04510103 ; undefined
 d70:	03f40384 	.inst	0x03f40384 ; undefined
 d74:	00005001 	udf	#20481
 d78:	00000000 	udf	#0
 d7c:	02f00400 	.inst	0x02f00400 ; undefined
 d80:	520103eb 	eor	w11, wzr, #0x80000000
 d84:	ec03eb04 	.inst	0xec03eb04 ; undefined
 d88:	01a30403 	.inst	0x01a30403 ; undefined
 d8c:	ec049f52 	.inst	0xec049f52 ; undefined
 d90:	0103f403 	.inst	0x0103f403 ; undefined
 d94:	00020052 	.inst	0x00020052 ; undefined
 d98:	00000000 	udf	#0
 d9c:	01000000 	.inst	0x01000000 ; undefined
 da0:	00000001 	udf	#1
 da4:	8c02f004 	.inst	0x8c02f004 ; undefined
 da8:	9f300203 	.inst	0x9f300203 ; undefined
 dac:	98038c04 	ldrsw	x4, 7f2c <__bss_size+0x7f1a>
 db0:	7f770303 	.inst	0x7f770303 ; undefined
 db4:	0398049f 	.inst	0x0398049f ; undefined
 db8:	570103b8 	.inst	0x570103b8 ; undefined
 dbc:	d003b804 	adrp	x4, 7702000 <__bss_end+0x7680ae0>
 dc0:	04560103 	.inst	0x04560103 ; undefined
 dc4:	03d003d0 	.inst	0x03d003d0 ; undefined
 dc8:	d0045301 	adrp	x1, 8a62000 <__bss_end+0x89e0ae0>
 dcc:	0303d803 	.inst	0x0303d803 ; undefined
 dd0:	049f0173 	.inst	0x049f0173 ; undefined
 dd4:	03f403ec 	.inst	0x03f403ec ; undefined
 dd8:	009f3002 	.inst	0x009f3002 ; undefined

Disassembly of section .debug_rnglists:

0000000000000000 <.debug_rnglists>:
   0:	0000002e 	udf	#46
   4:	00080005 	.inst	0x00080005 ; undefined
   8:	00000000 	udf	#0
   c:	08006405 	stxrb	w0, w5, [x0]
  10:	00000000 	udf	#0
  14:	04000400 	add	z0.b, p1/m, z0.b, z0.b
  18:	04100c04 	mul	z4.b, p3/m, z4.b, z0.b
  1c:	4c04241c 	.inst	0x4c04241c ; undefined
  20:	f8740474 	ldraa	x20, [x3, #-1536]
  24:	50070004 	adr	x4, e026 <__bss_size+0xe014>
  28:	00000800 	udf	#2048
  2c:	90000000 	adrp	x0, 0 <__bss_size-0x12>
  30:	00320005 	.inst	0x00320005 ; NYI
  34:	00050000 	.inst	0x00050000 ; undefined
  38:	00000008 	udf	#8
  3c:	94040000 	bl	10003c <__bss_end+0x7eb1c>
  40:	04019801 	.inst	0x04019801 ; undefined
  44:	01a0019c 	.inst	0x01a0019c ; undefined
  48:	a801a404 	stnp	x4, x9, [x0, #24]
  4c:	01b00401 	.inst	0x01b00401 ; undefined
  50:	040001f8 	add	z24.b, p0/m, z24.b, z15.b
  54:	02a802a4 	.inst	0x02a802a4 ; undefined
  58:	b002ac04 	adrp	x4, 5581000 <__bss_end+0x54ffae0>
  5c:	02b40402 	.inst	0x02b40402 ; undefined
  60:	c40402b8 	ld1sb	{z24.d}, p0/z, [x21, z4.d, uxtw]
  64:	00039002 	.inst	0x00039002 ; undefined
  68:	00000036 	udf	#54
  6c:	00080005 	.inst	0x00080005 ; undefined
  70:	00000000 	udf	#0
  74:	04141004 	.inst	0x04141004 ; undefined
  78:	20041c18 	.inst	0x20041c18 ; undefined
  7c:	30280424 	adr	x4, 50101 <__bss_size+0x500ef>
  80:	18140400 	ldr	w0, 28100 <__bss_size+0x280ee>
  84:	04201c04 	uqsub	z4.b, z0.b, z0.b
  88:	34043030 	cbz	w16, 868c <__bss_size+0x867a>
  8c:	40040038 	.inst	0x40040038 ; undefined
  90:	4c480444 	.inst	0x4c480444 ; undefined
  94:	00585004 	.inst	0x00585004 ; undefined
  98:	04484404 	mla	z4.h, p1/m, z0.h, z8.h
  9c:	5804504c 	ldr	x12, 8aa4 <__bss_size+0x8a92>
  a0:	0028005c 	.inst	0x0028005c ; NYI
  a4:	00050000 	.inst	0x00050000 ; undefined
  a8:	00000008 	udf	#8
  ac:	e8040000 	.inst	0xe8040000 ; undefined
  b0:	04038002 	.inst	0x04038002 ; undefined
  b4:	03c003ac 	.inst	0x03c003ac ; undefined
  b8:	03d80400 	.inst	0x03d80400 ; undefined
  bc:	ec0403e0 	.inst	0xec0403e0 ; undefined
  c0:	0403f803 	msb	z3.b, p6/m, z3.b, z0.b
  c4:	049c048c 	.inst	0x049c048c ; undefined
  c8:	a404a004 	ld1b	{z4.b}, p0/z, [x0, #4, mul vl]
  cc:	01790004 	.inst	0x01790004 ; undefined
  d0:	00050000 	.inst	0x00050000 ; undefined
  d4:	00000008 	udf	#8
  d8:	98040000 	ldrsw	x0, 80d8 <__bss_size+0x80c6>
  dc:	0401c801 	mad	z1.b, p2/m, z1.b, z0.b
  e0:	01d801cc 	.inst	0x01d801cc ; undefined
  e4:	01e00400 	.inst	0x01e00400 ; undefined
  e8:	e80401e4 	.inst	0xe80401e4 ; undefined
  ec:	04028801 	.inst	0x04028801 ; undefined
  f0:	02e402e0 	.inst	0x02e402e0 ; undefined
  f4:	03f80400 	.inst	0x03f80400 ; undefined
  f8:	840403f8 	ld1sb	{z24.s}, p0/z, [sp, z4.s, uxtw]
  fc:	0404d804 	mad	z4.b, p6/m, z4.b, z0.b
 100:	06f006e8 	.inst	0x06f006e8 ; undefined
 104:	04d80400 	orr	z0.d, p1/m, z0.d, z0.d
 108:	c40404fc 	ld1sb	{z28.d}, p1/z, [x7, z4.d, uxtw]
 10c:	0406c806 	mad	z6.b, p2/m, z6.b, z0.b
 110:	06d006cc 	.inst	0x06d006cc ; undefined
 114:	05980400 	mov	z0.s, p8/z, #32
 118:	c00405b8 	.inst	0xc00405b8 ; undefined
 11c:	0005c005 	.inst	0x0005c005 ; undefined
 120:	bc05cc04 	str	s4, [x0, #92]!
 124:	06c00406 	.inst	0x06c00406 ; undefined
 128:	e00406c4 	ld1b	{za0h.b[w12, 4]}, p1/z, [x22, x4]
 12c:	0006e806 	.inst	0x0006e806 ; undefined
 130:	8406fc04 	prfb	pldl3keep, p7, [z0.s, #6]
 134:	0ac80407 	and	w7, w0, w8, ror #1
 138:	04000ad8 	add	z24.b, p2/m, z24.b, z22.b
 13c:	078c0788 	.inst	0x078c0788 ; undefined
 140:	94079004 	bl	1e4150 <__bss_end+0x162c30>
 144:	09e80407 	.inst	0x09e80407 ; undefined
 148:	f80409ec 	sttr	x12, [x15, #64]
 14c:	040a9009 	.inst	0x040a9009 ; undefined
 150:	0ac00ac0 	and	w0, w22, w0, ror #2
 154:	b00cac04 	adrp	x4, 19581000 <__bss_end+0x194ffae0>
 158:	a804000c 	stnp	x12, x0, [x0, #64]
 15c:	0407b007 	.inst	0x0407b007 ; undefined
 160:	08e807bc 	.inst	0x08e807bc ; undefined
 164:	09a40400 	.inst	0x09a40400 ; undefined
 168:	ac0409a8 	stnp	q8, q2, [x13, #128]
 16c:	0409e809 	msb	z9.b, p2/m, z9.b, z0.b
 170:	09f809ec 	.inst	0x09f809ec ; undefined
 174:	9c0a9404 	ldr	q4, 153f4 <__bss_size+0x153e2>
 178:	0c8c040a 	st4	{v10.4h-v13.4h}, [x0], x12
 17c:	04000c90 	add	z16.b, p3/m, z16.b, z4.b
 180:	0ab40a9c 	bic	w28, w20, w20, asr #2
 184:	e00ad804 	ld1b	{za0v.b[w14, 4]}, p6/z, [x0, x10]
 188:	0aec040a 	bic	w10, w0, w12, ror #1
 18c:	04000aec 	add	z12.b, p2/m, z12.b, z23.b
 190:	0bf00afc 	.inst	0x0bf00afc ; undefined
 194:	e00cb804 	ld1b	{za0v.b[w13, 4]}, p6/z, [x0, x12]
 198:	8404000c 	ld1sb	{z12.s}, p0/z, [x0, z4.s, uxtw]
 19c:	040be40b 	msb	z11.b, p1/m, z11.b, z0.b
 1a0:	0ccc0cb8 	.inst	0x0ccc0cb8 ; undefined
 1a4:	d40cd004 	.inst	0xd40cd004 ; undefined
 1a8:	b004000c 	adrp	x12, 8001000 <__bss_end+0x7f7fae0>
 1ac:	040bb00b 	.inst	0x040bb00b ; undefined
 1b0:	0be40bb4 	.inst	0x0be40bb4 ; undefined
 1b4:	c80cb804 	stlxr	w12, x4, [x0]
 1b8:	e004000c 	ld1b	{za0h.b[w12, 12]}, p0/z, [x0, x4]
 1bc:	040d840c 	.inst	0x040d840c ; undefined
 1c0:	0d8c0d88 	st1	{v8.b}[3], [x12], x12
 1c4:	0d900400 	st1	{v0.b}[1], [x0], x16
 1c8:	9c040d90 	ldr	q16, 8378 <__bss_size+0x8366>
 1cc:	040dc40d 	mad	z13.b, p1/m, z13.b, z0.b
 1d0:	12e012e0 	.inst	0x12e012e0 ; undefined
 1d4:	0dd00400 	ld1	{v0.b}[1], [x0], x16
 1d8:	94040e8c 	bl	103c08 <__bss_end+0x826e8>
 1dc:	040e980e 	.inst	0x040e980e ; undefined
 1e0:	12f012ec 	.inst	0x12f012ec ; undefined
 1e4:	0e8c0400 	.inst	0x0e8c0400 ; undefined
 1e8:	9c040e94 	ldr	q20, 83b8 <__bss_size+0x83a6>
 1ec:	0410a010 	.inst	0x0410a010 ; undefined
 1f0:	10dc10a4 	adr	x4, fffffffffffb8404 <__bss_end+0xfffffffffff36ee4>
 1f4:	88118004 	stlxr	w17, w4, [x0]
 1f8:	128c0411 	mov	w17, #0xffff9fdf            	// #-24609
 1fc:	04001290 	add	z16.b, p4/m, z16.b, z20.b
 200:	0ea80ea0 	sqadd	v0.2s, v21.2s, v8.2s
 204:	e00eb404 	ld1b	{za0v.b[w13, 4]}, p5/z, [x0, x14]
 208:	dc04000f 	.inst	0xdc04000f ; undefined
 20c:	0410f410 	msb	z16.b, p5/m, z16.b, z0.b
 210:	11901188 	.inst	0x11901188 ; undefined
 214:	11900400 	.inst	0x11900400 ; undefined
 218:	bc041280 	stur	s0, [x20, #65]
 21c:	0012e012 	.inst	0x0012e012 ; undefined
 220:	f4119804 	.inst	0xf4119804 ; undefined
 224:	12bc0411 	mov	w17, #0x1fdfffff            	// #534773759
 228:	d00412cc 	adrp	x12, 825a000 <__bss_end+0x81d8ae0>
 22c:	0012d412 	.inst	0x0012d412 ; undefined
 230:	c011c004 	.inst	0xc011c004 ; undefined
 234:	11c40411 	.inst	0x11c40411 ; undefined
 238:	bc0411f4 	stur	s20, [x15, #65]
 23c:	0012c812 	.inst	0x0012c812 ; undefined
 240:	a0138004 	.inst	0xa0138004 ; undefined
 244:	13a00413 	.inst	0x13a00413 ; undefined
 248:	Address 0x0000000000000248 is out of bounds.

